ARM GAS  /tmp/ccTUhYWk.s 			page 1


   1              		.cpu cortex-m4
   2              		.arch armv7e-m
   3              		.fpu fpv4-sp-d16
   4              		.eabi_attribute 27, 1
   5              		.eabi_attribute 28, 1
   6              		.eabi_attribute 20, 1
   7              		.eabi_attribute 21, 1
   8              		.eabi_attribute 23, 3
   9              		.eabi_attribute 24, 1
  10              		.eabi_attribute 25, 1
  11              		.eabi_attribute 26, 1
  12              		.eabi_attribute 30, 2
  13              		.eabi_attribute 34, 1
  14              		.eabi_attribute 18, 4
  15              		.file	"bsp_rc.c"
  16              		.text
  17              	.Ltext0:
  18              		.cfi_sections	.debug_frame
  19              		.section	.text.RC_Init,"ax",%progbits
  20              		.align	1
  21              		.p2align 2,,3
  22              		.global	RC_Init
  23              		.syntax unified
  24              		.thumb
  25              		.thumb_func
  27              	RC_Init:
  28              	.LVL0:
  29              	.LFB235:
  30              		.file 1 "bsp/boards/Src/bsp_rc.c"
   1:bsp/boards/Src/bsp_rc.c **** #include "bsp_rc.h"
   2:bsp/boards/Src/bsp_rc.c **** #include "main.h"
   3:bsp/boards/Src/bsp_rc.c **** 
   4:bsp/boards/Src/bsp_rc.c **** extern UART_HandleTypeDef huart3;
   5:bsp/boards/Src/bsp_rc.c **** extern DMA_HandleTypeDef hdma_usart3_rx;
   6:bsp/boards/Src/bsp_rc.c **** 
   7:bsp/boards/Src/bsp_rc.c **** void RC_Init(uint8_t *rx1_buf, uint8_t *rx2_buf, uint16_t dma_buf_num)
   8:bsp/boards/Src/bsp_rc.c **** {
  31              		.loc 1 8 1 view -0
  32              		.cfi_startproc
  33              		@ args = 0, pretend = 0, frame = 0
  34              		@ frame_needed = 0, uses_anonymous_args = 0
  35              		@ link register save eliminated.
   9:bsp/boards/Src/bsp_rc.c **** 
  10:bsp/boards/Src/bsp_rc.c ****     //enable the DMA transfer for the receiver request
  11:bsp/boards/Src/bsp_rc.c ****     //使能DMA串口接收
  12:bsp/boards/Src/bsp_rc.c ****     SET_BIT(huart3.Instance->CR3, USART_CR3_DMAR);
  36              		.loc 1 12 5 view .LVU1
  37 0000 114B     		ldr	r3, .L11
  38 0002 1B68     		ldr	r3, [r3]
   8:bsp/boards/Src/bsp_rc.c **** 
  39              		.loc 1 8 1 is_stmt 0 view .LVU2
  40 0004 10B4     		push	{r4}
  41              		.cfi_def_cfa_offset 4
  42              		.cfi_offset 4, -4
  43              		.loc 1 12 5 view .LVU3
  44 0006 5C69     		ldr	r4, [r3, #20]
  45 0008 44F04004 		orr	r4, r4, #64
ARM GAS  /tmp/ccTUhYWk.s 			page 2


  46 000c 5C61     		str	r4, [r3, #20]
  13:bsp/boards/Src/bsp_rc.c **** 
  14:bsp/boards/Src/bsp_rc.c ****     //enalbe idle interrupt
  15:bsp/boards/Src/bsp_rc.c ****     //使能空闲中断
  16:bsp/boards/Src/bsp_rc.c ****     __HAL_UART_ENABLE_IT(&huart3, UART_IT_IDLE);
  47              		.loc 1 16 5 is_stmt 1 view .LVU4
  48 000e DC68     		ldr	r4, [r3, #12]
  49 0010 44F01004 		orr	r4, r4, #16
  50 0014 DC60     		str	r4, [r3, #12]
  17:bsp/boards/Src/bsp_rc.c **** 
  18:bsp/boards/Src/bsp_rc.c ****     //disable DMA
  19:bsp/boards/Src/bsp_rc.c ****     //失效DMA
  20:bsp/boards/Src/bsp_rc.c ****     __HAL_DMA_DISABLE(&hdma_usart3_rx);
  51              		.loc 1 20 5 view .LVU5
  52 0016 0D4B     		ldr	r3, .L11+4
  53 0018 1B68     		ldr	r3, [r3]
  54              	.L9:
  55 001a 1C68     		ldr	r4, [r3]
  56 001c 24F00104 		bic	r4, r4, #1
  57 0020 1C60     		str	r4, [r3]
  21:bsp/boards/Src/bsp_rc.c ****     while(hdma_usart3_rx.Instance->CR & DMA_SxCR_EN)
  58              		.loc 1 21 5 view .LVU6
  59              		.loc 1 21 10 view .LVU7
  60              		.loc 1 21 34 is_stmt 0 view .LVU8
  61 0022 1C68     		ldr	r4, [r3]
  62              		.loc 1 21 10 view .LVU9
  63 0024 E407     		lsls	r4, r4, #31
  64 0026 F8D4     		bmi	.L9
  22:bsp/boards/Src/bsp_rc.c ****     {
  23:bsp/boards/Src/bsp_rc.c ****         __HAL_DMA_DISABLE(&hdma_usart3_rx);
  24:bsp/boards/Src/bsp_rc.c ****     }
  25:bsp/boards/Src/bsp_rc.c **** 
  26:bsp/boards/Src/bsp_rc.c ****     hdma_usart3_rx.Instance->PAR = (uint32_t) & (USART3->DR);
  65              		.loc 1 26 5 is_stmt 1 view .LVU10
  66              		.loc 1 26 34 is_stmt 0 view .LVU11
  67 0028 094C     		ldr	r4, .L11+8
  68 002a 9C60     		str	r4, [r3, #8]
  27:bsp/boards/Src/bsp_rc.c ****     //memory buffer 1
  28:bsp/boards/Src/bsp_rc.c ****     //内存缓冲区1
  29:bsp/boards/Src/bsp_rc.c ****     hdma_usart3_rx.Instance->M0AR = (uint32_t)(rx1_buf);
  69              		.loc 1 29 5 is_stmt 1 view .LVU12
  70              		.loc 1 29 35 is_stmt 0 view .LVU13
  71 002c D860     		str	r0, [r3, #12]
  30:bsp/boards/Src/bsp_rc.c ****     //memory buffer 2
  31:bsp/boards/Src/bsp_rc.c ****     //内存缓冲区2
  32:bsp/boards/Src/bsp_rc.c ****     hdma_usart3_rx.Instance->M1AR = (uint32_t)(rx2_buf);
  72              		.loc 1 32 5 is_stmt 1 view .LVU14
  73              		.loc 1 32 35 is_stmt 0 view .LVU15
  74 002e 1961     		str	r1, [r3, #16]
  33:bsp/boards/Src/bsp_rc.c ****     //data length
  34:bsp/boards/Src/bsp_rc.c ****     //数据长度
  35:bsp/boards/Src/bsp_rc.c ****     hdma_usart3_rx.Instance->NDTR = dma_buf_num;
  75              		.loc 1 35 5 is_stmt 1 view .LVU16
  76              		.loc 1 35 35 is_stmt 0 view .LVU17
  77 0030 5A60     		str	r2, [r3, #4]
  36:bsp/boards/Src/bsp_rc.c ****     //enable double memory buffer
  37:bsp/boards/Src/bsp_rc.c ****     //使能双缓冲区
ARM GAS  /tmp/ccTUhYWk.s 			page 3


  38:bsp/boards/Src/bsp_rc.c ****     SET_BIT(hdma_usart3_rx.Instance->CR, DMA_SxCR_DBM);
  78              		.loc 1 38 5 is_stmt 1 view .LVU18
  79 0032 1A68     		ldr	r2, [r3]
  80              	.LVL1:
  39:bsp/boards/Src/bsp_rc.c **** 
  40:bsp/boards/Src/bsp_rc.c ****     //enable DMA
  41:bsp/boards/Src/bsp_rc.c ****     //使能DMA
  42:bsp/boards/Src/bsp_rc.c ****     __HAL_DMA_ENABLE(&hdma_usart3_rx);
  43:bsp/boards/Src/bsp_rc.c **** 
  44:bsp/boards/Src/bsp_rc.c **** 
  45:bsp/boards/Src/bsp_rc.c **** }
  81              		.loc 1 45 1 is_stmt 0 view .LVU19
  82 0034 5DF8044B 		ldr	r4, [sp], #4
  83              		.cfi_restore 4
  84              		.cfi_def_cfa_offset 0
  38:bsp/boards/Src/bsp_rc.c **** 
  85              		.loc 1 38 5 view .LVU20
  86 0038 42F48022 		orr	r2, r2, #262144
  87 003c 1A60     		str	r2, [r3]
  42:bsp/boards/Src/bsp_rc.c **** 
  88              		.loc 1 42 5 is_stmt 1 view .LVU21
  89 003e 1A68     		ldr	r2, [r3]
  90 0040 42F00102 		orr	r2, r2, #1
  91 0044 1A60     		str	r2, [r3]
  92              		.loc 1 45 1 is_stmt 0 view .LVU22
  93 0046 7047     		bx	lr
  94              	.L12:
  95              		.align	2
  96              	.L11:
  97 0048 00000000 		.word	huart3
  98 004c 00000000 		.word	hdma_usart3_rx
  99 0050 04480040 		.word	1073760260
 100              		.cfi_endproc
 101              	.LFE235:
 103              		.section	.text.RC_unable,"ax",%progbits
 104              		.align	1
 105              		.p2align 2,,3
 106              		.global	RC_unable
 107              		.syntax unified
 108              		.thumb
 109              		.thumb_func
 111              	RC_unable:
 112              	.LFB236:
  46:bsp/boards/Src/bsp_rc.c **** void RC_unable(void)
  47:bsp/boards/Src/bsp_rc.c **** {
 113              		.loc 1 47 1 is_stmt 1 view -0
 114              		.cfi_startproc
 115              		@ args = 0, pretend = 0, frame = 0
 116              		@ frame_needed = 0, uses_anonymous_args = 0
 117              		@ link register save eliminated.
  48:bsp/boards/Src/bsp_rc.c ****     __HAL_UART_DISABLE(&huart3);
 118              		.loc 1 48 5 view .LVU24
 119 0000 034B     		ldr	r3, .L14
 120 0002 1A68     		ldr	r2, [r3]
 121 0004 D368     		ldr	r3, [r2, #12]
 122 0006 23F40053 		bic	r3, r3, #8192
 123 000a D360     		str	r3, [r2, #12]
ARM GAS  /tmp/ccTUhYWk.s 			page 4


  49:bsp/boards/Src/bsp_rc.c **** }
 124              		.loc 1 49 1 is_stmt 0 view .LVU25
 125 000c 7047     		bx	lr
 126              	.L15:
 127 000e 00BF     		.align	2
 128              	.L14:
 129 0010 00000000 		.word	huart3
 130              		.cfi_endproc
 131              	.LFE236:
 133              		.section	.text.RC_restart,"ax",%progbits
 134              		.align	1
 135              		.p2align 2,,3
 136              		.global	RC_restart
 137              		.syntax unified
 138              		.thumb
 139              		.thumb_func
 141              	RC_restart:
 142              	.LVL2:
 143              	.LFB237:
  50:bsp/boards/Src/bsp_rc.c **** void RC_restart(uint16_t dma_buf_num)
  51:bsp/boards/Src/bsp_rc.c **** {
 144              		.loc 1 51 1 is_stmt 1 view -0
 145              		.cfi_startproc
 146              		@ args = 0, pretend = 0, frame = 0
 147              		@ frame_needed = 0, uses_anonymous_args = 0
 148              		@ link register save eliminated.
  52:bsp/boards/Src/bsp_rc.c ****     __HAL_UART_DISABLE(&huart3);
 149              		.loc 1 52 5 view .LVU27
 150 0000 0A4A     		ldr	r2, .L17
  53:bsp/boards/Src/bsp_rc.c ****     __HAL_DMA_DISABLE(&hdma_usart3_rx);
 151              		.loc 1 53 5 is_stmt 0 view .LVU28
 152 0002 0B4B     		ldr	r3, .L17+4
  52:bsp/boards/Src/bsp_rc.c ****     __HAL_UART_DISABLE(&huart3);
 153              		.loc 1 52 5 view .LVU29
 154 0004 1268     		ldr	r2, [r2]
 155              		.loc 1 53 5 view .LVU30
 156 0006 1B68     		ldr	r3, [r3]
  52:bsp/boards/Src/bsp_rc.c ****     __HAL_UART_DISABLE(&huart3);
 157              		.loc 1 52 5 view .LVU31
 158 0008 D168     		ldr	r1, [r2, #12]
 159 000a 21F40051 		bic	r1, r1, #8192
 160 000e D160     		str	r1, [r2, #12]
 161              		.loc 1 53 5 is_stmt 1 view .LVU32
 162 0010 1968     		ldr	r1, [r3]
 163 0012 21F00101 		bic	r1, r1, #1
 164 0016 1960     		str	r1, [r3]
  54:bsp/boards/Src/bsp_rc.c **** 
  55:bsp/boards/Src/bsp_rc.c ****     hdma_usart3_rx.Instance->NDTR = dma_buf_num;
 165              		.loc 1 55 5 view .LVU33
 166              		.loc 1 55 35 is_stmt 0 view .LVU34
 167 0018 5860     		str	r0, [r3, #4]
  56:bsp/boards/Src/bsp_rc.c **** 
  57:bsp/boards/Src/bsp_rc.c ****     __HAL_DMA_ENABLE(&hdma_usart3_rx);
 168              		.loc 1 57 5 is_stmt 1 view .LVU35
 169 001a 1968     		ldr	r1, [r3]
 170 001c 41F00101 		orr	r1, r1, #1
 171 0020 1960     		str	r1, [r3]
ARM GAS  /tmp/ccTUhYWk.s 			page 5


  58:bsp/boards/Src/bsp_rc.c ****     __HAL_UART_ENABLE(&huart3);
 172              		.loc 1 58 5 view .LVU36
 173 0022 D368     		ldr	r3, [r2, #12]
 174 0024 43F40053 		orr	r3, r3, #8192
 175 0028 D360     		str	r3, [r2, #12]
  59:bsp/boards/Src/bsp_rc.c **** 
  60:bsp/boards/Src/bsp_rc.c **** }
 176              		.loc 1 60 1 is_stmt 0 view .LVU37
 177 002a 7047     		bx	lr
 178              	.L18:
 179              		.align	2
 180              	.L17:
 181 002c 00000000 		.word	huart3
 182 0030 00000000 		.word	hdma_usart3_rx
 183              		.cfi_endproc
 184              	.LFE237:
 186              		.text
 187              	.Letext0:
 188              		.file 2 "/opt/gcc-arm-none-eabi-10.3-2021.10/arm-none-eabi/include/machine/_default_types.h"
 189              		.file 3 "/opt/gcc-arm-none-eabi-10.3-2021.10/arm-none-eabi/include/sys/_stdint.h"
 190              		.file 4 "Drivers/CMSIS/Device/ST/STM32F4xx/Include/stm32f407xx.h"
 191              		.file 5 "Drivers/STM32F4xx_HAL_Driver/Inc/stm32f4xx_hal_def.h"
 192              		.file 6 "Drivers/STM32F4xx_HAL_Driver/Inc/stm32f4xx_hal_dma.h"
 193              		.file 7 "Drivers/STM32F4xx_HAL_Driver/Inc/stm32f4xx_hal_uart.h"
ARM GAS  /tmp/ccTUhYWk.s 			page 6

