ARM GAS  /tmp/ccNVbLGI.s 			page 1


   1              		.cpu cortex-m4
   2              		.arch armv7e-m
   3              		.fpu fpv4-sp-d16
   4              		.eabi_attribute 27, 1
   5              		.eabi_attribute 28, 1
   6              		.eabi_attribute 20, 1
   7              		.eabi_attribute 21, 1
   8              		.eabi_attribute 23, 3
   9              		.eabi_attribute 24, 1
  10              		.eabi_attribute 25, 1
  11              		.eabi_attribute 26, 1
  12              		.eabi_attribute 30, 2
  13              		.eabi_attribute 34, 1
  14              		.eabi_attribute 18, 4
  15              		.file	"can_send.c"
  16              		.text
  17              	.Ltext0:
  18              		.cfi_sections	.debug_frame
  19              		.section	.text.CAN_cmd_send_yaw_pitch,"ax",%progbits
  20              		.align	1
  21              		.p2align 2,,3
  22              		.global	CAN_cmd_send_yaw_pitch
  23              		.syntax unified
  24              		.thumb
  25              		.thumb_func
  27              	CAN_cmd_send_yaw_pitch:
  28              	.LFB240:
  29              		.file 1 "application/src/can_send.c"
   1:application/src/can_send.c **** #include "can_send.h"
   2:application/src/can_send.c **** #include "cmsis_os.h"
   3:application/src/can_send.c **** #include "main.h"
   4:application/src/can_send.c **** #include "bsp_rng.h"
   5:application/src/can_send.c **** #include "imu.h"
   6:application/src/can_send.c **** #include "quaternion.h"
   7:application/src/can_send.c **** #include "struct_typedef.h"
   8:application/src/can_send.c **** 
   9:application/src/can_send.c **** extern CAN_HandleTypeDef hcan1;
  10:application/src/can_send.c **** extern CAN_HandleTypeDef hcan2;
  11:application/src/can_send.c **** 
  12:application/src/can_send.c **** static CAN_TxHeaderTypeDef  gimbal_tx_message;
  13:application/src/can_send.c **** static uint8_t              gimbal_can_send_data[8];
  14:application/src/can_send.c **** 
  15:application/src/can_send.c **** extern float yaw, pitch, roll;
  16:application/src/can_send.c **** 
  17:application/src/can_send.c **** typedef struct
  18:application/src/can_send.c **** {
  19:application/src/can_send.c ****     float yaw;
  20:application/src/can_send.c ****     float pitch;
  21:application/src/can_send.c **** }__attribute__((packed)) can_yaw_pitch_t;
  22:application/src/can_send.c **** 
  23:application/src/can_send.c **** typedef struct
  24:application/src/can_send.c **** {
  25:application/src/can_send.c ****     float roll;
  26:application/src/can_send.c ****     // bool_t microsw;
  27:application/src/can_send.c **** }__attribute__((packed)) can_roll_microsw_t;
  28:application/src/can_send.c **** 
  29:application/src/can_send.c **** 
ARM GAS  /tmp/ccNVbLGI.s 			page 2


  30:application/src/can_send.c **** void CAN_cmd_send_yaw_pitch(void)
  31:application/src/can_send.c **** {
  30              		.loc 1 31 1 view -0
  31              		.cfi_startproc
  32              		@ args = 0, pretend = 0, frame = 8
  33              		@ frame_needed = 0, uses_anonymous_args = 0
  32:application/src/can_send.c ****     can_yaw_pitch_t p;
  34              		.loc 1 32 5 view .LVU1
  33:application/src/can_send.c ****     p.yaw = yaw;
  35              		.loc 1 33 5 view .LVU2
  34:application/src/can_send.c ****     p.pitch = pitch;
  36              		.loc 1 34 5 view .LVU3
  35:application/src/can_send.c ****     void *buf = (void*) &p;
  37              		.loc 1 35 5 view .LVU4
  38              	.LVL0:
  36:application/src/can_send.c ****     //send(buf, sizeof(packet_yaw_pitch));
  37:application/src/can_send.c **** 
  38:application/src/can_send.c ****     uint32_t send_mail_box;
  39              		.loc 1 38 5 view .LVU5
  39:application/src/can_send.c ****     gimbal_tx_message.StdId = CAN2_ID_A;
  40              		.loc 1 39 5 view .LVU6
  33:application/src/can_send.c ****     p.pitch = pitch;
  41              		.loc 1 33 11 is_stmt 0 view .LVU7
  42 0000 164A     		ldr	r2, .L4
  43              		.loc 1 39 29 view .LVU8
  44 0002 1749     		ldr	r1, .L4+4
  40:application/src/can_send.c ****     gimbal_tx_message.IDE = CAN_ID_STD;
  41:application/src/can_send.c ****     gimbal_tx_message.RTR = CAN_RTR_DATA;
  42:application/src/can_send.c ****     gimbal_tx_message.DLC = 0x08;
  43:application/src/can_send.c ****     gimbal_can_send_data[0] = *(char *)buf++; //yaw
  45              		.loc 1 43 29 view .LVU9
  46 0004 1068     		ldr	r0, [r2]
  34:application/src/can_send.c ****     void *buf = (void*) &p;
  47              		.loc 1 34 13 view .LVU10
  48 0006 174B     		ldr	r3, .L4+8
  31:application/src/can_send.c ****     can_yaw_pitch_t p;
  49              		.loc 1 31 1 view .LVU11
  50 0008 10B5     		push	{r4, lr}
  51              		.cfi_def_cfa_offset 8
  52              		.cfi_offset 4, -8
  53              		.cfi_offset 14, -4
  40:application/src/can_send.c ****     gimbal_tx_message.IDE = CAN_ID_STD;
  54              		.loc 1 40 27 view .LVU12
  55 000a 0022     		movs	r2, #0
  41:application/src/can_send.c ****     gimbal_tx_message.DLC = 0x08;
  56              		.loc 1 41 27 view .LVU13
  57 000c C1E90222 		strd	r2, r2, [r1, #8]
  58              		.loc 1 43 29 view .LVU14
  59 0010 154A     		ldr	r2, .L4+12
  44:application/src/can_send.c ****     gimbal_can_send_data[1] = *(char *)buf++;
  45:application/src/can_send.c ****     gimbal_can_send_data[2] = *(char *)buf++;
  46:application/src/can_send.c ****     gimbal_can_send_data[3] = *(char *)buf++;
  47:application/src/can_send.c ****     gimbal_can_send_data[4] = *(char *)buf++; //pitch
  60              		.loc 1 47 29 view .LVU15
  61 0012 1B68     		ldr	r3, [r3]
  43:application/src/can_send.c ****     gimbal_can_send_data[1] = *(char *)buf++;
  62              		.loc 1 43 29 view .LVU16
ARM GAS  /tmp/ccNVbLGI.s 			page 3


  63 0014 1070     		strb	r0, [r2]
  44:application/src/can_send.c ****     gimbal_can_send_data[1] = *(char *)buf++;
  64              		.loc 1 44 29 view .LVU17
  65 0016 C0F3072C 		ubfx	ip, r0, #8, #8
  66 001a 82F801C0 		strb	ip, [r2, #1]
  45:application/src/can_send.c ****     gimbal_can_send_data[3] = *(char *)buf++;
  67              		.loc 1 45 29 view .LVU18
  68 001e C0F3074C 		ubfx	ip, r0, #16, #8
  69 0022 82F802C0 		strb	ip, [r2, #2]
  46:application/src/can_send.c ****     gimbal_can_send_data[4] = *(char *)buf++; //pitch
  70              		.loc 1 46 29 view .LVU19
  71 0026 C0F30760 		ubfx	r0, r0, #24, #8
  48:application/src/can_send.c ****     gimbal_can_send_data[5] = *(char *)buf++;
  72              		.loc 1 48 29 view .LVU20
  73 002a C3F3072C 		ubfx	ip, r3, #8, #8
  31:application/src/can_send.c ****     can_yaw_pitch_t p;
  74              		.loc 1 31 1 view .LVU21
  75 002e 82B0     		sub	sp, sp, #8
  76              		.cfi_def_cfa_offset 16
  46:application/src/can_send.c ****     gimbal_can_send_data[4] = *(char *)buf++; //pitch
  77              		.loc 1 46 29 view .LVU22
  78 0030 D070     		strb	r0, [r2, #3]
  79              		.loc 1 48 29 view .LVU23
  80 0032 82F805C0 		strb	ip, [r2, #5]
  49:application/src/can_send.c ****     gimbal_can_send_data[6] = *(char *)buf++;
  50:application/src/can_send.c ****     gimbal_can_send_data[7] = *(char *)buf;
  81              		.loc 1 50 29 view .LVU24
  82 0036 C3F30760 		ubfx	r0, r3, #24, #8
  49:application/src/can_send.c ****     gimbal_can_send_data[6] = *(char *)buf++;
  83              		.loc 1 49 29 view .LVU25
  84 003a C3F3074C 		ubfx	ip, r3, #16, #8
  39:application/src/can_send.c ****     gimbal_tx_message.IDE = CAN_ID_STD;
  85              		.loc 1 39 29 view .LVU26
  86 003e 4FF48074 		mov	r4, #256
  87 0042 0C60     		str	r4, [r1]
  40:application/src/can_send.c ****     gimbal_tx_message.RTR = CAN_RTR_DATA;
  88              		.loc 1 40 5 is_stmt 1 view .LVU27
  42:application/src/can_send.c ****     gimbal_can_send_data[0] = *(char *)buf++; //yaw
  89              		.loc 1 42 5 view .LVU28
  47:application/src/can_send.c ****     gimbal_can_send_data[5] = *(char *)buf++;
  90              		.loc 1 47 29 is_stmt 0 view .LVU29
  91 0044 1371     		strb	r3, [r2, #4]
  92              		.loc 1 50 29 view .LVU30
  93 0046 D071     		strb	r0, [r2, #7]
  42:application/src/can_send.c ****     gimbal_can_send_data[0] = *(char *)buf++; //yaw
  94              		.loc 1 42 27 view .LVU31
  95 0048 0824     		movs	r4, #8
  51:application/src/can_send.c ****     // gimbal_can_send_data[0] = *(int *)buf>>(8*7); //yaw
  52:application/src/can_send.c ****     // gimbal_can_send_data[1] = *(int *)buf>>(8*6);
  53:application/src/can_send.c ****     // gimbal_can_send_data[2] = *(int *)buf>>(8*5);
  54:application/src/can_send.c ****     // gimbal_can_send_data[3] = *(int *)buf>>(8*4);
  55:application/src/can_send.c ****     // gimbal_can_send_data[4] = *(int *)buf>>(8*3); //pitch
  56:application/src/can_send.c ****     // gimbal_can_send_data[5] = *(int *)buf>>(8*2);
  57:application/src/can_send.c ****     // gimbal_can_send_data[6] = *(int *)buf>>(8*1);
  58:application/src/can_send.c ****     // gimbal_can_send_data[7] = *(int *)buf>>(8*0);
  59:application/src/can_send.c ****     HAL_CAN_AddTxMessage(&GIMBAL_CAN, &gimbal_tx_message, gimbal_can_send_data, &send_mail_box);
  96              		.loc 1 59 5 view .LVU32
ARM GAS  /tmp/ccNVbLGI.s 			page 4


  97 004a 01AB     		add	r3, sp, #4
  49:application/src/can_send.c ****     gimbal_can_send_data[7] = *(char *)buf;
  98              		.loc 1 49 29 view .LVU33
  99 004c 82F806C0 		strb	ip, [r2, #6]
 100              		.loc 1 59 5 view .LVU34
 101 0050 0648     		ldr	r0, .L4+16
  42:application/src/can_send.c ****     gimbal_can_send_data[0] = *(char *)buf++; //yaw
 102              		.loc 1 42 27 view .LVU35
 103 0052 0C61     		str	r4, [r1, #16]
  43:application/src/can_send.c ****     gimbal_can_send_data[1] = *(char *)buf++;
 104              		.loc 1 43 5 is_stmt 1 view .LVU36
 105              	.LVL1:
  44:application/src/can_send.c ****     gimbal_can_send_data[2] = *(char *)buf++;
 106              		.loc 1 44 5 view .LVU37
  45:application/src/can_send.c ****     gimbal_can_send_data[3] = *(char *)buf++;
 107              		.loc 1 45 5 view .LVU38
  46:application/src/can_send.c ****     gimbal_can_send_data[4] = *(char *)buf++; //pitch
 108              		.loc 1 46 5 view .LVU39
  47:application/src/can_send.c ****     gimbal_can_send_data[5] = *(char *)buf++;
 109              		.loc 1 47 5 view .LVU40
  48:application/src/can_send.c ****     gimbal_can_send_data[6] = *(char *)buf++;
 110              		.loc 1 48 5 view .LVU41
  49:application/src/can_send.c ****     gimbal_can_send_data[7] = *(char *)buf;
 111              		.loc 1 49 5 view .LVU42
  50:application/src/can_send.c ****     // gimbal_can_send_data[0] = *(int *)buf>>(8*7); //yaw
 112              		.loc 1 50 5 view .LVU43
 113              		.loc 1 59 5 view .LVU44
 114 0054 FFF7FEFF 		bl	HAL_CAN_AddTxMessage
 115              	.LVL2:
  60:application/src/can_send.c **** } 
 116              		.loc 1 60 1 is_stmt 0 view .LVU45
 117 0058 02B0     		add	sp, sp, #8
 118              		.cfi_def_cfa_offset 8
 119              		@ sp needed
 120 005a 10BD     		pop	{r4, pc}
 121              	.L5:
 122              		.align	2
 123              	.L4:
 124 005c 00000000 		.word	yaw
 125 0060 00000000 		.word	.LANCHOR0
 126 0064 00000000 		.word	pitch
 127 0068 00000000 		.word	.LANCHOR1
 128 006c 00000000 		.word	hcan2
 129              		.cfi_endproc
 130              	.LFE240:
 132              		.section	.text.CAN_cmd_send_roll_microsw,"ax",%progbits
 133              		.align	1
 134              		.p2align 2,,3
 135              		.global	CAN_cmd_send_roll_microsw
 136              		.syntax unified
 137              		.thumb
 138              		.thumb_func
 140              	CAN_cmd_send_roll_microsw:
 141              	.LFB241:
  61:application/src/can_send.c **** extern bool_t micro_sw;
  62:application/src/can_send.c **** void CAN_cmd_send_roll_microsw(void)
  63:application/src/can_send.c **** {
ARM GAS  /tmp/ccNVbLGI.s 			page 5


 142              		.loc 1 63 1 is_stmt 1 view -0
 143              		.cfi_startproc
 144              		@ args = 0, pretend = 0, frame = 8
 145              		@ frame_needed = 0, uses_anonymous_args = 0
  64:application/src/can_send.c ****   can_roll_microsw_t p;
 146              		.loc 1 64 3 view .LVU47
  65:application/src/can_send.c ****   p.roll = roll;
 147              		.loc 1 65 3 view .LVU48
  66:application/src/can_send.c **** //   p.microsw = micro_sw;
  67:application/src/can_send.c ****   void *buf = (void*) &p;
 148              		.loc 1 67 3 view .LVU49
 149              	.LVL3:
  68:application/src/can_send.c ****   // send(buf, sizeof(packet_yaw_pitch));
  69:application/src/can_send.c **** 
  70:application/src/can_send.c ****   uint32_t send_mail_box;
 150              		.loc 1 70 3 view .LVU50
  71:application/src/can_send.c ****   gimbal_tx_message.StdId = CAN2_ID_B;
 151              		.loc 1 71 3 view .LVU51
  65:application/src/can_send.c **** //   p.microsw = micro_sw;
 152              		.loc 1 65 10 is_stmt 0 view .LVU52
 153 0000 114B     		ldr	r3, .L8
 154              		.loc 1 71 27 view .LVU53
 155 0002 1249     		ldr	r1, .L8+4
  72:application/src/can_send.c ****   gimbal_tx_message.IDE = CAN_ID_STD;
  73:application/src/can_send.c ****   gimbal_tx_message.RTR = CAN_RTR_DATA;
  74:application/src/can_send.c ****   gimbal_tx_message.DLC = 0x08;
  75:application/src/can_send.c ****   gimbal_can_send_data[0] = *(char *)buf++; //roll
 156              		.loc 1 75 27 view .LVU54
 157 0004 1B68     		ldr	r3, [r3]
 158 0006 124A     		ldr	r2, .L8+8
  63:application/src/can_send.c ****   can_roll_microsw_t p;
 159              		.loc 1 63 1 view .LVU55
 160 0008 10B5     		push	{r4, lr}
 161              		.cfi_def_cfa_offset 8
 162              		.cfi_offset 4, -8
 163              		.cfi_offset 14, -4
  71:application/src/can_send.c ****   gimbal_tx_message.IDE = CAN_ID_STD;
 164              		.loc 1 71 27 view .LVU56
 165 000a 40F20114 		movw	r4, #257
 166 000e 0C60     		str	r4, [r1]
  72:application/src/can_send.c ****   gimbal_tx_message.IDE = CAN_ID_STD;
 167              		.loc 1 72 3 is_stmt 1 view .LVU57
  74:application/src/can_send.c ****   gimbal_can_send_data[0] = *(char *)buf++; //roll
 168              		.loc 1 74 25 is_stmt 0 view .LVU58
 169 0010 0824     		movs	r4, #8
 170 0012 0C61     		str	r4, [r1, #16]
  76:application/src/can_send.c ****   gimbal_can_send_data[1] = *(char *)buf++;
 171              		.loc 1 76 27 view .LVU59
 172 0014 C3F30724 		ubfx	r4, r3, #8, #8
 173 0018 5470     		strb	r4, [r2, #1]
  77:application/src/can_send.c ****   gimbal_can_send_data[2] = *(char *)buf++;
 174              		.loc 1 77 27 view .LVU60
 175 001a C3F30744 		ubfx	r4, r3, #16, #8
 176 001e 9470     		strb	r4, [r2, #2]
  78:application/src/can_send.c ****   gimbal_can_send_data[3] = *(char *)buf++;
  79:application/src/can_send.c ****   gimbal_can_send_data[4] = (uint8_t)micro_sw;//*buf>>(8*0); //microsw
 177              		.loc 1 79 27 view .LVU61
ARM GAS  /tmp/ccNVbLGI.s 			page 6


 178 0020 0C4C     		ldr	r4, .L8+12
  75:application/src/can_send.c ****   gimbal_can_send_data[1] = *(char *)buf++;
 179              		.loc 1 75 27 view .LVU62
 180 0022 1370     		strb	r3, [r2]
  78:application/src/can_send.c ****   gimbal_can_send_data[3] = *(char *)buf++;
 181              		.loc 1 78 27 view .LVU63
 182 0024 C3F30763 		ubfx	r3, r3, #24, #8
  63:application/src/can_send.c ****   can_roll_microsw_t p;
 183              		.loc 1 63 1 view .LVU64
 184 0028 82B0     		sub	sp, sp, #8
 185              		.cfi_def_cfa_offset 16
  72:application/src/can_send.c ****   gimbal_tx_message.RTR = CAN_RTR_DATA;
 186              		.loc 1 72 25 view .LVU65
 187 002a 0020     		movs	r0, #0
  78:application/src/can_send.c ****   gimbal_can_send_data[4] = (uint8_t)micro_sw;//*buf>>(8*0); //microsw
 188              		.loc 1 78 27 view .LVU66
 189 002c D370     		strb	r3, [r2, #3]
 190              		.loc 1 79 27 view .LVU67
 191 002e 2378     		ldrb	r3, [r4]	@ zero_extendqisi2
 192 0030 1371     		strb	r3, [r2, #4]
  73:application/src/can_send.c ****   gimbal_tx_message.DLC = 0x08;
 193              		.loc 1 73 25 view .LVU68
 194 0032 C1E90200 		strd	r0, r0, [r1, #8]
  74:application/src/can_send.c ****   gimbal_can_send_data[0] = *(char *)buf++; //roll
 195              		.loc 1 74 3 is_stmt 1 view .LVU69
  75:application/src/can_send.c ****   gimbal_can_send_data[1] = *(char *)buf++;
 196              		.loc 1 75 3 view .LVU70
 197              	.LVL4:
  76:application/src/can_send.c ****   gimbal_can_send_data[2] = *(char *)buf++;
 198              		.loc 1 76 3 view .LVU71
  77:application/src/can_send.c ****   gimbal_can_send_data[3] = *(char *)buf++;
 199              		.loc 1 77 3 view .LVU72
  78:application/src/can_send.c ****   gimbal_can_send_data[4] = (uint8_t)micro_sw;//*buf>>(8*0); //microsw
 200              		.loc 1 78 3 view .LVU73
 201              		.loc 1 79 3 view .LVU74
  80:application/src/can_send.c ****   gimbal_can_send_data[5] = 0;
 202              		.loc 1 80 3 view .LVU75
  81:application/src/can_send.c ****   gimbal_can_send_data[6] = 0;
 203              		.loc 1 81 3 view .LVU76
  82:application/src/can_send.c ****   gimbal_can_send_data[7] = 0;
 204              		.loc 1 82 3 view .LVU77
  80:application/src/can_send.c ****   gimbal_can_send_data[5] = 0;
 205              		.loc 1 80 27 is_stmt 0 view .LVU78
 206 0036 5071     		strb	r0, [r2, #5]
  81:application/src/can_send.c ****   gimbal_can_send_data[6] = 0;
 207              		.loc 1 81 27 view .LVU79
 208 0038 D080     		strh	r0, [r2, #6]	@ movhi
  83:application/src/can_send.c ****   HAL_CAN_AddTxMessage(&GIMBAL_CAN, &gimbal_tx_message, gimbal_can_send_data, &send_mail_box);
 209              		.loc 1 83 3 is_stmt 1 view .LVU80
 210 003a 01AB     		add	r3, sp, #4
 211 003c 0648     		ldr	r0, .L8+16
 212 003e FFF7FEFF 		bl	HAL_CAN_AddTxMessage
 213              	.LVL5:
  84:application/src/can_send.c **** } 
 214              		.loc 1 84 1 is_stmt 0 view .LVU81
 215 0042 02B0     		add	sp, sp, #8
 216              		.cfi_def_cfa_offset 8
ARM GAS  /tmp/ccNVbLGI.s 			page 7


 217              		@ sp needed
 218 0044 10BD     		pop	{r4, pc}
 219              	.L9:
 220 0046 00BF     		.align	2
 221              	.L8:
 222 0048 00000000 		.word	roll
 223 004c 00000000 		.word	.LANCHOR0
 224 0050 00000000 		.word	.LANCHOR1
 225 0054 00000000 		.word	micro_sw
 226 0058 00000000 		.word	hcan2
 227              		.cfi_endproc
 228              	.LFE241:
 230              		.section	.bss.gimbal_can_send_data,"aw",%nobits
 231              		.align	2
 232              		.set	.LANCHOR1,. + 0
 235              	gimbal_can_send_data:
 236 0000 00000000 		.space	8
 236      00000000 
 237              		.section	.bss.gimbal_tx_message,"aw",%nobits
 238              		.align	2
 239              		.set	.LANCHOR0,. + 0
 242              	gimbal_tx_message:
 243 0000 00000000 		.space	24
 243      00000000 
 243      00000000 
 243      00000000 
 243      00000000 
 244              		.text
 245              	.Letext0:
 246              		.file 2 "/opt/gcc-arm-none-eabi-10.3-2021.10/arm-none-eabi/include/machine/_default_types.h"
 247              		.file 3 "/opt/gcc-arm-none-eabi-10.3-2021.10/arm-none-eabi/include/sys/_stdint.h"
 248              		.file 4 "Drivers/CMSIS/Device/ST/STM32F4xx/Include/stm32f407xx.h"
 249              		.file 5 "Drivers/CMSIS/Device/ST/STM32F4xx/Include/stm32f4xx.h"
 250              		.file 6 "Drivers/STM32F4xx_HAL_Driver/Inc/stm32f4xx_hal_can.h"
 251              		.file 7 "application/include/can_send.h"
ARM GAS  /tmp/ccNVbLGI.s 			page 8

