ARM GAS  /tmp/ccSGDQKw.s 			page 1


   1              		.cpu cortex-m4
   2              		.arch armv7e-m
   3              		.fpu fpv4-sp-d16
   4              		.eabi_attribute 27, 1
   5              		.eabi_attribute 28, 1
   6              		.eabi_attribute 20, 1
   7              		.eabi_attribute 21, 1
   8              		.eabi_attribute 23, 3
   9              		.eabi_attribute 24, 1
  10              		.eabi_attribute 25, 1
  11              		.eabi_attribute 26, 1
  12              		.eabi_attribute 30, 2
  13              		.eabi_attribute 34, 1
  14              		.eabi_attribute 18, 4
  15              		.file	"ef_env.c"
  16              		.text
  17              	.Ltext0:
  18              		.cfi_sections	.debug_frame
  19              		.section	.text.update_sector_cache,"ax",%progbits
  20              		.align	1
  21              		.p2align 2,,3
  22              		.syntax unified
  23              		.thumb
  24              		.thumb_func
  26              	update_sector_cache:
  27              	.LVL0:
  28              	.LFB239:
  29              		.file 1 "easyflash/src/ef_env.c"
   1:easyflash/src/ef_env.c **** /*
   2:easyflash/src/ef_env.c ****  * This file is part of the EasyFlash Library.
   3:easyflash/src/ef_env.c ****  *
   4:easyflash/src/ef_env.c ****  * Copyright (c) 2019, Armink, <armink.ztl@gmail.com>
   5:easyflash/src/ef_env.c ****  *
   6:easyflash/src/ef_env.c ****  * Permission is hereby granted, free of charge, to any person obtaining
   7:easyflash/src/ef_env.c ****  * a copy of this software and associated documentation files (the
   8:easyflash/src/ef_env.c ****  * 'Software'), to deal in the Software without restriction, including
   9:easyflash/src/ef_env.c ****  * without limitation the rights to use, copy, modify, merge, publish,
  10:easyflash/src/ef_env.c ****  * distribute, sublicense, and/or sell copies of the Software, and to
  11:easyflash/src/ef_env.c ****  * permit persons to whom the Software is furnished to do so, subject to
  12:easyflash/src/ef_env.c ****  * the following conditions:
  13:easyflash/src/ef_env.c ****  *
  14:easyflash/src/ef_env.c ****  * The above copyright notice and this permission notice shall be
  15:easyflash/src/ef_env.c ****  * included in all copies or substantial portions of the Software.
  16:easyflash/src/ef_env.c ****  *
  17:easyflash/src/ef_env.c ****  * THE SOFTWARE IS PROVIDED 'AS IS', WITHOUT WARRANTY OF ANY KIND,
  18:easyflash/src/ef_env.c ****  * EXPRESS OR IMPLIED, INCLUDING BUT NOT LIMITED TO THE WARRANTIES OF
  19:easyflash/src/ef_env.c ****  * MERCHANTABILITY, FITNESS FOR A PARTICULAR PURPOSE AND NONINFRINGEMENT.
  20:easyflash/src/ef_env.c ****  * IN NO EVENT SHALL THE AUTHORS OR COPYRIGHT HOLDERS BE LIABLE FOR ANY
  21:easyflash/src/ef_env.c ****  * CLAIM, DAMAGES OR OTHER LIABILITY, WHETHER IN AN ACTION OF CONTRACT,
  22:easyflash/src/ef_env.c ****  * TORT OR OTHERWISE, ARISING FROM, OUT OF OR IN CONNECTION WITH THE
  23:easyflash/src/ef_env.c ****  * SOFTWARE OR THE USE OR OTHER DEALINGS IN THE SOFTWARE.
  24:easyflash/src/ef_env.c ****  *
  25:easyflash/src/ef_env.c ****  * Function: Environment variables operating interface. This is the Next Generation version.
  26:easyflash/src/ef_env.c ****  * Created on: 2019-02-02
  27:easyflash/src/ef_env.c ****  */
  28:easyflash/src/ef_env.c **** 
  29:easyflash/src/ef_env.c **** #include <string.h>
ARM GAS  /tmp/ccSGDQKw.s 			page 2


  30:easyflash/src/ef_env.c **** #include <easyflash.h>
  31:easyflash/src/ef_env.c **** 
  32:easyflash/src/ef_env.c **** #if defined(EF_USING_ENV) && !defined(EF_ENV_USING_LEGACY_MODE)
  33:easyflash/src/ef_env.c **** 
  34:easyflash/src/ef_env.c **** #ifndef EF_WRITE_GRAN
  35:easyflash/src/ef_env.c ****     #error "Please configure flash write granularity (in ef_cfg.h)"
  36:easyflash/src/ef_env.c **** #endif
  37:easyflash/src/ef_env.c **** 
  38:easyflash/src/ef_env.c **** #if EF_WRITE_GRAN != 1 && EF_WRITE_GRAN != 8 && EF_WRITE_GRAN != 32 && EF_WRITE_GRAN != 64
  39:easyflash/src/ef_env.c ****     #error "the write gran can be only setting as 1, 8, 32 and 64"
  40:easyflash/src/ef_env.c **** #endif
  41:easyflash/src/ef_env.c **** 
  42:easyflash/src/ef_env.c **** /* magic word(`E`, `F`, `4`, `0`) */
  43:easyflash/src/ef_env.c **** #define SECTOR_MAGIC_WORD                        0x30344645
  44:easyflash/src/ef_env.c **** /* magic word(`K`, `V`, `4`, `0`) */
  45:easyflash/src/ef_env.c **** #define ENV_MAGIC_WORD                           0x3034564B
  46:easyflash/src/ef_env.c **** 
  47:easyflash/src/ef_env.c **** /* the using status sector table length */
  48:easyflash/src/ef_env.c **** #ifndef USING_SECTOR_TABLE_LEN
  49:easyflash/src/ef_env.c ****     #define USING_SECTOR_TABLE_LEN                   4
  50:easyflash/src/ef_env.c **** #endif
  51:easyflash/src/ef_env.c **** 
  52:easyflash/src/ef_env.c **** /* the string ENV value buffer size for legacy ef_get_env() function */
  53:easyflash/src/ef_env.c **** #ifndef EF_STR_ENV_VALUE_MAX_SIZE
  54:easyflash/src/ef_env.c ****     #define EF_STR_ENV_VALUE_MAX_SIZE                128
  55:easyflash/src/ef_env.c **** #endif
  56:easyflash/src/ef_env.c **** 
  57:easyflash/src/ef_env.c **** /* the sector remain threshold before full status */
  58:easyflash/src/ef_env.c **** #ifndef EF_SEC_REMAIN_THRESHOLD
  59:easyflash/src/ef_env.c ****     #define EF_SEC_REMAIN_THRESHOLD                  (ENV_HDR_DATA_SIZE + EF_ENV_NAME_MAX)
  60:easyflash/src/ef_env.c **** #endif
  61:easyflash/src/ef_env.c **** 
  62:easyflash/src/ef_env.c **** /* the total remain empty sector threshold before GC */
  63:easyflash/src/ef_env.c **** #ifndef EF_GC_EMPTY_SEC_THRESHOLD
  64:easyflash/src/ef_env.c ****     #define EF_GC_EMPTY_SEC_THRESHOLD                1
  65:easyflash/src/ef_env.c **** #endif
  66:easyflash/src/ef_env.c **** 
  67:easyflash/src/ef_env.c **** /* the ENV cache table size, it will improve ENV search speed when using cache */
  68:easyflash/src/ef_env.c **** #ifndef EF_ENV_CACHE_TABLE_SIZE
  69:easyflash/src/ef_env.c ****     #define EF_ENV_CACHE_TABLE_SIZE                  16
  70:easyflash/src/ef_env.c **** #endif
  71:easyflash/src/ef_env.c **** 
  72:easyflash/src/ef_env.c **** /* the sector cache table size, it will improve ENV save speed when using cache */
  73:easyflash/src/ef_env.c **** #ifndef EF_SECTOR_CACHE_TABLE_SIZE
  74:easyflash/src/ef_env.c ****     #define EF_SECTOR_CACHE_TABLE_SIZE               4
  75:easyflash/src/ef_env.c **** #endif
  76:easyflash/src/ef_env.c **** 
  77:easyflash/src/ef_env.c **** #if EF_ENV_CACHE_TABLE_SIZE > 0xFFFF
  78:easyflash/src/ef_env.c ****     #error "The ENV cache table size must less than 0xFFFF"
  79:easyflash/src/ef_env.c **** #endif
  80:easyflash/src/ef_env.c **** 
  81:easyflash/src/ef_env.c **** #if (EF_ENV_CACHE_TABLE_SIZE > 0) && (EF_SECTOR_CACHE_TABLE_SIZE > 0)
  82:easyflash/src/ef_env.c ****     #define EF_ENV_USING_CACHE
  83:easyflash/src/ef_env.c **** #endif
  84:easyflash/src/ef_env.c **** 
  85:easyflash/src/ef_env.c **** /* the sector is not combined value */
  86:easyflash/src/ef_env.c **** #define SECTOR_NOT_COMBINED                      0xFFFFFFFF
ARM GAS  /tmp/ccSGDQKw.s 			page 3


  87:easyflash/src/ef_env.c **** /* the next address is get failed */
  88:easyflash/src/ef_env.c **** #define FAILED_ADDR                              0xFFFFFFFF
  89:easyflash/src/ef_env.c **** 
  90:easyflash/src/ef_env.c **** /* Return the most contiguous size aligned at specified width. RT_ALIGN(13, 4)
  91:easyflash/src/ef_env.c ****  * would return 16.
  92:easyflash/src/ef_env.c ****  */
  93:easyflash/src/ef_env.c **** #define EF_ALIGN(size, align)                    (((size) + (align) - 1) & ~((align) - 1))
  94:easyflash/src/ef_env.c **** /* align by write granularity */
  95:easyflash/src/ef_env.c **** #define EF_WG_ALIGN(size)                        (EF_ALIGN(size, (EF_WRITE_GRAN + 7)/8))
  96:easyflash/src/ef_env.c **** /**
  97:easyflash/src/ef_env.c ****  * Return the down number of aligned at specified width. RT_ALIGN_DOWN(13, 4)
  98:easyflash/src/ef_env.c ****  * would return 12.
  99:easyflash/src/ef_env.c ****  */
 100:easyflash/src/ef_env.c **** #define EF_ALIGN_DOWN(size, align)               ((size) & ~((align) - 1))
 101:easyflash/src/ef_env.c **** /* align down by write granularity */
 102:easyflash/src/ef_env.c **** #define EF_WG_ALIGN_DOWN(size)                   (EF_ALIGN_DOWN(size, (EF_WRITE_GRAN + 7)/8))
 103:easyflash/src/ef_env.c **** 
 104:easyflash/src/ef_env.c **** #if (EF_WRITE_GRAN == 1)
 105:easyflash/src/ef_env.c ****     #define STATUS_TABLE_SIZE(status_number)         ((status_number * EF_WRITE_GRAN + 7)/8)
 106:easyflash/src/ef_env.c **** #else
 107:easyflash/src/ef_env.c ****     #define STATUS_TABLE_SIZE(status_number)         (((status_number - 1) * EF_WRITE_GRAN + 7)/8)
 108:easyflash/src/ef_env.c **** #endif
 109:easyflash/src/ef_env.c **** 
 110:easyflash/src/ef_env.c **** #define STORE_STATUS_TABLE_SIZE                  STATUS_TABLE_SIZE(SECTOR_STORE_STATUS_NUM)
 111:easyflash/src/ef_env.c **** #define DIRTY_STATUS_TABLE_SIZE                  STATUS_TABLE_SIZE(SECTOR_DIRTY_STATUS_NUM)
 112:easyflash/src/ef_env.c **** #define ENV_STATUS_TABLE_SIZE                    STATUS_TABLE_SIZE(ENV_STATUS_NUM)
 113:easyflash/src/ef_env.c **** 
 114:easyflash/src/ef_env.c **** #define SECTOR_SIZE                              EF_ERASE_MIN_SIZE
 115:easyflash/src/ef_env.c **** #define SECTOR_NUM                               (ENV_AREA_SIZE / (EF_ERASE_MIN_SIZE))
 116:easyflash/src/ef_env.c **** 
 117:easyflash/src/ef_env.c **** #if (SECTOR_NUM < 2)
 118:easyflash/src/ef_env.c ****     #error "The sector number must lager then or equal to 2"
 119:easyflash/src/ef_env.c **** #endif
 120:easyflash/src/ef_env.c **** 
 121:easyflash/src/ef_env.c **** #if (EF_GC_EMPTY_SEC_THRESHOLD == 0 || EF_GC_EMPTY_SEC_THRESHOLD >= SECTOR_NUM)
 122:easyflash/src/ef_env.c ****     #error "There is at least one empty sector for GC."
 123:easyflash/src/ef_env.c **** #endif
 124:easyflash/src/ef_env.c **** 
 125:easyflash/src/ef_env.c **** #define SECTOR_HDR_DATA_SIZE                     (EF_WG_ALIGN(sizeof(struct sector_hdr_data)))
 126:easyflash/src/ef_env.c **** #define SECTOR_DIRTY_OFFSET                      ((unsigned long)(&((struct sector_hdr_data *)0)->s
 127:easyflash/src/ef_env.c **** #define ENV_HDR_DATA_SIZE                        (EF_WG_ALIGN(sizeof(struct env_hdr_data)))
 128:easyflash/src/ef_env.c **** #define ENV_MAGIC_OFFSET                         ((unsigned long)(&((struct env_hdr_data *)0)->magi
 129:easyflash/src/ef_env.c **** #define ENV_LEN_OFFSET                           ((unsigned long)(&((struct env_hdr_data *)0)->len)
 130:easyflash/src/ef_env.c **** #define ENV_NAME_LEN_OFFSET                      ((unsigned long)(&((struct env_hdr_data *)0)->name
 131:easyflash/src/ef_env.c **** 
 132:easyflash/src/ef_env.c **** #define VER_NUM_ENV_NAME                         "__ver_num__"
 133:easyflash/src/ef_env.c **** 
 134:easyflash/src/ef_env.c **** enum sector_store_status
 135:easyflash/src/ef_env.c **** {
 136:easyflash/src/ef_env.c ****     SECTOR_STORE_UNUSED,
 137:easyflash/src/ef_env.c ****     SECTOR_STORE_EMPTY,
 138:easyflash/src/ef_env.c ****     SECTOR_STORE_USING,
 139:easyflash/src/ef_env.c ****     SECTOR_STORE_FULL,
 140:easyflash/src/ef_env.c ****     SECTOR_STORE_STATUS_NUM,
 141:easyflash/src/ef_env.c **** };
 142:easyflash/src/ef_env.c **** typedef enum sector_store_status sector_store_status_t;
 143:easyflash/src/ef_env.c **** 
ARM GAS  /tmp/ccSGDQKw.s 			page 4


 144:easyflash/src/ef_env.c **** enum sector_dirty_status
 145:easyflash/src/ef_env.c **** {
 146:easyflash/src/ef_env.c ****     SECTOR_DIRTY_UNUSED,
 147:easyflash/src/ef_env.c ****     SECTOR_DIRTY_FALSE,
 148:easyflash/src/ef_env.c ****     SECTOR_DIRTY_TRUE,
 149:easyflash/src/ef_env.c ****     SECTOR_DIRTY_GC,
 150:easyflash/src/ef_env.c ****     SECTOR_DIRTY_STATUS_NUM,
 151:easyflash/src/ef_env.c **** };
 152:easyflash/src/ef_env.c **** typedef enum sector_dirty_status sector_dirty_status_t;
 153:easyflash/src/ef_env.c **** 
 154:easyflash/src/ef_env.c **** struct sector_hdr_data
 155:easyflash/src/ef_env.c **** {
 156:easyflash/src/ef_env.c ****     struct
 157:easyflash/src/ef_env.c ****     {
 158:easyflash/src/ef_env.c ****         uint8_t store[STORE_STATUS_TABLE_SIZE];  /**< sector store status @see sector_store_status_
 159:easyflash/src/ef_env.c ****         uint8_t dirty[DIRTY_STATUS_TABLE_SIZE];  /**< sector dirty status @see sector_dirty_status_
 160:easyflash/src/ef_env.c ****     } status_table;
 161:easyflash/src/ef_env.c ****     uint32_t magic;                              /**< magic word(`E`, `F`, `4`, `0`) */
 162:easyflash/src/ef_env.c ****     uint32_t combined;                           /**< the combined next sector number, 0xFFFFFFFF: 
 163:easyflash/src/ef_env.c ****     uint32_t reserved;
 164:easyflash/src/ef_env.c **** };
 165:easyflash/src/ef_env.c **** typedef struct sector_hdr_data *sector_hdr_data_t;
 166:easyflash/src/ef_env.c **** 
 167:easyflash/src/ef_env.c **** struct sector_meta_data
 168:easyflash/src/ef_env.c **** {
 169:easyflash/src/ef_env.c ****     bool check_ok;                               /**< sector header check is OK */
 170:easyflash/src/ef_env.c ****     struct
 171:easyflash/src/ef_env.c ****     {
 172:easyflash/src/ef_env.c ****         sector_store_status_t store;             /**< sector store status @see sector_store_status_
 173:easyflash/src/ef_env.c ****         sector_dirty_status_t dirty;             /**< sector dirty status @see sector_dirty_status_
 174:easyflash/src/ef_env.c ****     } status;
 175:easyflash/src/ef_env.c ****     uint32_t addr;                               /**< sector start address */
 176:easyflash/src/ef_env.c ****     uint32_t magic;                              /**< magic word(`E`, `F`, `4`, `0`) */
 177:easyflash/src/ef_env.c ****     uint32_t combined;                           /**< the combined next sector number, 0xFFFFFFFF: 
 178:easyflash/src/ef_env.c ****     size_t remain;                               /**< remain size */
 179:easyflash/src/ef_env.c ****     uint32_t empty_env;                          /**< the next empty ENV node start address */
 180:easyflash/src/ef_env.c **** };
 181:easyflash/src/ef_env.c **** typedef struct sector_meta_data *sector_meta_data_t;
 182:easyflash/src/ef_env.c **** 
 183:easyflash/src/ef_env.c **** struct env_hdr_data
 184:easyflash/src/ef_env.c **** {
 185:easyflash/src/ef_env.c ****     uint8_t status_table[ENV_STATUS_TABLE_SIZE]; /**< ENV node status, @see node_status_t */
 186:easyflash/src/ef_env.c ****     uint32_t magic;                              /**< magic word(`K`, `V`, `4`, `0`) */
 187:easyflash/src/ef_env.c ****     uint32_t len;                                /**< ENV node total length (header + name + value)
 188:easyflash/src/ef_env.c ****     uint32_t crc32;                              /**< ENV node crc32(name_len + data_len + name + v
 189:easyflash/src/ef_env.c ****     uint8_t name_len;                            /**< name length */
 190:easyflash/src/ef_env.c ****     uint32_t value_len;                          /**< value length */
 191:easyflash/src/ef_env.c **** };
 192:easyflash/src/ef_env.c **** typedef struct env_hdr_data *env_hdr_data_t;
 193:easyflash/src/ef_env.c **** 
 194:easyflash/src/ef_env.c **** struct env_cache_node
 195:easyflash/src/ef_env.c **** {
 196:easyflash/src/ef_env.c ****     uint16_t name_crc;                           /**< ENV name's CRC32 low 16bit value */
 197:easyflash/src/ef_env.c ****     uint16_t active;                             /**< ENV node access active degree */
 198:easyflash/src/ef_env.c ****     uint32_t addr;                               /**< ENV node address */
 199:easyflash/src/ef_env.c **** };
 200:easyflash/src/ef_env.c **** typedef struct env_cache_node *env_cache_node_t;
ARM GAS  /tmp/ccSGDQKw.s 			page 5


 201:easyflash/src/ef_env.c **** 
 202:easyflash/src/ef_env.c **** struct sector_cache_node
 203:easyflash/src/ef_env.c **** {
 204:easyflash/src/ef_env.c ****     uint32_t addr;                               /**< sector start address */
 205:easyflash/src/ef_env.c ****     uint32_t empty_addr;                         /**< sector empty address */
 206:easyflash/src/ef_env.c **** };
 207:easyflash/src/ef_env.c **** typedef struct sector_cache_node *sector_cache_node_t;
 208:easyflash/src/ef_env.c **** 
 209:easyflash/src/ef_env.c **** static void gc_collect(void);
 210:easyflash/src/ef_env.c **** 
 211:easyflash/src/ef_env.c **** /* ENV start address in flash */
 212:easyflash/src/ef_env.c **** static uint32_t env_start_addr = 0;
 213:easyflash/src/ef_env.c **** /* default ENV set, must be initialized by user */
 214:easyflash/src/ef_env.c **** static ef_env const *default_env_set;
 215:easyflash/src/ef_env.c **** /* default ENV set size, must be initialized by user */
 216:easyflash/src/ef_env.c **** static size_t default_env_set_size = 0;
 217:easyflash/src/ef_env.c **** /* initialize OK flag */
 218:easyflash/src/ef_env.c **** static bool init_ok = false;
 219:easyflash/src/ef_env.c **** /* request a GC check */
 220:easyflash/src/ef_env.c **** static bool gc_request = false;
 221:easyflash/src/ef_env.c **** /* is in recovery check status when first reboot */
 222:easyflash/src/ef_env.c **** static bool in_recovery_check = false;
 223:easyflash/src/ef_env.c **** 
 224:easyflash/src/ef_env.c **** #ifdef EF_ENV_USING_CACHE
 225:easyflash/src/ef_env.c **** /* ENV cache table */
 226:easyflash/src/ef_env.c **** struct env_cache_node env_cache_table[EF_ENV_CACHE_TABLE_SIZE] = { 0 };
 227:easyflash/src/ef_env.c **** /* sector cache table, it caching the sector info which status is current using */
 228:easyflash/src/ef_env.c **** struct sector_cache_node sector_cache_table[EF_SECTOR_CACHE_TABLE_SIZE] = { 0 };
 229:easyflash/src/ef_env.c **** #endif /* EF_ENV_USING_CACHE */
 230:easyflash/src/ef_env.c **** 
 231:easyflash/src/ef_env.c **** static size_t set_status(uint8_t status_table[], size_t status_num, size_t status_index)
 232:easyflash/src/ef_env.c **** {
 233:easyflash/src/ef_env.c ****     size_t byte_index = ~0UL;
 234:easyflash/src/ef_env.c ****     /*
 235:easyflash/src/ef_env.c ****      * | write garn |       status0       |       status1       |      status2         |
 236:easyflash/src/ef_env.c ****      * ---------------------------------------------------------------------------------
 237:easyflash/src/ef_env.c ****      * |    1bit    | 0xFF                | 0x7F                |  0x3F                |
 238:easyflash/src/ef_env.c ****      * |    8bit    | 0xFFFF              | 0x00FF              |  0x0000              |
 239:easyflash/src/ef_env.c ****      * |   32bit    | 0xFFFFFFFF FFFFFFFF | 0x00FFFFFF FFFFFFFF |  0x00FFFFFF 00FFFFFF |
 240:easyflash/src/ef_env.c ****      */
 241:easyflash/src/ef_env.c ****     memset(status_table, 0xFF, STATUS_TABLE_SIZE(status_num));
 242:easyflash/src/ef_env.c ****     if (status_index > 0)
 243:easyflash/src/ef_env.c ****     {
 244:easyflash/src/ef_env.c **** #if (EF_WRITE_GRAN == 1)
 245:easyflash/src/ef_env.c ****         byte_index = (status_index - 1) / 8;
 246:easyflash/src/ef_env.c ****         status_table[byte_index] &= ~(0x80 >> ((status_index - 1) % 8));
 247:easyflash/src/ef_env.c **** #else
 248:easyflash/src/ef_env.c ****         byte_index = (status_index - 1) * (EF_WRITE_GRAN / 8);
 249:easyflash/src/ef_env.c ****         status_table[byte_index] = 0x00;
 250:easyflash/src/ef_env.c **** #endif /* EF_WRITE_GRAN == 1 */
 251:easyflash/src/ef_env.c ****     }
 252:easyflash/src/ef_env.c **** 
 253:easyflash/src/ef_env.c ****     return byte_index;
 254:easyflash/src/ef_env.c **** }
 255:easyflash/src/ef_env.c **** 
 256:easyflash/src/ef_env.c **** static size_t get_status(uint8_t status_table[], size_t status_num)
 257:easyflash/src/ef_env.c **** {
ARM GAS  /tmp/ccSGDQKw.s 			page 6


 258:easyflash/src/ef_env.c ****     size_t i = 0, status_num_bak = --status_num;
 259:easyflash/src/ef_env.c **** 
 260:easyflash/src/ef_env.c ****     while (status_num --)
 261:easyflash/src/ef_env.c ****     {
 262:easyflash/src/ef_env.c ****         /* get the first 0 position from end address to start address */
 263:easyflash/src/ef_env.c **** #if (EF_WRITE_GRAN == 1)
 264:easyflash/src/ef_env.c ****         if ((status_table[status_num / 8] & (0x80 >> (status_num % 8))) == 0x00)
 265:easyflash/src/ef_env.c ****         {
 266:easyflash/src/ef_env.c ****             break;
 267:easyflash/src/ef_env.c ****         }
 268:easyflash/src/ef_env.c **** #else /*  (EF_WRITE_GRAN == 8) ||  (EF_WRITE_GRAN == 32) ||  (EF_WRITE_GRAN == 64) */
 269:easyflash/src/ef_env.c ****         if (status_table[status_num * EF_WRITE_GRAN / 8] == 0x00)
 270:easyflash/src/ef_env.c ****         {
 271:easyflash/src/ef_env.c ****             break;
 272:easyflash/src/ef_env.c ****         }
 273:easyflash/src/ef_env.c **** #endif /* EF_WRITE_GRAN == 1 */
 274:easyflash/src/ef_env.c ****         i++;
 275:easyflash/src/ef_env.c ****     }
 276:easyflash/src/ef_env.c **** 
 277:easyflash/src/ef_env.c ****     return status_num_bak - i;
 278:easyflash/src/ef_env.c **** }
 279:easyflash/src/ef_env.c **** 
 280:easyflash/src/ef_env.c **** static EfErrCode write_status(uint32_t addr, uint8_t status_table[], size_t status_num, size_t stat
 281:easyflash/src/ef_env.c **** {
 282:easyflash/src/ef_env.c ****     EfErrCode result = EF_NO_ERR;
 283:easyflash/src/ef_env.c ****     size_t byte_index;
 284:easyflash/src/ef_env.c **** 
 285:easyflash/src/ef_env.c ****     EF_ASSERT(status_index < status_num);
 286:easyflash/src/ef_env.c ****     EF_ASSERT(status_table);
 287:easyflash/src/ef_env.c **** 
 288:easyflash/src/ef_env.c ****     /* set the status first */
 289:easyflash/src/ef_env.c ****     byte_index = set_status(status_table, status_num, status_index);
 290:easyflash/src/ef_env.c **** 
 291:easyflash/src/ef_env.c ****     /* the first status table value is all 1, so no need to write flash */
 292:easyflash/src/ef_env.c ****     if (byte_index == ~0UL)
 293:easyflash/src/ef_env.c ****     {
 294:easyflash/src/ef_env.c ****         return EF_NO_ERR;
 295:easyflash/src/ef_env.c ****     }
 296:easyflash/src/ef_env.c **** #if (EF_WRITE_GRAN == 1)
 297:easyflash/src/ef_env.c ****     result = ef_port_write(addr + byte_index, (uint32_t *)&status_table[byte_index], 1);
 298:easyflash/src/ef_env.c **** #else /*  (EF_WRITE_GRAN == 8) ||  (EF_WRITE_GRAN == 32) ||  (EF_WRITE_GRAN == 64) */
 299:easyflash/src/ef_env.c ****     /* write the status by write granularity
 300:easyflash/src/ef_env.c ****      * some flash (like stm32 onchip) NOT supported repeated write before erase */
 301:easyflash/src/ef_env.c ****     result = ef_port_write(addr + byte_index, (uint32_t *) &status_table[byte_index], EF_WRITE_GRAN
 302:easyflash/src/ef_env.c **** #endif /* EF_WRITE_GRAN == 1 */
 303:easyflash/src/ef_env.c **** 
 304:easyflash/src/ef_env.c ****     return result;
 305:easyflash/src/ef_env.c **** }
 306:easyflash/src/ef_env.c **** 
 307:easyflash/src/ef_env.c **** static size_t read_status(uint32_t addr, uint8_t status_table[], size_t total_num)
 308:easyflash/src/ef_env.c **** {
 309:easyflash/src/ef_env.c ****     EF_ASSERT(status_table);
 310:easyflash/src/ef_env.c **** 
 311:easyflash/src/ef_env.c ****     ef_port_read(addr, (uint32_t *) status_table, STATUS_TABLE_SIZE(total_num));
 312:easyflash/src/ef_env.c **** 
 313:easyflash/src/ef_env.c ****     return get_status(status_table, total_num);
 314:easyflash/src/ef_env.c **** }
ARM GAS  /tmp/ccSGDQKw.s 			page 7


 315:easyflash/src/ef_env.c **** 
 316:easyflash/src/ef_env.c **** #ifdef EF_ENV_USING_CACHE
 317:easyflash/src/ef_env.c **** /*
 318:easyflash/src/ef_env.c ****  * It's only caching the current using status sector's empty_addr
 319:easyflash/src/ef_env.c ****  */
 320:easyflash/src/ef_env.c **** static void update_sector_cache(uint32_t sec_addr, uint32_t empty_addr)
 321:easyflash/src/ef_env.c **** {
  30              		.loc 1 321 1 view -0
  31              		.cfi_startproc
  32              		@ args = 0, pretend = 0, frame = 0
  33              		@ frame_needed = 0, uses_anonymous_args = 0
 322:easyflash/src/ef_env.c ****     size_t i, empty_index = EF_SECTOR_CACHE_TABLE_SIZE;
  34              		.loc 1 322 5 view .LVU1
 323:easyflash/src/ef_env.c **** 
 324:easyflash/src/ef_env.c ****     for (i = 0; i < EF_SECTOR_CACHE_TABLE_SIZE; i++)
  35              		.loc 1 324 5 view .LVU2
  36              		.loc 1 324 17 view .LVU3
  37 0000 154A     		ldr	r2, .L14
 321:easyflash/src/ef_env.c ****     size_t i, empty_index = EF_SECTOR_CACHE_TABLE_SIZE;
  38              		.loc 1 321 1 is_stmt 0 view .LVU4
  39 0002 10B5     		push	{r4, lr}
  40              		.cfi_def_cfa_offset 8
  41              		.cfi_offset 4, -8
  42              		.cfi_offset 14, -4
 322:easyflash/src/ef_env.c ****     size_t i, empty_index = EF_SECTOR_CACHE_TABLE_SIZE;
  43              		.loc 1 322 15 view .LVU5
  44 0004 4FF0040C 		mov	ip, #4
  45              		.loc 1 324 12 view .LVU6
  46 0008 0023     		movs	r3, #0
 325:easyflash/src/ef_env.c ****     {
 326:easyflash/src/ef_env.c ****         if ((empty_addr > sec_addr) && (empty_addr < sec_addr + SECTOR_SIZE))
  47              		.loc 1 326 63 view .LVU7
  48 000a 00F5003E 		add	lr, r0, #131072
  49              	.LVL1:
  50              	.L6:
  51              		.loc 1 326 9 is_stmt 1 view .LVU8
 327:easyflash/src/ef_env.c ****         {
 328:easyflash/src/ef_env.c ****             /* update the sector empty_addr in cache */
 329:easyflash/src/ef_env.c ****             if (sector_cache_table[i].addr == sec_addr)
 330:easyflash/src/ef_env.c ****             {
 331:easyflash/src/ef_env.c ****                 sector_cache_table[i].addr = sec_addr;
 332:easyflash/src/ef_env.c ****                 sector_cache_table[i].empty_addr = empty_addr;
 333:easyflash/src/ef_env.c ****                 return;
 334:easyflash/src/ef_env.c ****             }
 335:easyflash/src/ef_env.c ****             else if ((sector_cache_table[i].addr == FAILED_ADDR) && (empty_index == EF_SECTOR_CACHE
 336:easyflash/src/ef_env.c ****             {
 337:easyflash/src/ef_env.c ****                 empty_index = i;
 338:easyflash/src/ef_env.c ****             }
 339:easyflash/src/ef_env.c ****         }
 340:easyflash/src/ef_env.c ****         else if (sector_cache_table[i].addr == sec_addr)
  52              		.loc 1 340 14 view .LVU9
 326:easyflash/src/ef_env.c ****         {
  53              		.loc 1 326 12 is_stmt 0 view .LVU10
  54 000e 8842     		cmp	r0, r1
 329:easyflash/src/ef_env.c ****             {
  55              		.loc 1 329 38 view .LVU11
  56 0010 52F83340 		ldr	r4, [r2, r3, lsl #3]
ARM GAS  /tmp/ccSGDQKw.s 			page 8


 326:easyflash/src/ef_env.c ****         {
  57              		.loc 1 326 12 view .LVU12
  58 0014 15D2     		bcs	.L2
 329:easyflash/src/ef_env.c ****             {
  59              		.loc 1 329 13 is_stmt 1 discriminator 1 view .LVU13
 335:easyflash/src/ef_env.c ****             {
  60              		.loc 1 335 18 discriminator 1 view .LVU14
 326:easyflash/src/ef_env.c ****         {
  61              		.loc 1 326 37 is_stmt 0 discriminator 1 view .LVU15
  62 0016 8E45     		cmp	lr, r1
  63 0018 13D9     		bls	.L2
 329:easyflash/src/ef_env.c ****             {
  64              		.loc 1 329 16 view .LVU16
  65 001a 8442     		cmp	r4, r0
  66 001c 18D0     		beq	.L13
 335:easyflash/src/ef_env.c ****             {
  67              		.loc 1 335 21 view .LVU17
  68 001e 0134     		adds	r4, r4, #1
  69 0020 03D1     		bne	.L5
 335:easyflash/src/ef_env.c ****             {
  70              		.loc 1 335 66 discriminator 1 view .LVU18
  71 0022 BCF1040F 		cmp	ip, #4
  72 0026 08BF     		it	eq
  73 0028 9C46     		moveq	ip, r3
  74              	.LVL2:
  75              	.L5:
 324:easyflash/src/ef_env.c ****     {
  76              		.loc 1 324 49 is_stmt 1 discriminator 2 view .LVU19
 324:easyflash/src/ef_env.c ****     {
  77              		.loc 1 324 50 is_stmt 0 discriminator 2 view .LVU20
  78 002a 0133     		adds	r3, r3, #1
  79              	.LVL3:
 324:easyflash/src/ef_env.c ****     {
  80              		.loc 1 324 17 is_stmt 1 discriminator 2 view .LVU21
 324:easyflash/src/ef_env.c ****     {
  81              		.loc 1 324 5 is_stmt 0 discriminator 2 view .LVU22
  82 002c 042B     		cmp	r3, #4
  83 002e EED1     		bne	.L6
 341:easyflash/src/ef_env.c ****         {
 342:easyflash/src/ef_env.c ****             /* delete the sector which status is not current using */
 343:easyflash/src/ef_env.c ****             sector_cache_table[i].addr = FAILED_ADDR;
 344:easyflash/src/ef_env.c ****             return;
 345:easyflash/src/ef_env.c ****         }
 346:easyflash/src/ef_env.c ****     }
 347:easyflash/src/ef_env.c ****     /* add the sector empty_addr to cache */
 348:easyflash/src/ef_env.c ****     if (empty_index < EF_SECTOR_CACHE_TABLE_SIZE)
  84              		.loc 1 348 5 is_stmt 1 view .LVU23
  85              		.loc 1 348 8 is_stmt 0 view .LVU24
  86 0030 BCF1040F 		cmp	ip, #4
  87 0034 04D0     		beq	.L1
 349:easyflash/src/ef_env.c ****     {
 350:easyflash/src/ef_env.c ****         sector_cache_table[empty_index].addr = sec_addr;
  88              		.loc 1 350 9 is_stmt 1 view .LVU25
 351:easyflash/src/ef_env.c ****         sector_cache_table[empty_index].empty_addr = empty_addr;
  89              		.loc 1 351 52 is_stmt 0 view .LVU26
  90 0036 02EBCC03 		add	r3, r2, ip, lsl #3
  91              	.LVL4:
ARM GAS  /tmp/ccSGDQKw.s 			page 9


 350:easyflash/src/ef_env.c ****         sector_cache_table[empty_index].empty_addr = empty_addr;
  92              		.loc 1 350 46 view .LVU27
  93 003a 42F83C00 		str	r0, [r2, ip, lsl #3]
  94              		.loc 1 351 9 is_stmt 1 view .LVU28
  95              		.loc 1 351 52 is_stmt 0 view .LVU29
  96 003e 5960     		str	r1, [r3, #4]
  97              	.L1:
 352:easyflash/src/ef_env.c ****     }
 353:easyflash/src/ef_env.c **** }
  98              		.loc 1 353 1 view .LVU30
  99 0040 10BD     		pop	{r4, pc}
 100              	.LVL5:
 101              	.L2:
 340:easyflash/src/ef_env.c ****         {
 102              		.loc 1 340 17 view .LVU31
 103 0042 8442     		cmp	r4, r0
 104 0044 F1D1     		bne	.L5
 343:easyflash/src/ef_env.c ****             return;
 105              		.loc 1 343 13 is_stmt 1 view .LVU32
 343:easyflash/src/ef_env.c ****             return;
 106              		.loc 1 343 40 is_stmt 0 view .LVU33
 107 0046 4FF0FF31 		mov	r1, #-1
 108              	.LVL6:
 343:easyflash/src/ef_env.c ****             return;
 109              		.loc 1 343 40 view .LVU34
 110 004a 42F83310 		str	r1, [r2, r3, lsl #3]
 344:easyflash/src/ef_env.c ****         }
 111              		.loc 1 344 13 is_stmt 1 view .LVU35
 112              		.loc 1 353 1 is_stmt 0 view .LVU36
 113 004e 10BD     		pop	{r4, pc}
 114              	.LVL7:
 115              	.L13:
 331:easyflash/src/ef_env.c ****                 sector_cache_table[i].empty_addr = empty_addr;
 116              		.loc 1 331 17 is_stmt 1 view .LVU37
 332:easyflash/src/ef_env.c ****                 return;
 117              		.loc 1 332 17 view .LVU38
 332:easyflash/src/ef_env.c ****                 return;
 118              		.loc 1 332 50 is_stmt 0 view .LVU39
 119 0050 02EBC303 		add	r3, r2, r3, lsl #3
 120              	.LVL8:
 332:easyflash/src/ef_env.c ****                 return;
 121              		.loc 1 332 50 view .LVU40
 122 0054 5960     		str	r1, [r3, #4]
 333:easyflash/src/ef_env.c ****             }
 123              		.loc 1 333 17 is_stmt 1 view .LVU41
 124              		.loc 1 353 1 is_stmt 0 view .LVU42
 125 0056 10BD     		pop	{r4, pc}
 126              	.L15:
 127              		.align	2
 128              	.L14:
 129 0058 00000000 		.word	.LANCHOR0
 130              		.cfi_endproc
 131              	.LFE239:
 133              		.section	.text.gc_check_cb,"ax",%progbits
 134              		.align	1
 135              		.p2align 2,,3
 136              		.syntax unified
ARM GAS  /tmp/ccSGDQKw.s 			page 10


 137              		.thumb
 138              		.thumb_func
 140              	gc_check_cb:
 141              	.LVL9:
 142              	.LFB270:
 354:easyflash/src/ef_env.c **** 
 355:easyflash/src/ef_env.c **** /*
 356:easyflash/src/ef_env.c ****  * Get sector info from cache. It's return true when cache is hit.
 357:easyflash/src/ef_env.c ****  */
 358:easyflash/src/ef_env.c **** static bool get_sector_from_cache(uint32_t sec_addr, uint32_t *empty_addr)
 359:easyflash/src/ef_env.c **** {
 360:easyflash/src/ef_env.c ****     size_t i;
 361:easyflash/src/ef_env.c **** 
 362:easyflash/src/ef_env.c ****     for (i = 0; i < EF_SECTOR_CACHE_TABLE_SIZE; i++)
 363:easyflash/src/ef_env.c ****     {
 364:easyflash/src/ef_env.c ****         if (sector_cache_table[i].addr == sec_addr)
 365:easyflash/src/ef_env.c ****         {
 366:easyflash/src/ef_env.c ****             if (empty_addr)
 367:easyflash/src/ef_env.c ****             {
 368:easyflash/src/ef_env.c ****                 *empty_addr = sector_cache_table[i].empty_addr;
 369:easyflash/src/ef_env.c ****             }
 370:easyflash/src/ef_env.c ****             return true;
 371:easyflash/src/ef_env.c ****         }
 372:easyflash/src/ef_env.c ****     }
 373:easyflash/src/ef_env.c **** 
 374:easyflash/src/ef_env.c ****     return false;
 375:easyflash/src/ef_env.c **** }
 376:easyflash/src/ef_env.c **** 
 377:easyflash/src/ef_env.c **** static void update_env_cache(const char *name, size_t name_len, uint32_t addr)
 378:easyflash/src/ef_env.c **** {
 379:easyflash/src/ef_env.c ****     size_t i, empty_index = EF_ENV_CACHE_TABLE_SIZE, min_activity_index = EF_ENV_CACHE_TABLE_SIZE;
 380:easyflash/src/ef_env.c ****     uint16_t name_crc = (uint16_t)(ef_calc_crc32(0, name, name_len) >> 16), min_activity = 0xFFFF;
 381:easyflash/src/ef_env.c **** 
 382:easyflash/src/ef_env.c ****     for (i = 0; i < EF_ENV_CACHE_TABLE_SIZE; i++)
 383:easyflash/src/ef_env.c ****     {
 384:easyflash/src/ef_env.c ****         if (addr != FAILED_ADDR)
 385:easyflash/src/ef_env.c ****         {
 386:easyflash/src/ef_env.c ****             /* update the ENV address in cache */
 387:easyflash/src/ef_env.c ****             if (env_cache_table[i].name_crc == name_crc)
 388:easyflash/src/ef_env.c ****             {
 389:easyflash/src/ef_env.c ****                 env_cache_table[i].addr = addr;
 390:easyflash/src/ef_env.c ****                 return;
 391:easyflash/src/ef_env.c ****             }
 392:easyflash/src/ef_env.c ****             else if ((env_cache_table[i].addr == FAILED_ADDR) && (empty_index == EF_ENV_CACHE_TABLE
 393:easyflash/src/ef_env.c ****             {
 394:easyflash/src/ef_env.c ****                 empty_index = i;
 395:easyflash/src/ef_env.c ****             }
 396:easyflash/src/ef_env.c ****             else if (env_cache_table[i].addr != FAILED_ADDR)
 397:easyflash/src/ef_env.c ****             {
 398:easyflash/src/ef_env.c ****                 if (env_cache_table[i].active > 0)
 399:easyflash/src/ef_env.c ****                 {
 400:easyflash/src/ef_env.c ****                     env_cache_table[i].active--;
 401:easyflash/src/ef_env.c ****                 }
 402:easyflash/src/ef_env.c ****                 if (env_cache_table[i].active < min_activity)
 403:easyflash/src/ef_env.c ****                 {
 404:easyflash/src/ef_env.c ****                     min_activity_index = i;
 405:easyflash/src/ef_env.c ****                     min_activity = env_cache_table[i].active;
ARM GAS  /tmp/ccSGDQKw.s 			page 11


 406:easyflash/src/ef_env.c ****                 }
 407:easyflash/src/ef_env.c ****             }
 408:easyflash/src/ef_env.c ****         }
 409:easyflash/src/ef_env.c ****         else if (env_cache_table[i].name_crc == name_crc)
 410:easyflash/src/ef_env.c ****         {
 411:easyflash/src/ef_env.c ****             /* delete the ENV */
 412:easyflash/src/ef_env.c ****             env_cache_table[i].addr = FAILED_ADDR;
 413:easyflash/src/ef_env.c ****             env_cache_table[i].active = 0;
 414:easyflash/src/ef_env.c ****             return;
 415:easyflash/src/ef_env.c ****         }
 416:easyflash/src/ef_env.c ****     }
 417:easyflash/src/ef_env.c ****     /* add the ENV to cache, using LRU (Least Recently Used) like algorithm */
 418:easyflash/src/ef_env.c ****     if (empty_index < EF_ENV_CACHE_TABLE_SIZE)
 419:easyflash/src/ef_env.c ****     {
 420:easyflash/src/ef_env.c ****         env_cache_table[empty_index].addr = addr;
 421:easyflash/src/ef_env.c ****         env_cache_table[empty_index].name_crc = name_crc;
 422:easyflash/src/ef_env.c ****         env_cache_table[empty_index].active = 0;
 423:easyflash/src/ef_env.c ****     }
 424:easyflash/src/ef_env.c ****     else if (min_activity_index < EF_ENV_CACHE_TABLE_SIZE)
 425:easyflash/src/ef_env.c ****     {
 426:easyflash/src/ef_env.c ****         env_cache_table[min_activity_index].addr = addr;
 427:easyflash/src/ef_env.c ****         env_cache_table[min_activity_index].name_crc = name_crc;
 428:easyflash/src/ef_env.c ****         env_cache_table[min_activity_index].active = 0;
 429:easyflash/src/ef_env.c ****     }
 430:easyflash/src/ef_env.c **** }
 431:easyflash/src/ef_env.c **** 
 432:easyflash/src/ef_env.c **** /*
 433:easyflash/src/ef_env.c ****  * Get ENV info from cache. It's return true when cache is hit.
 434:easyflash/src/ef_env.c ****  */
 435:easyflash/src/ef_env.c **** static bool get_env_from_cache(const char *name, size_t name_len, uint32_t *addr)
 436:easyflash/src/ef_env.c **** {
 437:easyflash/src/ef_env.c ****     size_t i;
 438:easyflash/src/ef_env.c ****     uint16_t name_crc = (uint16_t)(ef_calc_crc32(0, name, name_len) >> 16);
 439:easyflash/src/ef_env.c **** 
 440:easyflash/src/ef_env.c ****     for (i = 0; i < EF_ENV_CACHE_TABLE_SIZE; i++)
 441:easyflash/src/ef_env.c ****     {
 442:easyflash/src/ef_env.c ****         if ((env_cache_table[i].addr != FAILED_ADDR) && (env_cache_table[i].name_crc == name_crc))
 443:easyflash/src/ef_env.c ****         {
 444:easyflash/src/ef_env.c ****             char saved_name[EF_ENV_NAME_MAX];
 445:easyflash/src/ef_env.c ****             /* read the ENV name in flash */
 446:easyflash/src/ef_env.c ****             ef_port_read(env_cache_table[i].addr + ENV_HDR_DATA_SIZE, (uint32_t *) saved_name, EF_E
 447:easyflash/src/ef_env.c ****             if (!strncmp(name, saved_name, name_len))
 448:easyflash/src/ef_env.c ****             {
 449:easyflash/src/ef_env.c ****                 *addr = env_cache_table[i].addr;
 450:easyflash/src/ef_env.c ****                 if (env_cache_table[i].active >= 0xFFFF - EF_ENV_CACHE_TABLE_SIZE)
 451:easyflash/src/ef_env.c ****                 {
 452:easyflash/src/ef_env.c ****                     env_cache_table[i].active = 0xFFFF;
 453:easyflash/src/ef_env.c ****                 }
 454:easyflash/src/ef_env.c ****                 else
 455:easyflash/src/ef_env.c ****                 {
 456:easyflash/src/ef_env.c ****                     env_cache_table[i].active += EF_ENV_CACHE_TABLE_SIZE;
 457:easyflash/src/ef_env.c ****                 }
 458:easyflash/src/ef_env.c ****                 return true;
 459:easyflash/src/ef_env.c ****             }
 460:easyflash/src/ef_env.c ****         }
 461:easyflash/src/ef_env.c ****     }
 462:easyflash/src/ef_env.c **** 
ARM GAS  /tmp/ccSGDQKw.s 			page 12


 463:easyflash/src/ef_env.c ****     return false;
 464:easyflash/src/ef_env.c **** }
 465:easyflash/src/ef_env.c **** #endif /* EF_ENV_USING_CACHE */
 466:easyflash/src/ef_env.c **** 
 467:easyflash/src/ef_env.c **** /*
 468:easyflash/src/ef_env.c ****  * find the continue 0xFF flash address to end address
 469:easyflash/src/ef_env.c ****  */
 470:easyflash/src/ef_env.c **** static uint32_t continue_ff_addr(uint32_t start, uint32_t end)
 471:easyflash/src/ef_env.c **** {
 472:easyflash/src/ef_env.c ****     uint8_t buf[32], last_data = 0x00;
 473:easyflash/src/ef_env.c ****     size_t i, addr = start, read_size;
 474:easyflash/src/ef_env.c **** 
 475:easyflash/src/ef_env.c ****     for (; start < end; start += sizeof(buf))
 476:easyflash/src/ef_env.c ****     {
 477:easyflash/src/ef_env.c ****         if (start + sizeof(buf) < end)
 478:easyflash/src/ef_env.c ****         {
 479:easyflash/src/ef_env.c ****             read_size = sizeof(buf);
 480:easyflash/src/ef_env.c ****         }
 481:easyflash/src/ef_env.c ****         else
 482:easyflash/src/ef_env.c ****         {
 483:easyflash/src/ef_env.c ****             read_size = end - start;
 484:easyflash/src/ef_env.c ****         }
 485:easyflash/src/ef_env.c ****         ef_port_read(start, (uint32_t *) buf, read_size);
 486:easyflash/src/ef_env.c ****         for (i = 0; i < read_size; i++)
 487:easyflash/src/ef_env.c ****         {
 488:easyflash/src/ef_env.c ****             if (last_data != 0xFF && buf[i] == 0xFF)
 489:easyflash/src/ef_env.c ****             {
 490:easyflash/src/ef_env.c ****                 addr = start + i;
 491:easyflash/src/ef_env.c ****             }
 492:easyflash/src/ef_env.c ****             last_data = buf[i];
 493:easyflash/src/ef_env.c ****         }
 494:easyflash/src/ef_env.c ****     }
 495:easyflash/src/ef_env.c **** 
 496:easyflash/src/ef_env.c ****     if (last_data == 0xFF)
 497:easyflash/src/ef_env.c ****     {
 498:easyflash/src/ef_env.c ****         return EF_WG_ALIGN(addr);
 499:easyflash/src/ef_env.c ****     }
 500:easyflash/src/ef_env.c ****     else
 501:easyflash/src/ef_env.c ****     {
 502:easyflash/src/ef_env.c ****         return end;
 503:easyflash/src/ef_env.c ****     }
 504:easyflash/src/ef_env.c **** }
 505:easyflash/src/ef_env.c **** 
 506:easyflash/src/ef_env.c **** /*
 507:easyflash/src/ef_env.c ****  * find the next ENV address by magic word on the flash
 508:easyflash/src/ef_env.c ****  */
 509:easyflash/src/ef_env.c **** static uint32_t find_next_env_addr(uint32_t start, uint32_t end)
 510:easyflash/src/ef_env.c **** {
 511:easyflash/src/ef_env.c ****     uint8_t buf[32];
 512:easyflash/src/ef_env.c ****     uint32_t start_bak = start, i;
 513:easyflash/src/ef_env.c ****     uint32_t magic;
 514:easyflash/src/ef_env.c **** 
 515:easyflash/src/ef_env.c **** #ifdef EF_ENV_USING_CACHE
 516:easyflash/src/ef_env.c ****     uint32_t empty_env;
 517:easyflash/src/ef_env.c **** 
 518:easyflash/src/ef_env.c ****     if (get_sector_from_cache(EF_ALIGN_DOWN(start, SECTOR_SIZE), &empty_env) && start == empty_env)
 519:easyflash/src/ef_env.c ****     {
ARM GAS  /tmp/ccSGDQKw.s 			page 13


 520:easyflash/src/ef_env.c ****         return FAILED_ADDR;
 521:easyflash/src/ef_env.c ****     }
 522:easyflash/src/ef_env.c **** #endif /* EF_ENV_USING_CACHE */
 523:easyflash/src/ef_env.c **** 
 524:easyflash/src/ef_env.c ****     for (; start < end; start += (sizeof(buf) - sizeof(uint32_t)))
 525:easyflash/src/ef_env.c ****     {
 526:easyflash/src/ef_env.c ****         ef_port_read(start, (uint32_t *) buf, sizeof(buf));
 527:easyflash/src/ef_env.c ****         for (i = 0; i < sizeof(buf) - sizeof(uint32_t) && start + i < end; i++)
 528:easyflash/src/ef_env.c ****         {
 529:easyflash/src/ef_env.c **** #ifndef EF_BIG_ENDIAN            /* Little Endian Order */
 530:easyflash/src/ef_env.c ****             magic = buf[i] + (buf[i + 1] << 8) + (buf[i + 2] << 16) + (buf[i + 3] << 24);
 531:easyflash/src/ef_env.c **** #else                       /* Big Endian Order */
 532:easyflash/src/ef_env.c ****             magic = buf[i + 3] + (buf[i + 2] << 8) + (buf[i + 1] << 16) + (buf[i] << 24);
 533:easyflash/src/ef_env.c **** #endif
 534:easyflash/src/ef_env.c ****             if (magic == ENV_MAGIC_WORD && (start + i - ENV_MAGIC_OFFSET) >= start_bak)
 535:easyflash/src/ef_env.c ****             {
 536:easyflash/src/ef_env.c ****                 return start + i - ENV_MAGIC_OFFSET;
 537:easyflash/src/ef_env.c ****             }
 538:easyflash/src/ef_env.c ****         }
 539:easyflash/src/ef_env.c ****     }
 540:easyflash/src/ef_env.c **** 
 541:easyflash/src/ef_env.c ****     return FAILED_ADDR;
 542:easyflash/src/ef_env.c **** }
 543:easyflash/src/ef_env.c **** 
 544:easyflash/src/ef_env.c **** static uint32_t get_next_env_addr(sector_meta_data_t sector, env_node_obj_t pre_env)
 545:easyflash/src/ef_env.c **** {
 546:easyflash/src/ef_env.c ****     uint32_t addr = FAILED_ADDR;
 547:easyflash/src/ef_env.c **** 
 548:easyflash/src/ef_env.c ****     if (sector->status.store == SECTOR_STORE_EMPTY)
 549:easyflash/src/ef_env.c ****     {
 550:easyflash/src/ef_env.c ****         return FAILED_ADDR;
 551:easyflash/src/ef_env.c ****     }
 552:easyflash/src/ef_env.c **** 
 553:easyflash/src/ef_env.c ****     if (pre_env->addr.start == FAILED_ADDR)
 554:easyflash/src/ef_env.c ****     {
 555:easyflash/src/ef_env.c ****         /* the first ENV address */
 556:easyflash/src/ef_env.c ****         addr = sector->addr + SECTOR_HDR_DATA_SIZE;
 557:easyflash/src/ef_env.c ****     }
 558:easyflash/src/ef_env.c ****     else
 559:easyflash/src/ef_env.c ****     {
 560:easyflash/src/ef_env.c ****         if (pre_env->addr.start <= sector->addr + SECTOR_SIZE)
 561:easyflash/src/ef_env.c ****         {
 562:easyflash/src/ef_env.c ****             if (pre_env->crc_is_ok)
 563:easyflash/src/ef_env.c ****             {
 564:easyflash/src/ef_env.c ****                 addr = pre_env->addr.start + pre_env->len;
 565:easyflash/src/ef_env.c ****             }
 566:easyflash/src/ef_env.c ****             else
 567:easyflash/src/ef_env.c ****             {
 568:easyflash/src/ef_env.c ****                 /* when pre_env CRC check failed, maybe the flash has error data
 569:easyflash/src/ef_env.c ****                  * find_next_env_addr after pre_env address */
 570:easyflash/src/ef_env.c ****                 addr = pre_env->addr.start + EF_WG_ALIGN(1);
 571:easyflash/src/ef_env.c ****             }
 572:easyflash/src/ef_env.c ****             /* check and find next ENV address */
 573:easyflash/src/ef_env.c ****             addr = find_next_env_addr(addr, sector->addr + SECTOR_SIZE - SECTOR_HDR_DATA_SIZE);
 574:easyflash/src/ef_env.c **** 
 575:easyflash/src/ef_env.c ****             if (addr > sector->addr + SECTOR_SIZE || pre_env->len == 0)
 576:easyflash/src/ef_env.c ****             {
ARM GAS  /tmp/ccSGDQKw.s 			page 14


 577:easyflash/src/ef_env.c ****                 return FAILED_ADDR;
 578:easyflash/src/ef_env.c ****             }
 579:easyflash/src/ef_env.c ****         }
 580:easyflash/src/ef_env.c ****         else
 581:easyflash/src/ef_env.c ****         {
 582:easyflash/src/ef_env.c ****             /* no ENV */
 583:easyflash/src/ef_env.c ****             return FAILED_ADDR;
 584:easyflash/src/ef_env.c ****         }
 585:easyflash/src/ef_env.c ****     }
 586:easyflash/src/ef_env.c **** 
 587:easyflash/src/ef_env.c ****     return addr;
 588:easyflash/src/ef_env.c **** }
 589:easyflash/src/ef_env.c **** 
 590:easyflash/src/ef_env.c **** static EfErrCode read_env(env_node_obj_t env)
 591:easyflash/src/ef_env.c **** {
 592:easyflash/src/ef_env.c ****     struct env_hdr_data env_hdr;
 593:easyflash/src/ef_env.c ****     uint8_t buf[32];
 594:easyflash/src/ef_env.c ****     uint32_t calc_crc32 = 0, crc_data_len, env_name_addr;
 595:easyflash/src/ef_env.c ****     EfErrCode result = EF_NO_ERR;
 596:easyflash/src/ef_env.c ****     size_t len, size;
 597:easyflash/src/ef_env.c ****     /* read ENV header raw data */
 598:easyflash/src/ef_env.c ****     ef_port_read(env->addr.start, (uint32_t *)&env_hdr, sizeof(struct env_hdr_data));
 599:easyflash/src/ef_env.c ****     env->status = (env_status_t) get_status(env_hdr.status_table, ENV_STATUS_NUM);
 600:easyflash/src/ef_env.c ****     env->len = env_hdr.len;
 601:easyflash/src/ef_env.c **** 
 602:easyflash/src/ef_env.c ****     if (env->len == ~0UL || env->len > ENV_AREA_SIZE || env->len < ENV_NAME_LEN_OFFSET)
 603:easyflash/src/ef_env.c ****     {
 604:easyflash/src/ef_env.c ****         /* the ENV length was not write, so reserved the meta data for current ENV */
 605:easyflash/src/ef_env.c ****         env->len = ENV_HDR_DATA_SIZE;
 606:easyflash/src/ef_env.c ****         if (env->status != ENV_ERR_HDR)
 607:easyflash/src/ef_env.c ****         {
 608:easyflash/src/ef_env.c ****             env->status = ENV_ERR_HDR;
 609:easyflash/src/ef_env.c ****             EF_DEBUG("Error: The ENV @0x%08X length has an error.", env->addr.start);
 610:easyflash/src/ef_env.c ****             write_status(env->addr.start, env_hdr.status_table, ENV_STATUS_NUM, ENV_ERR_HDR);
 611:easyflash/src/ef_env.c ****         }
 612:easyflash/src/ef_env.c ****         env->crc_is_ok = false;
 613:easyflash/src/ef_env.c ****         return EF_READ_ERR;
 614:easyflash/src/ef_env.c ****     }
 615:easyflash/src/ef_env.c ****     else if (env->len > SECTOR_SIZE - SECTOR_HDR_DATA_SIZE && env->len < ENV_AREA_SIZE)
 616:easyflash/src/ef_env.c ****     {
 617:easyflash/src/ef_env.c ****         EF_ASSERT(0);
 618:easyflash/src/ef_env.c ****     }
 619:easyflash/src/ef_env.c **** 
 620:easyflash/src/ef_env.c ****     /* CRC32 data len(header.name_len + header.value_len + name + value) */
 621:easyflash/src/ef_env.c ****     crc_data_len = env->len - ENV_NAME_LEN_OFFSET;
 622:easyflash/src/ef_env.c ****     /* calculate the CRC32 value */
 623:easyflash/src/ef_env.c ****     for (len = 0, size = 0; len < crc_data_len; len += size)
 624:easyflash/src/ef_env.c ****     {
 625:easyflash/src/ef_env.c ****         if (len + sizeof(buf) < crc_data_len)
 626:easyflash/src/ef_env.c ****         {
 627:easyflash/src/ef_env.c ****             size = sizeof(buf);
 628:easyflash/src/ef_env.c ****         }
 629:easyflash/src/ef_env.c ****         else
 630:easyflash/src/ef_env.c ****         {
 631:easyflash/src/ef_env.c ****             size = crc_data_len - len;
 632:easyflash/src/ef_env.c ****         }
 633:easyflash/src/ef_env.c **** 
ARM GAS  /tmp/ccSGDQKw.s 			page 15


 634:easyflash/src/ef_env.c ****         ef_port_read(env->addr.start + ENV_NAME_LEN_OFFSET + len, (uint32_t *) buf, EF_WG_ALIGN(siz
 635:easyflash/src/ef_env.c ****         calc_crc32 = ef_calc_crc32(calc_crc32, buf, size);
 636:easyflash/src/ef_env.c ****     }
 637:easyflash/src/ef_env.c ****     /* check CRC32 */
 638:easyflash/src/ef_env.c ****     if (calc_crc32 != env_hdr.crc32)
 639:easyflash/src/ef_env.c ****     {
 640:easyflash/src/ef_env.c ****         env->crc_is_ok = false;
 641:easyflash/src/ef_env.c ****         result = EF_READ_ERR;
 642:easyflash/src/ef_env.c ****     }
 643:easyflash/src/ef_env.c ****     else
 644:easyflash/src/ef_env.c ****     {
 645:easyflash/src/ef_env.c ****         env->crc_is_ok = true;
 646:easyflash/src/ef_env.c ****         /* the name is behind aligned ENV header */
 647:easyflash/src/ef_env.c ****         env_name_addr = env->addr.start + ENV_HDR_DATA_SIZE;
 648:easyflash/src/ef_env.c ****         ef_port_read(env_name_addr, (uint32_t *) env->name, EF_WG_ALIGN(env_hdr.name_len));
 649:easyflash/src/ef_env.c ****         /* the value is behind aligned name */
 650:easyflash/src/ef_env.c ****         env->addr.value = env_name_addr + EF_WG_ALIGN(env_hdr.name_len);
 651:easyflash/src/ef_env.c ****         env->value_len = env_hdr.value_len;
 652:easyflash/src/ef_env.c ****         env->name_len = env_hdr.name_len;
 653:easyflash/src/ef_env.c ****     }
 654:easyflash/src/ef_env.c **** 
 655:easyflash/src/ef_env.c ****     return result;
 656:easyflash/src/ef_env.c **** }
 657:easyflash/src/ef_env.c **** 
 658:easyflash/src/ef_env.c **** static EfErrCode read_sector_meta_data(uint32_t addr, sector_meta_data_t sector, bool traversal)
 659:easyflash/src/ef_env.c **** {
 660:easyflash/src/ef_env.c ****     EfErrCode result = EF_NO_ERR;
 661:easyflash/src/ef_env.c ****     struct sector_hdr_data sec_hdr;
 662:easyflash/src/ef_env.c **** 
 663:easyflash/src/ef_env.c ****     EF_ASSERT(addr % SECTOR_SIZE == 0);
 664:easyflash/src/ef_env.c ****     EF_ASSERT(sector);
 665:easyflash/src/ef_env.c **** 
 666:easyflash/src/ef_env.c ****     /* read sector header raw data */
 667:easyflash/src/ef_env.c ****     ef_port_read(addr, (uint32_t *)&sec_hdr, sizeof(struct sector_hdr_data));
 668:easyflash/src/ef_env.c **** 
 669:easyflash/src/ef_env.c ****     sector->addr = addr;
 670:easyflash/src/ef_env.c ****     sector->magic = sec_hdr.magic;
 671:easyflash/src/ef_env.c ****     /* check magic word */
 672:easyflash/src/ef_env.c ****     if (sector->magic != SECTOR_MAGIC_WORD)
 673:easyflash/src/ef_env.c ****     {
 674:easyflash/src/ef_env.c ****         sector->check_ok = false;
 675:easyflash/src/ef_env.c ****         sector->combined = SECTOR_NOT_COMBINED;
 676:easyflash/src/ef_env.c ****         return EF_ENV_INIT_FAILED;
 677:easyflash/src/ef_env.c ****     }
 678:easyflash/src/ef_env.c ****     sector->check_ok = true;
 679:easyflash/src/ef_env.c ****     /* get other sector meta data */
 680:easyflash/src/ef_env.c ****     sector->combined = sec_hdr.combined;
 681:easyflash/src/ef_env.c ****     sector->status.store = (sector_store_status_t) get_status(sec_hdr.status_table.store, SECTOR_ST
 682:easyflash/src/ef_env.c ****     sector->status.dirty = (sector_dirty_status_t) get_status(sec_hdr.status_table.dirty, SECTOR_DI
 683:easyflash/src/ef_env.c ****     /* traversal all ENV and calculate the remain space size */
 684:easyflash/src/ef_env.c ****     if (traversal)
 685:easyflash/src/ef_env.c ****     {
 686:easyflash/src/ef_env.c ****         sector->remain = 0;
 687:easyflash/src/ef_env.c ****         sector->empty_env = sector->addr + SECTOR_HDR_DATA_SIZE;
 688:easyflash/src/ef_env.c ****         if (sector->status.store == SECTOR_STORE_EMPTY)
 689:easyflash/src/ef_env.c ****         {
 690:easyflash/src/ef_env.c ****             sector->remain = SECTOR_SIZE - SECTOR_HDR_DATA_SIZE;
ARM GAS  /tmp/ccSGDQKw.s 			page 16


 691:easyflash/src/ef_env.c ****         }
 692:easyflash/src/ef_env.c ****         else if (sector->status.store == SECTOR_STORE_USING)
 693:easyflash/src/ef_env.c ****         {
 694:easyflash/src/ef_env.c ****             struct env_node_obj env_meta;
 695:easyflash/src/ef_env.c **** 
 696:easyflash/src/ef_env.c **** #ifdef EF_ENV_USING_CACHE
 697:easyflash/src/ef_env.c ****             if (get_sector_from_cache(addr, &sector->empty_env))
 698:easyflash/src/ef_env.c ****             {
 699:easyflash/src/ef_env.c ****                 sector->remain = SECTOR_SIZE - (sector->empty_env - sector->addr);
 700:easyflash/src/ef_env.c ****                 return result;
 701:easyflash/src/ef_env.c ****             }
 702:easyflash/src/ef_env.c **** #endif /* EF_ENV_USING_CACHE */
 703:easyflash/src/ef_env.c **** 
 704:easyflash/src/ef_env.c ****             sector->remain = SECTOR_SIZE - SECTOR_HDR_DATA_SIZE;
 705:easyflash/src/ef_env.c ****             env_meta.addr.start = FAILED_ADDR;
 706:easyflash/src/ef_env.c ****             while ((env_meta.addr.start = get_next_env_addr(sector, &env_meta)) != FAILED_ADDR)
 707:easyflash/src/ef_env.c ****             {
 708:easyflash/src/ef_env.c ****                 read_env(&env_meta);
 709:easyflash/src/ef_env.c ****                 if (!env_meta.crc_is_ok)
 710:easyflash/src/ef_env.c ****                 {
 711:easyflash/src/ef_env.c ****                     if (env_meta.status != ENV_PRE_WRITE && env_meta.status != ENV_ERR_HDR)
 712:easyflash/src/ef_env.c ****                     {
 713:easyflash/src/ef_env.c ****                         EF_INFO("Error: The ENV (@0x%08X) CRC32 check failed!", env_meta.addr.start
 714:easyflash/src/ef_env.c ****                         sector->remain = 0;
 715:easyflash/src/ef_env.c ****                         result = EF_READ_ERR;
 716:easyflash/src/ef_env.c ****                         break;
 717:easyflash/src/ef_env.c ****                     }
 718:easyflash/src/ef_env.c ****                 }
 719:easyflash/src/ef_env.c ****                 sector->empty_env += env_meta.len;
 720:easyflash/src/ef_env.c ****                 sector->remain -= env_meta.len;
 721:easyflash/src/ef_env.c ****             }
 722:easyflash/src/ef_env.c ****             /* check the empty ENV address by read continue 0xFF on flash  */
 723:easyflash/src/ef_env.c ****             {
 724:easyflash/src/ef_env.c ****                 uint32_t ff_addr;
 725:easyflash/src/ef_env.c **** 
 726:easyflash/src/ef_env.c ****                 ff_addr = continue_ff_addr(sector->empty_env, sector->addr + SECTOR_SIZE);
 727:easyflash/src/ef_env.c ****                 /* check the flash data is clean */
 728:easyflash/src/ef_env.c ****                 if (sector->empty_env != ff_addr)
 729:easyflash/src/ef_env.c ****                 {
 730:easyflash/src/ef_env.c ****                     /* update the sector information */
 731:easyflash/src/ef_env.c ****                     sector->empty_env = ff_addr;
 732:easyflash/src/ef_env.c ****                     sector->remain = SECTOR_SIZE - (ff_addr - sector->addr);
 733:easyflash/src/ef_env.c ****                 }
 734:easyflash/src/ef_env.c ****             }
 735:easyflash/src/ef_env.c **** 
 736:easyflash/src/ef_env.c **** #ifdef EF_ENV_USING_CACHE
 737:easyflash/src/ef_env.c ****             update_sector_cache(sector->addr, sector->empty_env);
 738:easyflash/src/ef_env.c **** #endif
 739:easyflash/src/ef_env.c ****         }
 740:easyflash/src/ef_env.c ****     }
 741:easyflash/src/ef_env.c **** 
 742:easyflash/src/ef_env.c ****     return result;
 743:easyflash/src/ef_env.c **** }
 744:easyflash/src/ef_env.c **** 
 745:easyflash/src/ef_env.c **** static uint32_t get_next_sector_addr(sector_meta_data_t pre_sec)
 746:easyflash/src/ef_env.c **** {
 747:easyflash/src/ef_env.c ****     uint32_t next_addr;
ARM GAS  /tmp/ccSGDQKw.s 			page 17


 748:easyflash/src/ef_env.c **** 
 749:easyflash/src/ef_env.c ****     if (pre_sec->addr == FAILED_ADDR)
 750:easyflash/src/ef_env.c ****     {
 751:easyflash/src/ef_env.c ****         return env_start_addr;
 752:easyflash/src/ef_env.c ****     }
 753:easyflash/src/ef_env.c ****     else
 754:easyflash/src/ef_env.c ****     {
 755:easyflash/src/ef_env.c ****         /* check ENV sector combined */
 756:easyflash/src/ef_env.c ****         if (pre_sec->combined == SECTOR_NOT_COMBINED)
 757:easyflash/src/ef_env.c ****         {
 758:easyflash/src/ef_env.c ****             next_addr = pre_sec->addr + SECTOR_SIZE;
 759:easyflash/src/ef_env.c ****         }
 760:easyflash/src/ef_env.c ****         else
 761:easyflash/src/ef_env.c ****         {
 762:easyflash/src/ef_env.c ****             next_addr = pre_sec->addr + pre_sec->combined * SECTOR_SIZE;
 763:easyflash/src/ef_env.c ****         }
 764:easyflash/src/ef_env.c ****         /* check range */
 765:easyflash/src/ef_env.c ****         if (next_addr < env_start_addr + ENV_AREA_SIZE)
 766:easyflash/src/ef_env.c ****         {
 767:easyflash/src/ef_env.c ****             return next_addr;
 768:easyflash/src/ef_env.c ****         }
 769:easyflash/src/ef_env.c ****         else
 770:easyflash/src/ef_env.c ****         {
 771:easyflash/src/ef_env.c ****             /* no sector */
 772:easyflash/src/ef_env.c ****             return FAILED_ADDR;
 773:easyflash/src/ef_env.c ****         }
 774:easyflash/src/ef_env.c ****     }
 775:easyflash/src/ef_env.c **** }
 776:easyflash/src/ef_env.c **** 
 777:easyflash/src/ef_env.c **** static void env_iterator(env_node_obj_t env, void *arg1, void *arg2,
 778:easyflash/src/ef_env.c ****                          bool (*callback)(env_node_obj_t env, void *arg1, void *arg2))
 779:easyflash/src/ef_env.c **** {
 780:easyflash/src/ef_env.c ****     struct sector_meta_data sector;
 781:easyflash/src/ef_env.c ****     uint32_t sec_addr;
 782:easyflash/src/ef_env.c **** 
 783:easyflash/src/ef_env.c ****     sector.addr = FAILED_ADDR;
 784:easyflash/src/ef_env.c ****     /* search all sectors */
 785:easyflash/src/ef_env.c ****     while ((sec_addr = get_next_sector_addr(&sector)) != FAILED_ADDR)
 786:easyflash/src/ef_env.c ****     {
 787:easyflash/src/ef_env.c ****         if (read_sector_meta_data(sec_addr, &sector, false) != EF_NO_ERR)
 788:easyflash/src/ef_env.c ****         {
 789:easyflash/src/ef_env.c ****             continue;
 790:easyflash/src/ef_env.c ****         }
 791:easyflash/src/ef_env.c ****         if (callback == NULL)
 792:easyflash/src/ef_env.c ****         {
 793:easyflash/src/ef_env.c ****             continue;
 794:easyflash/src/ef_env.c ****         }
 795:easyflash/src/ef_env.c ****         /* sector has ENV */
 796:easyflash/src/ef_env.c ****         if (sector.status.store == SECTOR_STORE_USING || sector.status.store == SECTOR_STORE_FULL)
 797:easyflash/src/ef_env.c ****         {
 798:easyflash/src/ef_env.c ****             env->addr.start = FAILED_ADDR;
 799:easyflash/src/ef_env.c ****             /* search all ENV */
 800:easyflash/src/ef_env.c ****             while ((env->addr.start = get_next_env_addr(&sector, env)) != FAILED_ADDR)
 801:easyflash/src/ef_env.c ****             {
 802:easyflash/src/ef_env.c ****                 read_env(env);
 803:easyflash/src/ef_env.c ****                 /* iterator is interrupted when callback return true */
 804:easyflash/src/ef_env.c ****                 if (callback(env, arg1, arg2))
ARM GAS  /tmp/ccSGDQKw.s 			page 18


 805:easyflash/src/ef_env.c ****                 {
 806:easyflash/src/ef_env.c ****                     return;
 807:easyflash/src/ef_env.c ****                 }
 808:easyflash/src/ef_env.c ****             }
 809:easyflash/src/ef_env.c ****         }
 810:easyflash/src/ef_env.c ****     }
 811:easyflash/src/ef_env.c **** }
 812:easyflash/src/ef_env.c **** 
 813:easyflash/src/ef_env.c **** static bool find_env_cb(env_node_obj_t env, void *arg1, void *arg2)
 814:easyflash/src/ef_env.c **** {
 815:easyflash/src/ef_env.c ****     const char *key = arg1;
 816:easyflash/src/ef_env.c ****     bool *find_ok = arg2;
 817:easyflash/src/ef_env.c ****     uint8_t max_len = strlen(key);
 818:easyflash/src/ef_env.c **** 
 819:easyflash/src/ef_env.c ****     if (max_len < env->name_len)
 820:easyflash/src/ef_env.c ****     {
 821:easyflash/src/ef_env.c ****         max_len = env->name_len;
 822:easyflash/src/ef_env.c ****     }
 823:easyflash/src/ef_env.c ****     /* check ENV */
 824:easyflash/src/ef_env.c ****     if (env->crc_is_ok && env->status == ENV_WRITE && !strncmp(env->name, key, max_len))
 825:easyflash/src/ef_env.c ****     {
 826:easyflash/src/ef_env.c ****         *find_ok = true;
 827:easyflash/src/ef_env.c ****         return true;
 828:easyflash/src/ef_env.c ****     }
 829:easyflash/src/ef_env.c ****     return false;
 830:easyflash/src/ef_env.c **** }
 831:easyflash/src/ef_env.c **** 
 832:easyflash/src/ef_env.c **** static bool find_env_no_cache(const char *key, env_node_obj_t env)
 833:easyflash/src/ef_env.c **** {
 834:easyflash/src/ef_env.c ****     bool find_ok = false;
 835:easyflash/src/ef_env.c **** 
 836:easyflash/src/ef_env.c ****     env_iterator(env, (void *)key, &find_ok, find_env_cb);
 837:easyflash/src/ef_env.c **** 
 838:easyflash/src/ef_env.c ****     return find_ok;
 839:easyflash/src/ef_env.c **** }
 840:easyflash/src/ef_env.c **** 
 841:easyflash/src/ef_env.c **** static bool find_env(const char *key, env_node_obj_t env)
 842:easyflash/src/ef_env.c **** {
 843:easyflash/src/ef_env.c ****     bool find_ok = false;
 844:easyflash/src/ef_env.c **** 
 845:easyflash/src/ef_env.c **** #ifdef EF_ENV_USING_CACHE
 846:easyflash/src/ef_env.c ****     size_t key_len = strlen(key);
 847:easyflash/src/ef_env.c **** 
 848:easyflash/src/ef_env.c ****     if (get_env_from_cache(key, key_len, &env->addr.start))
 849:easyflash/src/ef_env.c ****     {
 850:easyflash/src/ef_env.c ****         read_env(env);
 851:easyflash/src/ef_env.c ****         return true;
 852:easyflash/src/ef_env.c ****     }
 853:easyflash/src/ef_env.c **** #endif /* EF_ENV_USING_CACHE */
 854:easyflash/src/ef_env.c **** 
 855:easyflash/src/ef_env.c ****     find_ok = find_env_no_cache(key, env);
 856:easyflash/src/ef_env.c **** 
 857:easyflash/src/ef_env.c **** #ifdef EF_ENV_USING_CACHE
 858:easyflash/src/ef_env.c ****     if (find_ok)
 859:easyflash/src/ef_env.c ****     {
 860:easyflash/src/ef_env.c ****         update_env_cache(key, key_len, env->addr.start);
 861:easyflash/src/ef_env.c ****     }
ARM GAS  /tmp/ccSGDQKw.s 			page 19


 862:easyflash/src/ef_env.c **** #endif /* EF_ENV_USING_CACHE */
 863:easyflash/src/ef_env.c **** 
 864:easyflash/src/ef_env.c ****     return find_ok;
 865:easyflash/src/ef_env.c **** }
 866:easyflash/src/ef_env.c **** 
 867:easyflash/src/ef_env.c **** static bool ef_is_str(uint8_t *value, size_t len)
 868:easyflash/src/ef_env.c **** {
 869:easyflash/src/ef_env.c **** #define __is_print(ch)       ((unsigned int)((ch) - ' ') < 127u - ' ')
 870:easyflash/src/ef_env.c ****     size_t i;
 871:easyflash/src/ef_env.c **** 
 872:easyflash/src/ef_env.c ****     for (i = 0; i < len; i++)
 873:easyflash/src/ef_env.c ****     {
 874:easyflash/src/ef_env.c ****         if (!__is_print(value[i]))
 875:easyflash/src/ef_env.c ****         {
 876:easyflash/src/ef_env.c ****             return false;
 877:easyflash/src/ef_env.c ****         }
 878:easyflash/src/ef_env.c ****     }
 879:easyflash/src/ef_env.c ****     return true;
 880:easyflash/src/ef_env.c **** }
 881:easyflash/src/ef_env.c **** 
 882:easyflash/src/ef_env.c **** static size_t get_env(const char *key, void *value_buf, size_t buf_len, size_t *value_len)
 883:easyflash/src/ef_env.c **** {
 884:easyflash/src/ef_env.c ****     struct env_node_obj env;
 885:easyflash/src/ef_env.c ****     size_t read_len = 0;
 886:easyflash/src/ef_env.c **** 
 887:easyflash/src/ef_env.c ****     if (find_env(key, &env))
 888:easyflash/src/ef_env.c ****     {
 889:easyflash/src/ef_env.c ****         if (value_len)
 890:easyflash/src/ef_env.c ****         {
 891:easyflash/src/ef_env.c ****             *value_len = env.value_len;
 892:easyflash/src/ef_env.c ****         }
 893:easyflash/src/ef_env.c ****         if (buf_len > env.value_len)
 894:easyflash/src/ef_env.c ****         {
 895:easyflash/src/ef_env.c ****             read_len = env.value_len;
 896:easyflash/src/ef_env.c ****         }
 897:easyflash/src/ef_env.c ****         else
 898:easyflash/src/ef_env.c ****         {
 899:easyflash/src/ef_env.c ****             read_len = buf_len;
 900:easyflash/src/ef_env.c ****         }
 901:easyflash/src/ef_env.c ****         if (value_buf)
 902:easyflash/src/ef_env.c ****         {
 903:easyflash/src/ef_env.c ****             ef_port_read(env.addr.value, (uint32_t *) value_buf, read_len);
 904:easyflash/src/ef_env.c ****         }
 905:easyflash/src/ef_env.c ****     }
 906:easyflash/src/ef_env.c **** 
 907:easyflash/src/ef_env.c ****     return read_len;
 908:easyflash/src/ef_env.c **** }
 909:easyflash/src/ef_env.c **** 
 910:easyflash/src/ef_env.c **** /**
 911:easyflash/src/ef_env.c ****  * Get a ENV object by key name
 912:easyflash/src/ef_env.c ****  *
 913:easyflash/src/ef_env.c ****  * @param key ENV name
 914:easyflash/src/ef_env.c ****  * @param env ENV object
 915:easyflash/src/ef_env.c ****  *
 916:easyflash/src/ef_env.c ****  * @return TRUE: find the ENV is OK, else return false
 917:easyflash/src/ef_env.c ****  */
 918:easyflash/src/ef_env.c **** bool ef_get_env_obj(const char *key, env_node_obj_t env)
ARM GAS  /tmp/ccSGDQKw.s 			page 20


 919:easyflash/src/ef_env.c **** {
 920:easyflash/src/ef_env.c ****     bool find_ok = false;
 921:easyflash/src/ef_env.c **** 
 922:easyflash/src/ef_env.c ****     if (!init_ok)
 923:easyflash/src/ef_env.c ****     {
 924:easyflash/src/ef_env.c ****         EF_INFO("ENV isn't initialize OK.");
 925:easyflash/src/ef_env.c ****         return 0;
 926:easyflash/src/ef_env.c ****     }
 927:easyflash/src/ef_env.c **** 
 928:easyflash/src/ef_env.c ****     /* lock the ENV cache */
 929:easyflash/src/ef_env.c ****     ef_port_env_lock();
 930:easyflash/src/ef_env.c **** 
 931:easyflash/src/ef_env.c ****     find_ok = find_env(key, env);
 932:easyflash/src/ef_env.c **** 
 933:easyflash/src/ef_env.c ****     /* unlock the ENV cache */
 934:easyflash/src/ef_env.c ****     ef_port_env_unlock();
 935:easyflash/src/ef_env.c **** 
 936:easyflash/src/ef_env.c ****     return find_ok;
 937:easyflash/src/ef_env.c **** }
 938:easyflash/src/ef_env.c **** 
 939:easyflash/src/ef_env.c **** /**
 940:easyflash/src/ef_env.c ****  * Get a blob ENV value by key name.
 941:easyflash/src/ef_env.c ****  *
 942:easyflash/src/ef_env.c ****  * @param key ENV name
 943:easyflash/src/ef_env.c ****  * @param value_buf ENV blob buffer
 944:easyflash/src/ef_env.c ****  * @param buf_len ENV blob buffer length
 945:easyflash/src/ef_env.c ****  * @param saved_value_len return the length of the value saved on the flash, 0: NOT found
 946:easyflash/src/ef_env.c ****  *
 947:easyflash/src/ef_env.c ****  * @return the actually get size on successful
 948:easyflash/src/ef_env.c ****  */
 949:easyflash/src/ef_env.c **** size_t ef_get_env_blob(const char *key, void *value_buf, size_t buf_len, size_t *saved_value_len)
 950:easyflash/src/ef_env.c **** {
 951:easyflash/src/ef_env.c ****     size_t read_len = 0;
 952:easyflash/src/ef_env.c **** 
 953:easyflash/src/ef_env.c ****     if (!init_ok)
 954:easyflash/src/ef_env.c ****     {
 955:easyflash/src/ef_env.c ****         EF_INFO("ENV isn't initialize OK.");
 956:easyflash/src/ef_env.c ****         return 0;
 957:easyflash/src/ef_env.c ****     }
 958:easyflash/src/ef_env.c **** 
 959:easyflash/src/ef_env.c ****     /* lock the ENV cache */
 960:easyflash/src/ef_env.c ****     ef_port_env_lock();
 961:easyflash/src/ef_env.c **** 
 962:easyflash/src/ef_env.c ****     read_len = get_env(key, value_buf, buf_len, saved_value_len);
 963:easyflash/src/ef_env.c **** 
 964:easyflash/src/ef_env.c ****     /* unlock the ENV cache */
 965:easyflash/src/ef_env.c ****     ef_port_env_unlock();
 966:easyflash/src/ef_env.c **** 
 967:easyflash/src/ef_env.c ****     return read_len;
 968:easyflash/src/ef_env.c **** }
 969:easyflash/src/ef_env.c **** 
 970:easyflash/src/ef_env.c **** /**
 971:easyflash/src/ef_env.c ****  * Get an ENV value by key name.
 972:easyflash/src/ef_env.c ****  *
 973:easyflash/src/ef_env.c ****  * @note this function is NOT supported reentrant
 974:easyflash/src/ef_env.c ****  * @note this function is DEPRECATED
 975:easyflash/src/ef_env.c ****  *
ARM GAS  /tmp/ccSGDQKw.s 			page 21


 976:easyflash/src/ef_env.c ****  * @param key ENV name
 977:easyflash/src/ef_env.c ****  *
 978:easyflash/src/ef_env.c ****  * @return value
 979:easyflash/src/ef_env.c ****  */
 980:easyflash/src/ef_env.c **** char *ef_get_env(const char *key)
 981:easyflash/src/ef_env.c **** {
 982:easyflash/src/ef_env.c ****     static char value[EF_STR_ENV_VALUE_MAX_SIZE + 1];
 983:easyflash/src/ef_env.c ****     size_t get_size;
 984:easyflash/src/ef_env.c **** 
 985:easyflash/src/ef_env.c ****     if ((get_size = ef_get_env_blob(key, value, EF_STR_ENV_VALUE_MAX_SIZE, NULL)) > 0)
 986:easyflash/src/ef_env.c ****     {
 987:easyflash/src/ef_env.c ****         /* the return value must be string */
 988:easyflash/src/ef_env.c ****         if (ef_is_str((uint8_t *)value, get_size))
 989:easyflash/src/ef_env.c ****         {
 990:easyflash/src/ef_env.c ****             value[get_size] = '\0';
 991:easyflash/src/ef_env.c ****             return value;
 992:easyflash/src/ef_env.c ****         }
 993:easyflash/src/ef_env.c ****         else
 994:easyflash/src/ef_env.c ****         {
 995:easyflash/src/ef_env.c ****             EF_INFO("Warning: The ENV value isn't string. Could not be returned");
 996:easyflash/src/ef_env.c ****             return NULL;
 997:easyflash/src/ef_env.c ****         }
 998:easyflash/src/ef_env.c ****     }
 999:easyflash/src/ef_env.c **** 
1000:easyflash/src/ef_env.c ****     return NULL;
1001:easyflash/src/ef_env.c **** }
1002:easyflash/src/ef_env.c **** 
1003:easyflash/src/ef_env.c **** /**
1004:easyflash/src/ef_env.c ****  * read the ENV value by ENV object
1005:easyflash/src/ef_env.c ****  *
1006:easyflash/src/ef_env.c ****  * @param env ENV object
1007:easyflash/src/ef_env.c ****  * @param value_buf the buffer for store ENV value
1008:easyflash/src/ef_env.c ****  * @param buf_len buffer length
1009:easyflash/src/ef_env.c ****  *
1010:easyflash/src/ef_env.c ****  * @return the actually read size on successful
1011:easyflash/src/ef_env.c ****  */
1012:easyflash/src/ef_env.c **** size_t ef_read_env_value(env_node_obj_t env, uint8_t *value_buf, size_t buf_len)
1013:easyflash/src/ef_env.c **** {
1014:easyflash/src/ef_env.c ****     size_t read_len = 0;
1015:easyflash/src/ef_env.c **** 
1016:easyflash/src/ef_env.c ****     EF_ASSERT(env);
1017:easyflash/src/ef_env.c ****     EF_ASSERT(value_buf);
1018:easyflash/src/ef_env.c **** 
1019:easyflash/src/ef_env.c ****     if (!init_ok)
1020:easyflash/src/ef_env.c ****     {
1021:easyflash/src/ef_env.c ****         EF_INFO("ENV isn't initialize OK.");
1022:easyflash/src/ef_env.c ****         return 0;
1023:easyflash/src/ef_env.c ****     }
1024:easyflash/src/ef_env.c **** 
1025:easyflash/src/ef_env.c ****     if (env->crc_is_ok)
1026:easyflash/src/ef_env.c ****     {
1027:easyflash/src/ef_env.c ****         /* lock the ENV cache */
1028:easyflash/src/ef_env.c ****         ef_port_env_lock();
1029:easyflash/src/ef_env.c **** 
1030:easyflash/src/ef_env.c ****         if (buf_len > env->value_len)
1031:easyflash/src/ef_env.c ****         {
1032:easyflash/src/ef_env.c ****             read_len = env->value_len;
ARM GAS  /tmp/ccSGDQKw.s 			page 22


1033:easyflash/src/ef_env.c ****         }
1034:easyflash/src/ef_env.c ****         else
1035:easyflash/src/ef_env.c ****         {
1036:easyflash/src/ef_env.c ****             read_len = buf_len;
1037:easyflash/src/ef_env.c ****         }
1038:easyflash/src/ef_env.c **** 
1039:easyflash/src/ef_env.c ****         ef_port_read(env->addr.value, (uint32_t *) value_buf, read_len);
1040:easyflash/src/ef_env.c ****         /* unlock the ENV cache */
1041:easyflash/src/ef_env.c ****         ef_port_env_unlock();
1042:easyflash/src/ef_env.c ****     }
1043:easyflash/src/ef_env.c **** 
1044:easyflash/src/ef_env.c ****     return read_len;
1045:easyflash/src/ef_env.c **** }
1046:easyflash/src/ef_env.c **** 
1047:easyflash/src/ef_env.c **** static EfErrCode write_env_hdr(uint32_t addr, env_hdr_data_t env_hdr)
1048:easyflash/src/ef_env.c **** {
1049:easyflash/src/ef_env.c ****     EfErrCode result = EF_NO_ERR;
1050:easyflash/src/ef_env.c ****     /* write the status will by write granularity */
1051:easyflash/src/ef_env.c ****     result = write_status(addr, env_hdr->status_table, ENV_STATUS_NUM, ENV_PRE_WRITE);
1052:easyflash/src/ef_env.c ****     if (result != EF_NO_ERR)
1053:easyflash/src/ef_env.c ****     {
1054:easyflash/src/ef_env.c ****         return result;
1055:easyflash/src/ef_env.c ****     }
1056:easyflash/src/ef_env.c ****     /* write other header data */
1057:easyflash/src/ef_env.c ****     result = ef_port_write(addr + ENV_MAGIC_OFFSET, &env_hdr->magic, sizeof(struct env_hdr_data) - 
1058:easyflash/src/ef_env.c **** 
1059:easyflash/src/ef_env.c ****     return result;
1060:easyflash/src/ef_env.c **** }
1061:easyflash/src/ef_env.c **** 
1062:easyflash/src/ef_env.c **** static EfErrCode format_sector(uint32_t addr, uint32_t combined_value)
1063:easyflash/src/ef_env.c **** {
1064:easyflash/src/ef_env.c ****     EfErrCode result = EF_NO_ERR;
1065:easyflash/src/ef_env.c ****     struct sector_hdr_data sec_hdr;
1066:easyflash/src/ef_env.c **** 
1067:easyflash/src/ef_env.c ****     EF_ASSERT(addr % SECTOR_SIZE == 0);
1068:easyflash/src/ef_env.c **** 
1069:easyflash/src/ef_env.c ****     result = ef_port_erase(addr, SECTOR_SIZE);
1070:easyflash/src/ef_env.c ****     if (result == EF_NO_ERR)
1071:easyflash/src/ef_env.c ****     {
1072:easyflash/src/ef_env.c ****         /* initialize the header data */
1073:easyflash/src/ef_env.c ****         memset(&sec_hdr, 0xFF, sizeof(struct sector_hdr_data));
1074:easyflash/src/ef_env.c ****         set_status(sec_hdr.status_table.store, SECTOR_STORE_STATUS_NUM, SECTOR_STORE_EMPTY);
1075:easyflash/src/ef_env.c ****         set_status(sec_hdr.status_table.dirty, SECTOR_DIRTY_STATUS_NUM, SECTOR_DIRTY_FALSE);
1076:easyflash/src/ef_env.c ****         sec_hdr.magic = SECTOR_MAGIC_WORD;
1077:easyflash/src/ef_env.c ****         sec_hdr.combined = combined_value;
1078:easyflash/src/ef_env.c ****         sec_hdr.reserved = 0xFFFFFFFF;
1079:easyflash/src/ef_env.c ****         /* save the header */
1080:easyflash/src/ef_env.c ****         result = ef_port_write(addr, (uint32_t *)&sec_hdr, sizeof(struct sector_hdr_data));
1081:easyflash/src/ef_env.c **** 
1082:easyflash/src/ef_env.c **** #ifdef EF_ENV_USING_CACHE
1083:easyflash/src/ef_env.c ****         /* delete the sector cache */
1084:easyflash/src/ef_env.c ****         update_sector_cache(addr, addr + SECTOR_SIZE);
1085:easyflash/src/ef_env.c **** #endif /* EF_ENV_USING_CACHE */
1086:easyflash/src/ef_env.c ****     }
1087:easyflash/src/ef_env.c **** 
1088:easyflash/src/ef_env.c ****     return result;
1089:easyflash/src/ef_env.c **** }
ARM GAS  /tmp/ccSGDQKw.s 			page 23


1090:easyflash/src/ef_env.c **** 
1091:easyflash/src/ef_env.c **** static EfErrCode update_sec_status(sector_meta_data_t sector, size_t new_env_len, bool *is_full)
1092:easyflash/src/ef_env.c **** {
1093:easyflash/src/ef_env.c ****     uint8_t status_table[STORE_STATUS_TABLE_SIZE];
1094:easyflash/src/ef_env.c ****     EfErrCode result = EF_NO_ERR;
1095:easyflash/src/ef_env.c ****     /* change the current sector status */
1096:easyflash/src/ef_env.c ****     if (sector->status.store == SECTOR_STORE_EMPTY)
1097:easyflash/src/ef_env.c ****     {
1098:easyflash/src/ef_env.c ****         /* change the sector status to using */
1099:easyflash/src/ef_env.c ****         result = write_status(sector->addr, status_table, SECTOR_STORE_STATUS_NUM, SECTOR_STORE_USI
1100:easyflash/src/ef_env.c ****     }
1101:easyflash/src/ef_env.c ****     else if (sector->status.store == SECTOR_STORE_USING)
1102:easyflash/src/ef_env.c ****     {
1103:easyflash/src/ef_env.c ****         /* check remain size */
1104:easyflash/src/ef_env.c ****         if (sector->remain < EF_SEC_REMAIN_THRESHOLD || sector->remain - new_env_len < EF_SEC_REMAI
1105:easyflash/src/ef_env.c ****         {
1106:easyflash/src/ef_env.c ****             /* change the sector status to full */
1107:easyflash/src/ef_env.c ****             result = write_status(sector->addr, status_table, SECTOR_STORE_STATUS_NUM, SECTOR_STORE
1108:easyflash/src/ef_env.c **** 
1109:easyflash/src/ef_env.c **** #ifdef EF_ENV_USING_CACHE
1110:easyflash/src/ef_env.c ****             /* delete the sector cache */
1111:easyflash/src/ef_env.c ****             update_sector_cache(sector->addr, sector->addr + SECTOR_SIZE);
1112:easyflash/src/ef_env.c **** #endif /* EF_ENV_USING_CACHE */
1113:easyflash/src/ef_env.c **** 
1114:easyflash/src/ef_env.c ****             if (is_full)
1115:easyflash/src/ef_env.c ****             {
1116:easyflash/src/ef_env.c ****                 *is_full = true;
1117:easyflash/src/ef_env.c ****             }
1118:easyflash/src/ef_env.c ****         }
1119:easyflash/src/ef_env.c ****         else if (is_full)
1120:easyflash/src/ef_env.c ****         {
1121:easyflash/src/ef_env.c ****             *is_full = false;
1122:easyflash/src/ef_env.c ****         }
1123:easyflash/src/ef_env.c ****     }
1124:easyflash/src/ef_env.c **** 
1125:easyflash/src/ef_env.c ****     return result;
1126:easyflash/src/ef_env.c **** }
1127:easyflash/src/ef_env.c **** 
1128:easyflash/src/ef_env.c **** static void sector_iterator(sector_meta_data_t sector, sector_store_status_t status, void *arg1, vo
1129:easyflash/src/ef_env.c ****                             bool (*callback)(sector_meta_data_t sector, void *arg1, void *arg2), bo
1130:easyflash/src/ef_env.c **** {
1131:easyflash/src/ef_env.c ****     uint32_t sec_addr;
1132:easyflash/src/ef_env.c **** 
1133:easyflash/src/ef_env.c ****     /* search all sectors */
1134:easyflash/src/ef_env.c ****     sector->addr = FAILED_ADDR;
1135:easyflash/src/ef_env.c ****     while ((sec_addr = get_next_sector_addr(sector)) != FAILED_ADDR)
1136:easyflash/src/ef_env.c ****     {
1137:easyflash/src/ef_env.c ****         read_sector_meta_data(sec_addr, sector, false);
1138:easyflash/src/ef_env.c ****         if (status == SECTOR_STORE_UNUSED || status == sector->status.store)
1139:easyflash/src/ef_env.c ****         {
1140:easyflash/src/ef_env.c ****             if (traversal_env)
1141:easyflash/src/ef_env.c ****             {
1142:easyflash/src/ef_env.c ****                 read_sector_meta_data(sec_addr, sector, traversal_env);
1143:easyflash/src/ef_env.c ****             }
1144:easyflash/src/ef_env.c ****             /* iterator is interrupted when callback return true */
1145:easyflash/src/ef_env.c ****             if (callback && callback(sector, arg1, arg2))
1146:easyflash/src/ef_env.c ****             {
ARM GAS  /tmp/ccSGDQKw.s 			page 24


1147:easyflash/src/ef_env.c ****                 return;
1148:easyflash/src/ef_env.c ****             }
1149:easyflash/src/ef_env.c ****         }
1150:easyflash/src/ef_env.c ****     }
1151:easyflash/src/ef_env.c **** }
1152:easyflash/src/ef_env.c **** 
1153:easyflash/src/ef_env.c **** static bool sector_statistics_cb(sector_meta_data_t sector, void *arg1, void *arg2)
1154:easyflash/src/ef_env.c **** {
1155:easyflash/src/ef_env.c ****     size_t *empty_sector = arg1, *using_sector = arg2;
1156:easyflash/src/ef_env.c **** 
1157:easyflash/src/ef_env.c ****     if (sector->check_ok && sector->status.store == SECTOR_STORE_EMPTY)
1158:easyflash/src/ef_env.c ****     {
1159:easyflash/src/ef_env.c ****         (*empty_sector)++;
1160:easyflash/src/ef_env.c ****     }
1161:easyflash/src/ef_env.c ****     else if (sector->check_ok && sector->status.store == SECTOR_STORE_USING)
1162:easyflash/src/ef_env.c ****     {
1163:easyflash/src/ef_env.c ****         (*using_sector)++;
1164:easyflash/src/ef_env.c ****     }
1165:easyflash/src/ef_env.c **** 
1166:easyflash/src/ef_env.c ****     return false;
1167:easyflash/src/ef_env.c **** }
1168:easyflash/src/ef_env.c **** 
1169:easyflash/src/ef_env.c **** static bool alloc_env_cb(sector_meta_data_t sector, void *arg1, void *arg2)
1170:easyflash/src/ef_env.c **** {
1171:easyflash/src/ef_env.c ****     size_t *env_size = arg1;
1172:easyflash/src/ef_env.c ****     uint32_t *empty_env = arg2;
1173:easyflash/src/ef_env.c **** 
1174:easyflash/src/ef_env.c ****     /* 1. sector has space
1175:easyflash/src/ef_env.c ****      * 2. the NO dirty sector
1176:easyflash/src/ef_env.c ****      * 3. the dirty sector only when the gc_request is false */
1177:easyflash/src/ef_env.c ****     if (sector->check_ok && sector->remain > *env_size
1178:easyflash/src/ef_env.c ****             && ((sector->status.dirty == SECTOR_DIRTY_FALSE)
1179:easyflash/src/ef_env.c ****                 || (sector->status.dirty == SECTOR_DIRTY_TRUE && !gc_request)))
1180:easyflash/src/ef_env.c ****     {
1181:easyflash/src/ef_env.c ****         *empty_env = sector->empty_env;
1182:easyflash/src/ef_env.c ****         return true;
1183:easyflash/src/ef_env.c ****     }
1184:easyflash/src/ef_env.c **** 
1185:easyflash/src/ef_env.c ****     return false;
1186:easyflash/src/ef_env.c **** }
1187:easyflash/src/ef_env.c **** 
1188:easyflash/src/ef_env.c **** static uint32_t alloc_env(sector_meta_data_t sector, size_t env_size)
1189:easyflash/src/ef_env.c **** {
1190:easyflash/src/ef_env.c ****     uint32_t empty_env = FAILED_ADDR;
1191:easyflash/src/ef_env.c ****     size_t empty_sector = 0, using_sector = 0;
1192:easyflash/src/ef_env.c **** 
1193:easyflash/src/ef_env.c ****     /* sector status statistics */
1194:easyflash/src/ef_env.c ****     sector_iterator(sector, SECTOR_STORE_UNUSED, &empty_sector, &using_sector, sector_statistics_cb
1195:easyflash/src/ef_env.c ****     if (using_sector > 0)
1196:easyflash/src/ef_env.c ****     {
1197:easyflash/src/ef_env.c ****         /* alloc the ENV from the using status sector first */
1198:easyflash/src/ef_env.c ****         sector_iterator(sector, SECTOR_STORE_USING, &env_size, &empty_env, alloc_env_cb, true);
1199:easyflash/src/ef_env.c ****     }
1200:easyflash/src/ef_env.c ****     if (empty_sector > 0 && empty_env == FAILED_ADDR)
1201:easyflash/src/ef_env.c ****     {
1202:easyflash/src/ef_env.c ****         if (empty_sector > EF_GC_EMPTY_SEC_THRESHOLD || gc_request)
1203:easyflash/src/ef_env.c ****         {
ARM GAS  /tmp/ccSGDQKw.s 			page 25


1204:easyflash/src/ef_env.c ****             sector_iterator(sector, SECTOR_STORE_EMPTY, &env_size, &empty_env, alloc_env_cb, true);
1205:easyflash/src/ef_env.c ****         }
1206:easyflash/src/ef_env.c ****         else
1207:easyflash/src/ef_env.c ****         {
1208:easyflash/src/ef_env.c ****             /* no space for new ENV now will GC and retry */
1209:easyflash/src/ef_env.c ****             EF_DEBUG("Trigger a GC check after alloc ENV failed.");
1210:easyflash/src/ef_env.c ****             gc_request = true;
1211:easyflash/src/ef_env.c ****         }
1212:easyflash/src/ef_env.c ****     }
1213:easyflash/src/ef_env.c **** 
1214:easyflash/src/ef_env.c ****     return empty_env;
1215:easyflash/src/ef_env.c **** }
1216:easyflash/src/ef_env.c **** 
1217:easyflash/src/ef_env.c **** static EfErrCode del_env(const char *key, env_node_obj_t old_env, bool complete_del)
1218:easyflash/src/ef_env.c **** {
1219:easyflash/src/ef_env.c ****     EfErrCode result = EF_NO_ERR;
1220:easyflash/src/ef_env.c ****     uint32_t dirty_status_addr;
1221:easyflash/src/ef_env.c ****     static bool last_is_complete_del = false;
1222:easyflash/src/ef_env.c **** 
1223:easyflash/src/ef_env.c **** #if (ENV_STATUS_TABLE_SIZE >= DIRTY_STATUS_TABLE_SIZE)
1224:easyflash/src/ef_env.c ****     uint8_t status_table[ENV_STATUS_TABLE_SIZE];
1225:easyflash/src/ef_env.c **** #else
1226:easyflash/src/ef_env.c ****     uint8_t status_table[DIRTY_STATUS_TABLE_SIZE];
1227:easyflash/src/ef_env.c **** #endif
1228:easyflash/src/ef_env.c **** 
1229:easyflash/src/ef_env.c ****     /* need find ENV */
1230:easyflash/src/ef_env.c ****     if (!old_env)
1231:easyflash/src/ef_env.c ****     {
1232:easyflash/src/ef_env.c ****         struct env_node_obj env;
1233:easyflash/src/ef_env.c ****         /* find ENV */
1234:easyflash/src/ef_env.c ****         if (find_env(key, &env))
1235:easyflash/src/ef_env.c ****         {
1236:easyflash/src/ef_env.c ****             old_env = &env;
1237:easyflash/src/ef_env.c ****         }
1238:easyflash/src/ef_env.c ****         else
1239:easyflash/src/ef_env.c ****         {
1240:easyflash/src/ef_env.c ****             EF_DEBUG("Not found '%s' in ENV.", key);
1241:easyflash/src/ef_env.c ****             return EF_ENV_NAME_ERR;
1242:easyflash/src/ef_env.c ****         }
1243:easyflash/src/ef_env.c ****     }
1244:easyflash/src/ef_env.c ****     /* change and save the new status */
1245:easyflash/src/ef_env.c ****     if (!complete_del)
1246:easyflash/src/ef_env.c ****     {
1247:easyflash/src/ef_env.c ****         result = write_status(old_env->addr.start, status_table, ENV_STATUS_NUM, ENV_PRE_DELETE);
1248:easyflash/src/ef_env.c ****         last_is_complete_del = true;
1249:easyflash/src/ef_env.c ****     }
1250:easyflash/src/ef_env.c ****     else
1251:easyflash/src/ef_env.c ****     {
1252:easyflash/src/ef_env.c ****         result = write_status(old_env->addr.start, status_table, ENV_STATUS_NUM, ENV_DELETED);
1253:easyflash/src/ef_env.c **** 
1254:easyflash/src/ef_env.c ****         if (!last_is_complete_del && result == EF_NO_ERR)
1255:easyflash/src/ef_env.c ****         {
1256:easyflash/src/ef_env.c **** #ifdef EF_ENV_USING_CACHE
1257:easyflash/src/ef_env.c ****             /* only delete the ENV in flash and cache when only using del_env(key, env, true) in ef
1258:easyflash/src/ef_env.c ****             update_env_cache(key, strlen(key), FAILED_ADDR);
1259:easyflash/src/ef_env.c **** #endif /* EF_ENV_USING_CACHE */
1260:easyflash/src/ef_env.c ****         }
ARM GAS  /tmp/ccSGDQKw.s 			page 26


1261:easyflash/src/ef_env.c **** 
1262:easyflash/src/ef_env.c ****         last_is_complete_del = false;
1263:easyflash/src/ef_env.c ****     }
1264:easyflash/src/ef_env.c **** 
1265:easyflash/src/ef_env.c ****     dirty_status_addr = EF_ALIGN_DOWN(old_env->addr.start, SECTOR_SIZE) + SECTOR_DIRTY_OFFSET;
1266:easyflash/src/ef_env.c ****     /* read and change the sector dirty status */
1267:easyflash/src/ef_env.c ****     if (result == EF_NO_ERR
1268:easyflash/src/ef_env.c ****             && read_status(dirty_status_addr, status_table, SECTOR_DIRTY_STATUS_NUM) == SECTOR_DIRT
1269:easyflash/src/ef_env.c ****     {
1270:easyflash/src/ef_env.c ****         result = write_status(dirty_status_addr, status_table, SECTOR_DIRTY_STATUS_NUM, SECTOR_DIRT
1271:easyflash/src/ef_env.c ****     }
1272:easyflash/src/ef_env.c **** 
1273:easyflash/src/ef_env.c ****     return result;
1274:easyflash/src/ef_env.c **** }
1275:easyflash/src/ef_env.c **** 
1276:easyflash/src/ef_env.c **** /*
1277:easyflash/src/ef_env.c ****  * move the ENV to new space
1278:easyflash/src/ef_env.c ****  */
1279:easyflash/src/ef_env.c **** static EfErrCode move_env(env_node_obj_t env)
1280:easyflash/src/ef_env.c **** {
1281:easyflash/src/ef_env.c ****     EfErrCode result = EF_NO_ERR;
1282:easyflash/src/ef_env.c ****     uint8_t status_table[ENV_STATUS_TABLE_SIZE];
1283:easyflash/src/ef_env.c ****     uint32_t env_addr;
1284:easyflash/src/ef_env.c ****     struct sector_meta_data sector;
1285:easyflash/src/ef_env.c **** 
1286:easyflash/src/ef_env.c ****     /* prepare to delete the current ENV */
1287:easyflash/src/ef_env.c ****     if (env->status == ENV_WRITE)
1288:easyflash/src/ef_env.c ****     {
1289:easyflash/src/ef_env.c ****         del_env(NULL, env, false);
1290:easyflash/src/ef_env.c ****     }
1291:easyflash/src/ef_env.c **** 
1292:easyflash/src/ef_env.c ****     if ((env_addr = alloc_env(&sector, env->len)) != FAILED_ADDR)
1293:easyflash/src/ef_env.c ****     {
1294:easyflash/src/ef_env.c ****         if (in_recovery_check)
1295:easyflash/src/ef_env.c ****         {
1296:easyflash/src/ef_env.c ****             struct env_node_obj env_bak;
1297:easyflash/src/ef_env.c ****             char name[EF_ENV_NAME_MAX + 1] = { 0 };
1298:easyflash/src/ef_env.c ****             strncpy(name, env->name, env->name_len);
1299:easyflash/src/ef_env.c ****             /* check the ENV in flash is already create success */
1300:easyflash/src/ef_env.c ****             if (find_env_no_cache(name, &env_bak))
1301:easyflash/src/ef_env.c ****             {
1302:easyflash/src/ef_env.c ****                 /* already create success, don't need to duplicate */
1303:easyflash/src/ef_env.c ****                 result = EF_NO_ERR;
1304:easyflash/src/ef_env.c ****                 goto __exit;
1305:easyflash/src/ef_env.c ****             }
1306:easyflash/src/ef_env.c ****         }
1307:easyflash/src/ef_env.c ****     }
1308:easyflash/src/ef_env.c ****     else
1309:easyflash/src/ef_env.c ****     {
1310:easyflash/src/ef_env.c ****         return EF_ENV_FULL;
1311:easyflash/src/ef_env.c ****     }
1312:easyflash/src/ef_env.c ****     /* start move the ENV */
1313:easyflash/src/ef_env.c ****     {
1314:easyflash/src/ef_env.c ****         uint8_t buf[32];
1315:easyflash/src/ef_env.c ****         size_t len, size, env_len = env->len;
1316:easyflash/src/ef_env.c **** 
1317:easyflash/src/ef_env.c ****         /* update the new ENV sector status first */
ARM GAS  /tmp/ccSGDQKw.s 			page 27


1318:easyflash/src/ef_env.c ****         update_sec_status(&sector, env->len, NULL);
1319:easyflash/src/ef_env.c **** 
1320:easyflash/src/ef_env.c ****         write_status(env_addr, status_table, ENV_STATUS_NUM, ENV_PRE_WRITE);
1321:easyflash/src/ef_env.c ****         env_len -= ENV_MAGIC_OFFSET;
1322:easyflash/src/ef_env.c ****         for (len = 0, size = 0; len < env_len; len += size)
1323:easyflash/src/ef_env.c ****         {
1324:easyflash/src/ef_env.c ****             if (len + sizeof(buf) < env_len)
1325:easyflash/src/ef_env.c ****             {
1326:easyflash/src/ef_env.c ****                 size = sizeof(buf);
1327:easyflash/src/ef_env.c ****             }
1328:easyflash/src/ef_env.c ****             else
1329:easyflash/src/ef_env.c ****             {
1330:easyflash/src/ef_env.c ****                 size = env_len - len;
1331:easyflash/src/ef_env.c ****             }
1332:easyflash/src/ef_env.c ****             ef_port_read(env->addr.start + ENV_MAGIC_OFFSET + len, (uint32_t *) buf, EF_WG_ALIGN(si
1333:easyflash/src/ef_env.c ****             result = ef_port_write(env_addr + ENV_MAGIC_OFFSET + len, (uint32_t *) buf, size);
1334:easyflash/src/ef_env.c ****         }
1335:easyflash/src/ef_env.c ****         write_status(env_addr, status_table, ENV_STATUS_NUM, ENV_WRITE);
1336:easyflash/src/ef_env.c **** 
1337:easyflash/src/ef_env.c **** #ifdef EF_ENV_USING_CACHE
1338:easyflash/src/ef_env.c ****         update_sector_cache(EF_ALIGN_DOWN(env_addr, SECTOR_SIZE),
1339:easyflash/src/ef_env.c ****                             env_addr + ENV_HDR_DATA_SIZE + EF_WG_ALIGN(env->name_len) + EF_WG_ALIGN
1340:easyflash/src/ef_env.c ****         update_env_cache(env->name, env->name_len, env_addr);
1341:easyflash/src/ef_env.c **** #endif /* EF_ENV_USING_CACHE */
1342:easyflash/src/ef_env.c ****     }
1343:easyflash/src/ef_env.c **** 
1344:easyflash/src/ef_env.c ****     EF_DEBUG("Moved the ENV (%.*s) from 0x%08X to 0x%08X.", env->name_len, env->name, env->addr.sta
1345:easyflash/src/ef_env.c **** 
1346:easyflash/src/ef_env.c **** __exit:
1347:easyflash/src/ef_env.c ****     del_env(NULL, env, true);
1348:easyflash/src/ef_env.c **** 
1349:easyflash/src/ef_env.c ****     return result;
1350:easyflash/src/ef_env.c **** }
1351:easyflash/src/ef_env.c **** 
1352:easyflash/src/ef_env.c **** static uint32_t new_env(sector_meta_data_t sector, size_t env_size)
1353:easyflash/src/ef_env.c **** {
1354:easyflash/src/ef_env.c ****     bool already_gc = false;
1355:easyflash/src/ef_env.c ****     uint32_t empty_env = FAILED_ADDR;
1356:easyflash/src/ef_env.c **** 
1357:easyflash/src/ef_env.c **** __retry:
1358:easyflash/src/ef_env.c **** 
1359:easyflash/src/ef_env.c ****     if ((empty_env = alloc_env(sector, env_size)) == FAILED_ADDR && gc_request && !already_gc)
1360:easyflash/src/ef_env.c ****     {
1361:easyflash/src/ef_env.c ****         EF_DEBUG("Warning: Alloc an ENV (size %d) failed when new ENV. Now will GC then retry.", en
1362:easyflash/src/ef_env.c ****         gc_collect();
1363:easyflash/src/ef_env.c ****         already_gc = true;
1364:easyflash/src/ef_env.c ****         goto __retry;
1365:easyflash/src/ef_env.c ****     }
1366:easyflash/src/ef_env.c **** 
1367:easyflash/src/ef_env.c ****     return empty_env;
1368:easyflash/src/ef_env.c **** }
1369:easyflash/src/ef_env.c **** 
1370:easyflash/src/ef_env.c **** static uint32_t new_env_by_kv(sector_meta_data_t sector, size_t key_len, size_t buf_len)
1371:easyflash/src/ef_env.c **** {
1372:easyflash/src/ef_env.c ****     size_t env_len = ENV_HDR_DATA_SIZE + EF_WG_ALIGN(key_len) + EF_WG_ALIGN(buf_len);
1373:easyflash/src/ef_env.c **** 
1374:easyflash/src/ef_env.c ****     return new_env(sector, env_len);
ARM GAS  /tmp/ccSGDQKw.s 			page 28


1375:easyflash/src/ef_env.c **** }
1376:easyflash/src/ef_env.c **** 
1377:easyflash/src/ef_env.c **** static bool gc_check_cb(sector_meta_data_t sector, void *arg1, void *arg2)
1378:easyflash/src/ef_env.c **** {
 143              		.loc 1 1378 1 is_stmt 1 view -0
 144              		.cfi_startproc
 145              		@ args = 0, pretend = 0, frame = 0
 146              		@ frame_needed = 0, uses_anonymous_args = 0
 147              		@ link register save eliminated.
1379:easyflash/src/ef_env.c ****     size_t *empty_sec = arg1;
 148              		.loc 1 1379 5 view .LVU44
1380:easyflash/src/ef_env.c **** 
1381:easyflash/src/ef_env.c ****     if (sector->check_ok)
 149              		.loc 1 1381 8 is_stmt 0 view .LVU45
 150 0000 0378     		ldrb	r3, [r0]	@ zero_extendqisi2
 151              	.LVL10:
 152              		.loc 1 1381 5 is_stmt 1 view .LVU46
 153              		.loc 1 1381 8 is_stmt 0 view .LVU47
 154 0002 13B1     		cbz	r3, .L17
1382:easyflash/src/ef_env.c ****     {
1383:easyflash/src/ef_env.c ****         *empty_sec = *empty_sec + 1;
 155              		.loc 1 1383 9 is_stmt 1 view .LVU48
 156              		.loc 1 1383 33 is_stmt 0 view .LVU49
 157 0004 0B68     		ldr	r3, [r1]
 158 0006 0133     		adds	r3, r3, #1
 159              		.loc 1 1383 20 view .LVU50
 160 0008 0B60     		str	r3, [r1]
 161              	.L17:
1384:easyflash/src/ef_env.c ****     }
1385:easyflash/src/ef_env.c **** 
1386:easyflash/src/ef_env.c ****     return false;
 162              		.loc 1 1386 5 is_stmt 1 view .LVU51
1387:easyflash/src/ef_env.c **** 
1388:easyflash/src/ef_env.c **** }
 163              		.loc 1 1388 1 is_stmt 0 view .LVU52
 164 000a 0020     		movs	r0, #0
 165              	.LVL11:
 166              		.loc 1 1388 1 view .LVU53
 167 000c 7047     		bx	lr
 168              		.cfi_endproc
 169              	.LFE270:
 171 000e 00BF     		.section	.text.update_env_cache,"ax",%progbits
 172              		.align	1
 173              		.p2align 2,,3
 174              		.syntax unified
 175              		.thumb
 176              		.thumb_func
 178              	update_env_cache:
 179              	.LVL12:
 180              	.LFB241:
 378:easyflash/src/ef_env.c ****     size_t i, empty_index = EF_ENV_CACHE_TABLE_SIZE, min_activity_index = EF_ENV_CACHE_TABLE_SIZE;
 181              		.loc 1 378 1 is_stmt 1 view -0
 182              		.cfi_startproc
 183              		@ args = 0, pretend = 0, frame = 0
 184              		@ frame_needed = 0, uses_anonymous_args = 0
 379:easyflash/src/ef_env.c ****     uint16_t name_crc = (uint16_t)(ef_calc_crc32(0, name, name_len) >> 16), min_activity = 0xFFFF;
 185              		.loc 1 379 5 view .LVU55
ARM GAS  /tmp/ccSGDQKw.s 			page 29


 380:easyflash/src/ef_env.c **** 
 186              		.loc 1 380 5 view .LVU56
 378:easyflash/src/ef_env.c ****     size_t i, empty_index = EF_ENV_CACHE_TABLE_SIZE, min_activity_index = EF_ENV_CACHE_TABLE_SIZE;
 187              		.loc 1 378 1 is_stmt 0 view .LVU57
 188 0000 F8B5     		push	{r3, r4, r5, r6, r7, lr}
 189              		.cfi_def_cfa_offset 24
 190              		.cfi_offset 3, -24
 191              		.cfi_offset 4, -20
 192              		.cfi_offset 5, -16
 193              		.cfi_offset 6, -12
 194              		.cfi_offset 7, -8
 195              		.cfi_offset 14, -4
 378:easyflash/src/ef_env.c ****     size_t i, empty_index = EF_ENV_CACHE_TABLE_SIZE, min_activity_index = EF_ENV_CACHE_TABLE_SIZE;
 196              		.loc 1 378 1 view .LVU58
 197 0002 0B46     		mov	r3, r1
 198 0004 1546     		mov	r5, r2
 380:easyflash/src/ef_env.c **** 
 199              		.loc 1 380 36 view .LVU59
 200 0006 0146     		mov	r1, r0
 201              	.LVL13:
 380:easyflash/src/ef_env.c **** 
 202              		.loc 1 380 36 view .LVU60
 203 0008 1A46     		mov	r2, r3
 204              	.LVL14:
 380:easyflash/src/ef_env.c **** 
 205              		.loc 1 380 36 view .LVU61
 206 000a 0020     		movs	r0, #0
 207              	.LVL15:
 380:easyflash/src/ef_env.c **** 
 208              		.loc 1 380 36 view .LVU62
 209 000c FFF7FEFF 		bl	ef_calc_crc32
 210              	.LVL16:
 380:easyflash/src/ef_env.c **** 
 211              		.loc 1 380 36 view .LVU63
 212 0010 244F     		ldr	r7, .L43
 379:easyflash/src/ef_env.c ****     uint16_t name_crc = (uint16_t)(ef_calc_crc32(0, name, name_len) >> 16), min_activity = 0xFFFF;
 213              		.loc 1 379 54 view .LVU64
 214 0012 1026     		movs	r6, #16
 380:easyflash/src/ef_env.c **** 
 215              		.loc 1 380 14 view .LVU65
 216 0014 000C     		lsrs	r0, r0, #16
 217              	.LVL17:
 382:easyflash/src/ef_env.c ****     {
 218              		.loc 1 382 5 is_stmt 1 view .LVU66
 382:easyflash/src/ef_env.c ****     {
 219              		.loc 1 382 17 view .LVU67
 220 0016 3B46     		mov	r3, r7
 380:easyflash/src/ef_env.c **** 
 221              		.loc 1 380 77 is_stmt 0 view .LVU68
 222 0018 4FF6FF7E 		movw	lr, #65535
 379:easyflash/src/ef_env.c ****     uint16_t name_crc = (uint16_t)(ef_calc_crc32(0, name, name_len) >> 16), min_activity = 0xFFFF;
 223              		.loc 1 379 15 view .LVU69
 224 001c B446     		mov	ip, r6
 382:easyflash/src/ef_env.c ****     {
 225              		.loc 1 382 12 view .LVU70
 226 001e 0021     		movs	r1, #0
 227 0020 12E0     		b	.L29
ARM GAS  /tmp/ccSGDQKw.s 			page 30


 228              	.LVL18:
 229              	.L42:
 387:easyflash/src/ef_env.c ****             {
 230              		.loc 1 387 16 view .LVU71
 231 0022 8242     		cmp	r2, r0
 232 0024 39D0     		beq	.L39
 392:easyflash/src/ef_env.c ****             {
 233              		.loc 1 392 21 view .LVU72
 234 0026 5A68     		ldr	r2, [r3, #4]
 235 0028 0132     		adds	r2, r2, #1
 236 002a 18D0     		beq	.L40
 400:easyflash/src/ef_env.c ****                 }
 237              		.loc 1 400 21 is_stmt 1 view .LVU73
 398:easyflash/src/ef_env.c ****                 {
 238              		.loc 1 398 39 is_stmt 0 view .LVU74
 239 002c 5C88     		ldrh	r4, [r3, #2]
 398:easyflash/src/ef_env.c ****                 {
 240              		.loc 1 398 20 view .LVU75
 241 002e 14B1     		cbz	r4, .L28
 400:easyflash/src/ef_env.c ****                 }
 242              		.loc 1 400 46 view .LVU76
 243 0030 013C     		subs	r4, r4, #1
 244 0032 A4B2     		uxth	r4, r4
 245 0034 5C80     		strh	r4, [r3, #2]	@ movhi
 246              	.L28:
 402:easyflash/src/ef_env.c ****                 {
 247              		.loc 1 402 20 view .LVU77
 248 0036 7445     		cmp	r4, lr
 249 0038 01D2     		bcs	.L27
 250 003a A646     		mov	lr, r4
 251              	.LVL19:
 402:easyflash/src/ef_env.c ****                 {
 252              		.loc 1 402 20 view .LVU78
 253 003c 0E46     		mov	r6, r1
 254              	.L27:
 255              	.LVL20:
 382:easyflash/src/ef_env.c ****     {
 256              		.loc 1 382 46 is_stmt 1 discriminator 2 view .LVU79
 382:easyflash/src/ef_env.c ****     {
 257              		.loc 1 382 47 is_stmt 0 discriminator 2 view .LVU80
 258 003e 0131     		adds	r1, r1, #1
 259              	.LVL21:
 382:easyflash/src/ef_env.c ****     {
 260              		.loc 1 382 17 is_stmt 1 discriminator 2 view .LVU81
 382:easyflash/src/ef_env.c ****     {
 261              		.loc 1 382 5 is_stmt 0 discriminator 2 view .LVU82
 262 0040 1029     		cmp	r1, #16
 263 0042 03F10803 		add	r3, r3, #8
 264 0046 13D0     		beq	.L41
 265              	.LVL22:
 266              	.L29:
 384:easyflash/src/ef_env.c ****         {
 267              		.loc 1 384 9 is_stmt 1 view .LVU83
 387:easyflash/src/ef_env.c ****             {
 268              		.loc 1 387 13 view .LVU84
 392:easyflash/src/ef_env.c ****             {
 269              		.loc 1 392 18 view .LVU85
ARM GAS  /tmp/ccSGDQKw.s 			page 31


 396:easyflash/src/ef_env.c ****             {
 270              		.loc 1 396 18 view .LVU86
 398:easyflash/src/ef_env.c ****                 {
 271              		.loc 1 398 17 view .LVU87
 402:easyflash/src/ef_env.c ****                 {
 272              		.loc 1 402 17 view .LVU88
 384:easyflash/src/ef_env.c ****         {
 273              		.loc 1 384 12 is_stmt 0 view .LVU89
 274 0048 6C1C     		adds	r4, r5, #1
 387:easyflash/src/ef_env.c ****             {
 275              		.loc 1 387 16 view .LVU90
 276 004a 1A88     		ldrh	r2, [r3]
 384:easyflash/src/ef_env.c ****         {
 277              		.loc 1 384 12 view .LVU91
 278 004c E9D1     		bne	.L42
 409:easyflash/src/ef_env.c ****         {
 279              		.loc 1 409 14 is_stmt 1 view .LVU92
 409:easyflash/src/ef_env.c ****         {
 280              		.loc 1 409 17 is_stmt 0 view .LVU93
 281 004e 8242     		cmp	r2, r0
 282 0050 F5D1     		bne	.L27
 412:easyflash/src/ef_env.c ****             env_cache_table[i].active = 0;
 283              		.loc 1 412 13 is_stmt 1 view .LVU94
 412:easyflash/src/ef_env.c ****             env_cache_table[i].active = 0;
 284              		.loc 1 412 37 is_stmt 0 view .LVU95
 285 0052 07EBC101 		add	r1, r7, r1, lsl #3
 286              	.LVL23:
 413:easyflash/src/ef_env.c ****             return;
 287              		.loc 1 413 39 view .LVU96
 288 0056 0023     		movs	r3, #0
 412:easyflash/src/ef_env.c ****             env_cache_table[i].active = 0;
 289              		.loc 1 412 37 view .LVU97
 290 0058 4D60     		str	r5, [r1, #4]
 413:easyflash/src/ef_env.c ****             return;
 291              		.loc 1 413 13 is_stmt 1 view .LVU98
 413:easyflash/src/ef_env.c ****             return;
 292              		.loc 1 413 39 is_stmt 0 view .LVU99
 293 005a 4B80     		strh	r3, [r1, #2]	@ movhi
 414:easyflash/src/ef_env.c ****         }
 294              		.loc 1 414 13 is_stmt 1 view .LVU100
 295              	.L21:
 430:easyflash/src/ef_env.c **** 
 296              		.loc 1 430 1 is_stmt 0 view .LVU101
 297 005c F8BD     		pop	{r3, r4, r5, r6, r7, pc}
 298              	.LVL24:
 299              	.L40:
 392:easyflash/src/ef_env.c ****             {
 300              		.loc 1 392 63 discriminator 1 view .LVU102
 301 005e BCF1100F 		cmp	ip, #16
 302 0062 08BF     		it	eq
 303 0064 8C46     		moveq	ip, r1
 304              	.LVL25:
 382:easyflash/src/ef_env.c ****     {
 305              		.loc 1 382 46 is_stmt 1 discriminator 1 view .LVU103
 382:easyflash/src/ef_env.c ****     {
 306              		.loc 1 382 47 is_stmt 0 discriminator 1 view .LVU104
 307 0066 0131     		adds	r1, r1, #1
ARM GAS  /tmp/ccSGDQKw.s 			page 32


 308              	.LVL26:
 382:easyflash/src/ef_env.c ****     {
 309              		.loc 1 382 17 is_stmt 1 discriminator 1 view .LVU105
 382:easyflash/src/ef_env.c ****     {
 310              		.loc 1 382 5 is_stmt 0 discriminator 1 view .LVU106
 311 0068 1029     		cmp	r1, #16
 312 006a 03F10803 		add	r3, r3, #8
 313 006e EBD1     		bne	.L29
 314              	.L41:
 418:easyflash/src/ef_env.c ****     {
 315              		.loc 1 418 5 is_stmt 1 view .LVU107
 418:easyflash/src/ef_env.c ****     {
 316              		.loc 1 418 8 is_stmt 0 view .LVU108
 317 0070 BCF1100F 		cmp	ip, #16
 318 0074 07D0     		beq	.L30
 420:easyflash/src/ef_env.c ****         env_cache_table[empty_index].name_crc = name_crc;
 319              		.loc 1 420 9 is_stmt 1 view .LVU109
 420:easyflash/src/ef_env.c ****         env_cache_table[empty_index].name_crc = name_crc;
 320              		.loc 1 420 43 is_stmt 0 view .LVU110
 321 0076 07EBCC03 		add	r3, r7, ip, lsl #3
 422:easyflash/src/ef_env.c ****     }
 322              		.loc 1 422 45 view .LVU111
 323 007a 0022     		movs	r2, #0
 421:easyflash/src/ef_env.c ****         env_cache_table[empty_index].active = 0;
 324              		.loc 1 421 47 view .LVU112
 325 007c 27F83C00 		strh	r0, [r7, ip, lsl #3]	@ movhi
 420:easyflash/src/ef_env.c ****         env_cache_table[empty_index].name_crc = name_crc;
 326              		.loc 1 420 43 view .LVU113
 327 0080 5D60     		str	r5, [r3, #4]
 421:easyflash/src/ef_env.c ****         env_cache_table[empty_index].active = 0;
 328              		.loc 1 421 9 is_stmt 1 view .LVU114
 422:easyflash/src/ef_env.c ****     }
 329              		.loc 1 422 9 view .LVU115
 422:easyflash/src/ef_env.c ****     }
 330              		.loc 1 422 45 is_stmt 0 view .LVU116
 331 0082 5A80     		strh	r2, [r3, #2]	@ movhi
 430:easyflash/src/ef_env.c **** 
 332              		.loc 1 430 1 view .LVU117
 333 0084 F8BD     		pop	{r3, r4, r5, r6, r7, pc}
 334              	.LVL27:
 335              	.L30:
 424:easyflash/src/ef_env.c ****     {
 336              		.loc 1 424 10 is_stmt 1 view .LVU118
 424:easyflash/src/ef_env.c ****     {
 337              		.loc 1 424 13 is_stmt 0 view .LVU119
 338 0086 102E     		cmp	r6, #16
 339 0088 E8D0     		beq	.L21
 426:easyflash/src/ef_env.c ****         env_cache_table[min_activity_index].name_crc = name_crc;
 340              		.loc 1 426 9 is_stmt 1 view .LVU120
 426:easyflash/src/ef_env.c ****         env_cache_table[min_activity_index].name_crc = name_crc;
 341              		.loc 1 426 50 is_stmt 0 view .LVU121
 342 008a 07EBC603 		add	r3, r7, r6, lsl #3
 428:easyflash/src/ef_env.c ****     }
 343              		.loc 1 428 52 view .LVU122
 344 008e 0022     		movs	r2, #0
 427:easyflash/src/ef_env.c ****         env_cache_table[min_activity_index].active = 0;
 345              		.loc 1 427 54 view .LVU123
ARM GAS  /tmp/ccSGDQKw.s 			page 33


 346 0090 27F83600 		strh	r0, [r7, r6, lsl #3]	@ movhi
 426:easyflash/src/ef_env.c ****         env_cache_table[min_activity_index].name_crc = name_crc;
 347              		.loc 1 426 50 view .LVU124
 348 0094 5D60     		str	r5, [r3, #4]
 427:easyflash/src/ef_env.c ****         env_cache_table[min_activity_index].active = 0;
 349              		.loc 1 427 9 is_stmt 1 view .LVU125
 428:easyflash/src/ef_env.c ****     }
 350              		.loc 1 428 9 view .LVU126
 428:easyflash/src/ef_env.c ****     }
 351              		.loc 1 428 52 is_stmt 0 view .LVU127
 352 0096 5A80     		strh	r2, [r3, #2]	@ movhi
 430:easyflash/src/ef_env.c **** 
 353              		.loc 1 430 1 view .LVU128
 354 0098 F8BD     		pop	{r3, r4, r5, r6, r7, pc}
 355              	.LVL28:
 356              	.L39:
 389:easyflash/src/ef_env.c ****                 return;
 357              		.loc 1 389 17 is_stmt 1 view .LVU129
 389:easyflash/src/ef_env.c ****                 return;
 358              		.loc 1 389 41 is_stmt 0 view .LVU130
 359 009a 07EBC101 		add	r1, r7, r1, lsl #3
 360              	.LVL29:
 389:easyflash/src/ef_env.c ****                 return;
 361              		.loc 1 389 41 view .LVU131
 362 009e 4D60     		str	r5, [r1, #4]
 390:easyflash/src/ef_env.c ****             }
 363              		.loc 1 390 17 is_stmt 1 view .LVU132
 430:easyflash/src/ef_env.c **** 
 364              		.loc 1 430 1 is_stmt 0 view .LVU133
 365 00a0 F8BD     		pop	{r3, r4, r5, r6, r7, pc}
 366              	.LVL30:
 367              	.L44:
 430:easyflash/src/ef_env.c **** 
 368              		.loc 1 430 1 view .LVU134
 369 00a2 00BF     		.align	2
 370              	.L43:
 371 00a4 00000000 		.word	.LANCHOR1
 372              		.cfi_endproc
 373              	.LFE241:
 375              		.section	.text.find_next_env_addr,"ax",%progbits
 376              		.align	1
 377              		.p2align 2,,3
 378              		.syntax unified
 379              		.thumb
 380              		.thumb_func
 382              	find_next_env_addr:
 383              	.LVL31:
 384              	.LFB244:
 510:easyflash/src/ef_env.c ****     uint8_t buf[32];
 385              		.loc 1 510 1 is_stmt 1 view -0
 386              		.cfi_startproc
 387              		@ args = 0, pretend = 0, frame = 32
 388              		@ frame_needed = 0, uses_anonymous_args = 0
 511:easyflash/src/ef_env.c ****     uint32_t start_bak = start, i;
 389              		.loc 1 511 5 view .LVU136
 512:easyflash/src/ef_env.c ****     uint32_t magic;
 390              		.loc 1 512 5 view .LVU137
ARM GAS  /tmp/ccSGDQKw.s 			page 34


 510:easyflash/src/ef_env.c ****     uint8_t buf[32];
 391              		.loc 1 510 1 is_stmt 0 view .LVU138
 392 0000 2DE9F041 		push	{r4, r5, r6, r7, r8, lr}
 393              		.cfi_def_cfa_offset 24
 394              		.cfi_offset 4, -24
 395              		.cfi_offset 5, -20
 396              		.cfi_offset 6, -16
 397              		.cfi_offset 7, -12
 398              		.cfi_offset 8, -8
 399              		.cfi_offset 14, -4
 400 0004 0746     		mov	r7, r0
 401              	.LVL32:
 513:easyflash/src/ef_env.c **** 
 402              		.loc 1 513 5 is_stmt 1 view .LVU139
 516:easyflash/src/ef_env.c **** 
 403              		.loc 1 516 5 view .LVU140
 518:easyflash/src/ef_env.c ****     {
 404              		.loc 1 518 5 view .LVU141
 405 0006 224D     		ldr	r5, .L62
 518:easyflash/src/ef_env.c ****     {
 406              		.loc 1 518 9 is_stmt 0 view .LVU142
 407 0008 400C     		lsrs	r0, r0, #17
 408              	.LVL33:
 510:easyflash/src/ef_env.c ****     uint8_t buf[32];
 409              		.loc 1 510 1 view .LVU143
 410 000a 88B0     		sub	sp, sp, #32
 411              		.cfi_def_cfa_offset 56
 510:easyflash/src/ef_env.c ****     uint8_t buf[32];
 412              		.loc 1 510 1 view .LVU144
 413 000c 0C46     		mov	r4, r1
 518:easyflash/src/ef_env.c ****     {
 414              		.loc 1 518 9 view .LVU145
 415 000e 4004     		lsls	r0, r0, #17
 416              	.LVL34:
 417              	.LBB35:
 418              	.LBI35:
 358:easyflash/src/ef_env.c **** {
 419              		.loc 1 358 13 is_stmt 1 view .LVU146
 420              	.LBB36:
 360:easyflash/src/ef_env.c **** 
 421              		.loc 1 360 5 view .LVU147
 362:easyflash/src/ef_env.c ****     {
 422              		.loc 1 362 5 view .LVU148
 362:easyflash/src/ef_env.c ****     {
 423              		.loc 1 362 17 view .LVU149
 362:easyflash/src/ef_env.c ****     {
 424              		.loc 1 362 12 is_stmt 0 view .LVU150
 425 0010 0023     		movs	r3, #0
 426              	.LVL35:
 427              	.L49:
 364:easyflash/src/ef_env.c ****         {
 428              		.loc 1 364 9 is_stmt 1 view .LVU151
 362:easyflash/src/ef_env.c ****     {
 429              		.loc 1 362 49 view .LVU152
 364:easyflash/src/ef_env.c ****         {
 430              		.loc 1 364 12 is_stmt 0 view .LVU153
 431 0012 55F83320 		ldr	r2, [r5, r3, lsl #3]
ARM GAS  /tmp/ccSGDQKw.s 			page 35


 432 0016 9042     		cmp	r0, r2
 433 0018 34D0     		beq	.L61
 362:easyflash/src/ef_env.c ****     {
 434              		.loc 1 362 50 view .LVU154
 435 001a 0133     		adds	r3, r3, #1
 436              	.LVL36:
 362:easyflash/src/ef_env.c ****     {
 437              		.loc 1 362 17 is_stmt 1 view .LVU155
 362:easyflash/src/ef_env.c ****     {
 438              		.loc 1 362 5 is_stmt 0 view .LVU156
 439 001c 042B     		cmp	r3, #4
 440 001e F8D1     		bne	.L49
 441              	.LVL37:
 442              	.L50:
 362:easyflash/src/ef_env.c ****     {
 443              		.loc 1 362 5 view .LVU157
 444              	.LBE36:
 445              	.LBE35:
 524:easyflash/src/ef_env.c ****     {
 446              		.loc 1 524 12 is_stmt 1 discriminator 1 view .LVU158
 524:easyflash/src/ef_env.c ****     {
 447              		.loc 1 524 5 is_stmt 0 discriminator 1 view .LVU159
 448 0020 A742     		cmp	r7, r4
 449 0022 2AD2     		bcs	.L47
 534:easyflash/src/ef_env.c ****             {
 450              		.loc 1 534 16 view .LVU160
 451 0024 1B4D     		ldr	r5, .L62+4
 524:easyflash/src/ef_env.c ****     {
 452              		.loc 1 524 5 view .LVU161
 453 0026 B846     		mov	r8, r7
 454 0028 07AE     		add	r6, sp, #28
 455              	.LVL38:
 456              	.L48:
 526:easyflash/src/ef_env.c ****         for (i = 0; i < sizeof(buf) - sizeof(uint32_t) && start + i < end; i++)
 457              		.loc 1 526 9 is_stmt 1 view .LVU162
 458 002a 2022     		movs	r2, #32
 459 002c 6946     		mov	r1, sp
 460 002e 4046     		mov	r0, r8
 461 0030 FFF7FEFF 		bl	ef_port_read
 462              	.LVL39:
 527:easyflash/src/ef_env.c ****         {
 463              		.loc 1 527 9 view .LVU163
 527:easyflash/src/ef_env.c ****         {
 464              		.loc 1 527 21 view .LVU164
 465 0034 A8F11400 		sub	r0, r8, #20
 466 0038 6A46     		mov	r2, sp
 467 003a 03E0     		b	.L51
 468              	.LVL40:
 469              	.L52:
 527:easyflash/src/ef_env.c ****         {
 470              		.loc 1 527 9 is_stmt 0 discriminator 1 view .LVU165
 471 003c 9642     		cmp	r6, r2
 472 003e 00F10100 		add	r0, r0, #1
 473 0042 16D0     		beq	.L54
 474              	.LVL41:
 475              	.L51:
 530:easyflash/src/ef_env.c **** #else                       /* Big Endian Order */
ARM GAS  /tmp/ccSGDQKw.s 			page 36


 476              		.loc 1 530 13 is_stmt 1 discriminator 3 view .LVU166
 527:easyflash/src/ef_env.c ****         {
 477              		.loc 1 527 21 discriminator 3 view .LVU167
 527:easyflash/src/ef_env.c ****         {
 478              		.loc 1 527 56 is_stmt 0 discriminator 3 view .LVU168
 479 0044 00F11403 		add	r3, r0, #20
 480 0048 9C42     		cmp	r4, r3
 481 004a 12D9     		bls	.L54
 530:easyflash/src/ef_env.c **** #else                       /* Big Endian Order */
 482              		.loc 1 530 24 view .LVU169
 483 004c 1378     		ldrb	r3, [r2]	@ zero_extendqisi2
 484              	.LVL42:
 534:easyflash/src/ef_env.c ****             {
 485              		.loc 1 534 13 is_stmt 1 view .LVU170
 530:easyflash/src/ef_env.c **** #else                       /* Big Endian Order */
 486              		.loc 1 530 34 is_stmt 0 view .LVU171
 487 004e 12F801EF 		ldrb	lr, [r2, #1]!	@ zero_extendqisi2
 488              	.LVL43:
 530:easyflash/src/ef_env.c **** #else                       /* Big Endian Order */
 489              		.loc 1 530 54 view .LVU172
 490 0052 92F801C0 		ldrb	ip, [r2, #1]	@ zero_extendqisi2
 530:easyflash/src/ef_env.c **** #else                       /* Big Endian Order */
 491              		.loc 1 530 75 view .LVU173
 492 0056 9178     		ldrb	r1, [r2, #2]	@ zero_extendqisi2
 530:easyflash/src/ef_env.c **** #else                       /* Big Endian Order */
 493              		.loc 1 530 28 view .LVU174
 494 0058 03EB0E23 		add	r3, r3, lr, lsl #8
 495              	.LVL44:
 530:easyflash/src/ef_env.c **** #else                       /* Big Endian Order */
 496              		.loc 1 530 48 view .LVU175
 497 005c 03EB0C43 		add	r3, r3, ip, lsl #16
 530:easyflash/src/ef_env.c **** #else                       /* Big Endian Order */
 498              		.loc 1 530 69 view .LVU176
 499 0060 03EB0163 		add	r3, r3, r1, lsl #24
 534:easyflash/src/ef_env.c ****             {
 500              		.loc 1 534 16 view .LVU177
 501 0064 AB42     		cmp	r3, r5
 502 0066 E9D1     		bne	.L52
 534:easyflash/src/ef_env.c ****             {
 503              		.loc 1 534 41 discriminator 1 view .LVU178
 504 0068 8742     		cmp	r7, r0
 505 006a E7D8     		bhi	.L52
 542:easyflash/src/ef_env.c **** 
 506              		.loc 1 542 1 view .LVU179
 507 006c 08B0     		add	sp, sp, #32
 508              		.cfi_remember_state
 509              		.cfi_def_cfa_offset 24
 510              		@ sp needed
 511 006e BDE8F081 		pop	{r4, r5, r6, r7, r8, pc}
 512              	.LVL45:
 513              	.L54:
 514              		.cfi_restore_state
 524:easyflash/src/ef_env.c ****     {
 515              		.loc 1 524 25 is_stmt 1 view .LVU180
 524:easyflash/src/ef_env.c ****     {
 516              		.loc 1 524 31 is_stmt 0 view .LVU181
 517 0072 08F11C08 		add	r8, r8, #28
ARM GAS  /tmp/ccSGDQKw.s 			page 37


 518              	.LVL46:
 524:easyflash/src/ef_env.c ****     {
 519              		.loc 1 524 12 is_stmt 1 view .LVU182
 524:easyflash/src/ef_env.c ****     {
 520              		.loc 1 524 5 is_stmt 0 view .LVU183
 521 0076 4445     		cmp	r4, r8
 522 0078 D7D8     		bhi	.L48
 523              	.LVL47:
 524              	.L47:
 520:easyflash/src/ef_env.c ****     }
 525              		.loc 1 520 16 view .LVU184
 526 007a 4FF0FF30 		mov	r0, #-1
 542:easyflash/src/ef_env.c **** 
 527              		.loc 1 542 1 view .LVU185
 528 007e 08B0     		add	sp, sp, #32
 529              		.cfi_remember_state
 530              		.cfi_def_cfa_offset 24
 531              		@ sp needed
 532 0080 BDE8F081 		pop	{r4, r5, r6, r7, r8, pc}
 533              	.LVL48:
 534              	.L61:
 535              		.cfi_restore_state
 536              	.LBB38:
 537              	.LBB37:
 366:easyflash/src/ef_env.c ****             {
 538              		.loc 1 366 13 is_stmt 1 view .LVU186
 368:easyflash/src/ef_env.c ****             }
 539              		.loc 1 368 17 view .LVU187
 368:easyflash/src/ef_env.c ****             }
 540              		.loc 1 368 52 is_stmt 0 view .LVU188
 541 0084 05EBC303 		add	r3, r5, r3, lsl #3
 542              	.LVL49:
 368:easyflash/src/ef_env.c ****             }
 543              		.loc 1 368 52 view .LVU189
 544              	.LBE37:
 545              	.LBE38:
 518:easyflash/src/ef_env.c ****     {
 546              		.loc 1 518 78 view .LVU190
 547 0088 5B68     		ldr	r3, [r3, #4]
 548 008a 9F42     		cmp	r7, r3
 549 008c C8D1     		bne	.L50
 550 008e F4E7     		b	.L47
 551              	.L63:
 552              		.align	2
 553              	.L62:
 554 0090 00000000 		.word	.LANCHOR0
 555 0094 4B563430 		.word	808736331
 556              		.cfi_endproc
 557              	.LFE244:
 559              		.section	.text.get_next_env_addr,"ax",%progbits
 560              		.align	1
 561              		.p2align 2,,3
 562              		.syntax unified
 563              		.thumb
 564              		.thumb_func
 566              	get_next_env_addr:
 567              	.LVL50:
ARM GAS  /tmp/ccSGDQKw.s 			page 38


 568              	.LFB245:
 545:easyflash/src/ef_env.c ****     uint32_t addr = FAILED_ADDR;
 569              		.loc 1 545 1 is_stmt 1 view -0
 570              		.cfi_startproc
 571              		@ args = 0, pretend = 0, frame = 0
 572              		@ frame_needed = 0, uses_anonymous_args = 0
 546:easyflash/src/ef_env.c **** 
 573              		.loc 1 546 5 view .LVU192
 548:easyflash/src/ef_env.c ****     {
 574              		.loc 1 548 5 view .LVU193
 545:easyflash/src/ef_env.c ****     uint32_t addr = FAILED_ADDR;
 575              		.loc 1 545 1 is_stmt 0 view .LVU194
 576 0000 38B5     		push	{r3, r4, r5, lr}
 577              		.cfi_def_cfa_offset 16
 578              		.cfi_offset 3, -16
 579              		.cfi_offset 4, -12
 580              		.cfi_offset 5, -8
 581              		.cfi_offset 14, -4
 548:easyflash/src/ef_env.c ****     {
 582              		.loc 1 548 8 view .LVU195
 583 0002 4378     		ldrb	r3, [r0, #1]	@ zero_extendqisi2
 584 0004 012B     		cmp	r3, #1
 585 0006 1BD0     		beq	.L65
 586 0008 0446     		mov	r4, r0
 553:easyflash/src/ef_env.c ****     {
 587              		.loc 1 553 22 view .LVU196
 588 000a 086B     		ldr	r0, [r1, #48]
 589              	.LVL51:
 553:easyflash/src/ef_env.c ****     {
 590              		.loc 1 553 8 view .LVU197
 591 000c 431C     		adds	r3, r0, #1
 592 000e 0D46     		mov	r5, r1
 553:easyflash/src/ef_env.c ****     {
 593              		.loc 1 553 5 is_stmt 1 view .LVU198
 553:easyflash/src/ef_env.c ****     {
 594              		.loc 1 553 8 is_stmt 0 view .LVU199
 595 0010 19D0     		beq	.L74
 560:easyflash/src/ef_env.c ****         {
 596              		.loc 1 560 9 is_stmt 1 view .LVU200
 560:easyflash/src/ef_env.c ****         {
 597              		.loc 1 560 42 is_stmt 0 view .LVU201
 598 0012 6168     		ldr	r1, [r4, #4]
 599              	.LVL52:
 560:easyflash/src/ef_env.c ****         {
 600              		.loc 1 560 49 view .LVU202
 601 0014 01F50033 		add	r3, r1, #131072
 560:easyflash/src/ef_env.c ****         {
 602              		.loc 1 560 12 view .LVU203
 603 0018 9842     		cmp	r0, r3
 604 001a 11D8     		bhi	.L65
 562:easyflash/src/ef_env.c ****             {
 605              		.loc 1 562 13 is_stmt 1 view .LVU204
 562:easyflash/src/ef_env.c ****             {
 606              		.loc 1 562 16 is_stmt 0 view .LVU205
 607 001c 6B78     		ldrb	r3, [r5, #1]	@ zero_extendqisi2
 608 001e ABB1     		cbz	r3, .L68
 564:easyflash/src/ef_env.c ****             }
ARM GAS  /tmp/ccSGDQKw.s 			page 39


 609              		.loc 1 564 17 is_stmt 1 view .LVU206
 564:easyflash/src/ef_env.c ****             }
 610              		.loc 1 564 22 is_stmt 0 view .LVU207
 611 0020 AB68     		ldr	r3, [r5, #8]
 612 0022 1844     		add	r0, r0, r3
 613              	.LVL53:
 614              	.L69:
 573:easyflash/src/ef_env.c **** 
 615              		.loc 1 573 13 is_stmt 1 view .LVU208
 573:easyflash/src/ef_env.c **** 
 616              		.loc 1 573 20 is_stmt 0 view .LVU209
 617 0024 01F5FF31 		add	r1, r1, #130560
 618 0028 01F5EE71 		add	r1, r1, #476
 619 002c FFF7FEFF 		bl	find_next_env_addr
 620              	.LVL54:
 575:easyflash/src/ef_env.c ****             {
 621              		.loc 1 575 37 view .LVU210
 622 0030 6368     		ldr	r3, [r4, #4]
 623              	.LVL55:
 575:easyflash/src/ef_env.c ****             {
 624              		.loc 1 575 13 is_stmt 1 view .LVU211
 575:easyflash/src/ef_env.c ****             {
 625              		.loc 1 575 37 is_stmt 0 view .LVU212
 626 0032 03F50033 		add	r3, r3, #131072
 575:easyflash/src/ef_env.c ****             {
 627              		.loc 1 575 16 view .LVU213
 628 0036 8342     		cmp	r3, r0
 629 0038 02D3     		bcc	.L65
 575:easyflash/src/ef_env.c ****             {
 630              		.loc 1 575 51 discriminator 1 view .LVU214
 631 003a AB68     		ldr	r3, [r5, #8]
 632 003c 03B1     		cbz	r3, .L65
 588:easyflash/src/ef_env.c **** 
 633              		.loc 1 588 1 view .LVU215
 634 003e 38BD     		pop	{r3, r4, r5, pc}
 635              	.LVL56:
 636              	.L65:
 577:easyflash/src/ef_env.c ****             }
 637              		.loc 1 577 17 is_stmt 1 view .LVU216
 577:easyflash/src/ef_env.c ****             }
 638              		.loc 1 577 24 is_stmt 0 view .LVU217
 639 0040 4FF0FF30 		mov	r0, #-1
 588:easyflash/src/ef_env.c **** 
 640              		.loc 1 588 1 view .LVU218
 641 0044 38BD     		pop	{r3, r4, r5, pc}
 642              	.LVL57:
 643              	.L74:
 556:easyflash/src/ef_env.c ****     }
 644              		.loc 1 556 9 is_stmt 1 view .LVU219
 556:easyflash/src/ef_env.c ****     }
 645              		.loc 1 556 14 is_stmt 0 view .LVU220
 646 0046 6068     		ldr	r0, [r4, #4]
 647 0048 2430     		adds	r0, r0, #36
 648              	.LVL58:
 588:easyflash/src/ef_env.c **** 
 649              		.loc 1 588 1 view .LVU221
 650 004a 38BD     		pop	{r3, r4, r5, pc}
ARM GAS  /tmp/ccSGDQKw.s 			page 40


 651              	.LVL59:
 652              	.L68:
 570:easyflash/src/ef_env.c ****             }
 653              		.loc 1 570 17 is_stmt 1 view .LVU222
 570:easyflash/src/ef_env.c ****             }
 654              		.loc 1 570 22 is_stmt 0 view .LVU223
 655 004c 0430     		adds	r0, r0, #4
 656              	.LVL60:
 570:easyflash/src/ef_env.c ****             }
 657              		.loc 1 570 22 view .LVU224
 658 004e E9E7     		b	.L69
 659              		.cfi_endproc
 660              	.LFE245:
 662              		.section	.text.find_env_cb,"ax",%progbits
 663              		.align	1
 664              		.p2align 2,,3
 665              		.syntax unified
 666              		.thumb
 667              		.thumb_func
 669              	find_env_cb:
 670              	.LVL61:
 671              	.LFB250:
 814:easyflash/src/ef_env.c ****     const char *key = arg1;
 672              		.loc 1 814 1 is_stmt 1 view -0
 673              		.cfi_startproc
 674              		@ args = 0, pretend = 0, frame = 0
 675              		@ frame_needed = 0, uses_anonymous_args = 0
 815:easyflash/src/ef_env.c ****     bool *find_ok = arg2;
 676              		.loc 1 815 5 view .LVU226
 814:easyflash/src/ef_env.c ****     const char *key = arg1;
 677              		.loc 1 814 1 is_stmt 0 view .LVU227
 678 0000 F8B5     		push	{r3, r4, r5, r6, r7, lr}
 679              		.cfi_def_cfa_offset 24
 680              		.cfi_offset 3, -24
 681              		.cfi_offset 4, -20
 682              		.cfi_offset 5, -16
 683              		.cfi_offset 6, -12
 684              		.cfi_offset 7, -8
 685              		.cfi_offset 14, -4
 824:easyflash/src/ef_env.c ****     {
 686              		.loc 1 824 12 view .LVU228
 687 0002 4678     		ldrb	r6, [r0, #1]	@ zero_extendqisi2
 688              	.LVL62:
 816:easyflash/src/ef_env.c ****     uint8_t max_len = strlen(key);
 689              		.loc 1 816 5 is_stmt 1 view .LVU229
 817:easyflash/src/ef_env.c **** 
 690              		.loc 1 817 5 view .LVU230
 819:easyflash/src/ef_env.c ****     {
 691              		.loc 1 819 5 view .LVU231
 824:easyflash/src/ef_env.c ****     {
 692              		.loc 1 824 5 view .LVU232
 824:easyflash/src/ef_env.c ****     {
 693              		.loc 1 824 8 is_stmt 0 view .LVU233
 694 0004 26B1     		cbz	r6, .L76
 824:easyflash/src/ef_env.c ****     {
 695              		.loc 1 824 24 discriminator 1 view .LVU234
 696 0006 0378     		ldrb	r3, [r0]	@ zero_extendqisi2
ARM GAS  /tmp/ccSGDQKw.s 			page 41


 697 0008 022B     		cmp	r3, #2
 698 000a 0446     		mov	r4, r0
 699 000c 02D0     		beq	.L83
 700              	.LVL63:
 701              	.L78:
 829:easyflash/src/ef_env.c **** }
 702              		.loc 1 829 12 view .LVU235
 703 000e 0026     		movs	r6, #0
 704              	.LVL64:
 705              	.L76:
 830:easyflash/src/ef_env.c **** 
 706              		.loc 1 830 1 view .LVU236
 707 0010 3046     		mov	r0, r6
 708 0012 F8BD     		pop	{r3, r4, r5, r6, r7, pc}
 709              	.LVL65:
 710              	.L83:
 817:easyflash/src/ef_env.c **** 
 711              		.loc 1 817 23 discriminator 2 view .LVU237
 712 0014 0846     		mov	r0, r1
 713              	.LVL66:
 817:easyflash/src/ef_env.c **** 
 714              		.loc 1 817 23 discriminator 2 view .LVU238
 715 0016 0F46     		mov	r7, r1
 716 0018 1546     		mov	r5, r2
 717 001a FFF7FEFF 		bl	strlen
 718              	.LVL67:
 824:easyflash/src/ef_env.c ****     {
 719              		.loc 1 824 56 discriminator 2 view .LVU239
 720 001e A278     		ldrb	r2, [r4, #2]	@ zero_extendqisi2
 817:easyflash/src/ef_env.c **** 
 721              		.loc 1 817 13 discriminator 2 view .LVU240
 722 0020 C0B2     		uxtb	r0, r0
 824:easyflash/src/ef_env.c ****     {
 723              		.loc 1 824 56 discriminator 2 view .LVU241
 724 0022 8242     		cmp	r2, r0
 725 0024 38BF     		it	cc
 726 0026 0246     		movcc	r2, r0
 727 0028 3946     		mov	r1, r7
 728 002a 04F11000 		add	r0, r4, #16
 729 002e FFF7FEFF 		bl	strncmp
 730              	.LVL68:
 824:easyflash/src/ef_env.c ****     {
 731              		.loc 1 824 52 discriminator 2 view .LVU242
 732 0032 0028     		cmp	r0, #0
 733 0034 EBD1     		bne	.L78
 826:easyflash/src/ef_env.c ****         return true;
 734              		.loc 1 826 9 is_stmt 1 view .LVU243
 826:easyflash/src/ef_env.c ****         return true;
 735              		.loc 1 826 18 is_stmt 0 view .LVU244
 736 0036 0123     		movs	r3, #1
 737 0038 2B70     		strb	r3, [r5]
 827:easyflash/src/ef_env.c ****     }
 738              		.loc 1 827 9 is_stmt 1 view .LVU245
 827:easyflash/src/ef_env.c ****     }
 739              		.loc 1 827 16 is_stmt 0 view .LVU246
 740 003a E9E7     		b	.L76
 741              		.cfi_endproc
ARM GAS  /tmp/ccSGDQKw.s 			page 42


 742              	.LFE250:
 744              		.section	.text.align_write,"ax",%progbits
 745              		.align	1
 746              		.p2align 2,,3
 747              		.syntax unified
 748              		.thumb
 749              		.thumb_func
 751              	align_write:
 752              	.LVL69:
 753              	.LFB273:
1389:easyflash/src/ef_env.c **** 
1390:easyflash/src/ef_env.c **** static bool do_gc(sector_meta_data_t sector, void *arg1, void *arg2)
1391:easyflash/src/ef_env.c **** {
1392:easyflash/src/ef_env.c ****     struct env_node_obj env;
1393:easyflash/src/ef_env.c **** 
1394:easyflash/src/ef_env.c ****     if (sector->check_ok && (sector->status.dirty == SECTOR_DIRTY_TRUE || sector->status.dirty == S
1395:easyflash/src/ef_env.c ****     {
1396:easyflash/src/ef_env.c ****         uint8_t status_table[DIRTY_STATUS_TABLE_SIZE];
1397:easyflash/src/ef_env.c ****         /* change the sector status to GC */
1398:easyflash/src/ef_env.c ****         write_status(sector->addr + SECTOR_DIRTY_OFFSET, status_table, SECTOR_DIRTY_STATUS_NUM, SEC
1399:easyflash/src/ef_env.c ****         /* search all ENV */
1400:easyflash/src/ef_env.c ****         env.addr.start = FAILED_ADDR;
1401:easyflash/src/ef_env.c ****         while ((env.addr.start = get_next_env_addr(sector, &env)) != FAILED_ADDR)
1402:easyflash/src/ef_env.c ****         {
1403:easyflash/src/ef_env.c ****             read_env(&env);
1404:easyflash/src/ef_env.c ****             if (env.crc_is_ok && (env.status == ENV_WRITE || env.status == ENV_PRE_DELETE))
1405:easyflash/src/ef_env.c ****             {
1406:easyflash/src/ef_env.c ****                 /* move the ENV to new space */
1407:easyflash/src/ef_env.c ****                 if (move_env(&env) != EF_NO_ERR)
1408:easyflash/src/ef_env.c ****                 {
1409:easyflash/src/ef_env.c ****                     EF_DEBUG("Error: Moved the ENV (%.*s) for GC failed.", env.name_len, env.name);
1410:easyflash/src/ef_env.c ****                 }
1411:easyflash/src/ef_env.c ****             }
1412:easyflash/src/ef_env.c ****         }
1413:easyflash/src/ef_env.c ****         format_sector(sector->addr, SECTOR_NOT_COMBINED);
1414:easyflash/src/ef_env.c ****         EF_DEBUG("Collect a sector @0x%08X", sector->addr);
1415:easyflash/src/ef_env.c ****     }
1416:easyflash/src/ef_env.c **** 
1417:easyflash/src/ef_env.c ****     return false;
1418:easyflash/src/ef_env.c **** }
1419:easyflash/src/ef_env.c **** 
1420:easyflash/src/ef_env.c **** /*
1421:easyflash/src/ef_env.c ****  * The GC will be triggered on the following scene:
1422:easyflash/src/ef_env.c ****  * 1. alloc an ENV when the flash not has enough space
1423:easyflash/src/ef_env.c ****  * 2. write an ENV then the flash not has enough space
1424:easyflash/src/ef_env.c ****  */
1425:easyflash/src/ef_env.c **** static void gc_collect(void)
1426:easyflash/src/ef_env.c **** {
1427:easyflash/src/ef_env.c ****     struct sector_meta_data sector;
1428:easyflash/src/ef_env.c ****     size_t empty_sec = 0;
1429:easyflash/src/ef_env.c **** 
1430:easyflash/src/ef_env.c ****     /* GC check the empty sector number */
1431:easyflash/src/ef_env.c ****     sector_iterator(&sector, SECTOR_STORE_EMPTY, &empty_sec, NULL, gc_check_cb, false);
1432:easyflash/src/ef_env.c **** 
1433:easyflash/src/ef_env.c ****     /* do GC collect */
1434:easyflash/src/ef_env.c ****     EF_DEBUG("The remain empty sector is %d, GC threshold is %d.", empty_sec, EF_GC_EMPTY_SEC_THRES
1435:easyflash/src/ef_env.c ****     if (empty_sec <= EF_GC_EMPTY_SEC_THRESHOLD)
ARM GAS  /tmp/ccSGDQKw.s 			page 43


1436:easyflash/src/ef_env.c ****     {
1437:easyflash/src/ef_env.c ****         sector_iterator(&sector, SECTOR_STORE_UNUSED, NULL, NULL, do_gc, false);
1438:easyflash/src/ef_env.c ****     }
1439:easyflash/src/ef_env.c **** 
1440:easyflash/src/ef_env.c ****     gc_request = false;
1441:easyflash/src/ef_env.c **** }
1442:easyflash/src/ef_env.c **** 
1443:easyflash/src/ef_env.c **** static EfErrCode align_write(uint32_t addr, const uint32_t *buf, size_t size)
1444:easyflash/src/ef_env.c **** {
 754              		.loc 1 1444 1 is_stmt 1 view -0
 755              		.cfi_startproc
 756              		@ args = 0, pretend = 0, frame = 8
 757              		@ frame_needed = 0, uses_anonymous_args = 0
1445:easyflash/src/ef_env.c ****     EfErrCode result = EF_NO_ERR;
 758              		.loc 1 1445 5 view .LVU248
1446:easyflash/src/ef_env.c ****     size_t align_remain;
 759              		.loc 1 1446 5 view .LVU249
1447:easyflash/src/ef_env.c **** 
1448:easyflash/src/ef_env.c **** #if (EF_WRITE_GRAN / 8 > 0)
1449:easyflash/src/ef_env.c ****     uint8_t align_data[EF_WRITE_GRAN / 8];
 760              		.loc 1 1449 5 view .LVU250
1450:easyflash/src/ef_env.c ****     size_t align_data_size = sizeof(align_data);
 761              		.loc 1 1450 5 view .LVU251
1451:easyflash/src/ef_env.c **** #else
1452:easyflash/src/ef_env.c ****     /* For compatibility with C89 */
1453:easyflash/src/ef_env.c ****     uint8_t align_data_u8, *align_data = &align_data_u8;
1454:easyflash/src/ef_env.c ****     size_t align_data_size = 1;
1455:easyflash/src/ef_env.c **** #endif
1456:easyflash/src/ef_env.c **** 
1457:easyflash/src/ef_env.c ****     memset(align_data, 0xFF, align_data_size);
 762              		.loc 1 1457 5 view .LVU252
1444:easyflash/src/ef_env.c ****     EfErrCode result = EF_NO_ERR;
 763              		.loc 1 1444 1 is_stmt 0 view .LVU253
 764 0000 F0B5     		push	{r4, r5, r6, r7, lr}
 765              		.cfi_def_cfa_offset 20
 766              		.cfi_offset 4, -20
 767              		.cfi_offset 5, -16
 768              		.cfi_offset 6, -12
 769              		.cfi_offset 7, -8
 770              		.cfi_offset 14, -4
1458:easyflash/src/ef_env.c ****     result = ef_port_write(addr, buf, EF_WG_ALIGN_DOWN(size));
 771              		.loc 1 1458 14 view .LVU254
 772 0002 22F00307 		bic	r7, r2, #3
1444:easyflash/src/ef_env.c ****     EfErrCode result = EF_NO_ERR;
 773              		.loc 1 1444 1 view .LVU255
 774 0006 83B0     		sub	sp, sp, #12
 775              		.cfi_def_cfa_offset 32
1444:easyflash/src/ef_env.c ****     EfErrCode result = EF_NO_ERR;
 776              		.loc 1 1444 1 view .LVU256
 777 0008 1446     		mov	r4, r2
1457:easyflash/src/ef_env.c ****     result = ef_port_write(addr, buf, EF_WG_ALIGN_DOWN(size));
 778              		.loc 1 1457 5 view .LVU257
 779 000a 4FF0FF33 		mov	r3, #-1
 780              		.loc 1 1458 14 view .LVU258
 781 000e 3A46     		mov	r2, r7
 782              	.LVL70:
1444:easyflash/src/ef_env.c ****     EfErrCode result = EF_NO_ERR;
ARM GAS  /tmp/ccSGDQKw.s 			page 44


 783              		.loc 1 1444 1 view .LVU259
 784 0010 0546     		mov	r5, r0
 785 0012 0E46     		mov	r6, r1
1457:easyflash/src/ef_env.c ****     result = ef_port_write(addr, buf, EF_WG_ALIGN_DOWN(size));
 786              		.loc 1 1457 5 view .LVU260
 787 0014 0193     		str	r3, [sp, #4]
 788              		.loc 1 1458 5 is_stmt 1 view .LVU261
 789              		.loc 1 1458 14 is_stmt 0 view .LVU262
 790 0016 FFF7FEFF 		bl	ef_port_write
 791              	.LVL71:
1459:easyflash/src/ef_env.c **** 
1460:easyflash/src/ef_env.c ****     align_remain = size - EF_WG_ALIGN_DOWN(size);
 792              		.loc 1 1460 5 is_stmt 1 view .LVU263
1461:easyflash/src/ef_env.c ****     if (result == EF_NO_ERR && align_remain)
 793              		.loc 1 1461 5 view .LVU264
 794              		.loc 1 1461 8 is_stmt 0 view .LVU265
 795 001a 10B9     		cbnz	r0, .L85
 796              		.loc 1 1461 29 discriminator 1 view .LVU266
 797 001c 14F00302 		ands	r2, r4, #3
 798              	.LVL72:
 799              		.loc 1 1461 29 discriminator 1 view .LVU267
 800 0020 01D1     		bne	.L90
 801              	.LVL73:
 802              	.L85:
1462:easyflash/src/ef_env.c ****     {
1463:easyflash/src/ef_env.c ****         memcpy(align_data, (uint8_t *)buf + EF_WG_ALIGN_DOWN(size), align_remain);
1464:easyflash/src/ef_env.c ****         result = ef_port_write(addr + EF_WG_ALIGN_DOWN(size), (uint32_t *) align_data, align_data_s
1465:easyflash/src/ef_env.c ****     }
1466:easyflash/src/ef_env.c **** 
1467:easyflash/src/ef_env.c ****     return result;
 803              		.loc 1 1467 5 is_stmt 1 view .LVU268
1468:easyflash/src/ef_env.c **** }
 804              		.loc 1 1468 1 is_stmt 0 view .LVU269
 805 0022 03B0     		add	sp, sp, #12
 806              		.cfi_remember_state
 807              		.cfi_def_cfa_offset 20
 808              		@ sp needed
 809 0024 F0BD     		pop	{r4, r5, r6, r7, pc}
 810              	.LVL74:
 811              	.L90:
 812              		.cfi_restore_state
1463:easyflash/src/ef_env.c ****         result = ef_port_write(addr + EF_WG_ALIGN_DOWN(size), (uint32_t *) align_data, align_data_s
 813              		.loc 1 1463 9 is_stmt 1 view .LVU270
 814 0026 F119     		adds	r1, r6, r7
 815 0028 01A8     		add	r0, sp, #4
 816              	.LVL75:
1463:easyflash/src/ef_env.c ****         result = ef_port_write(addr + EF_WG_ALIGN_DOWN(size), (uint32_t *) align_data, align_data_s
 817              		.loc 1 1463 9 is_stmt 0 view .LVU271
 818 002a FFF7FEFF 		bl	memcpy
 819              	.LVL76:
1464:easyflash/src/ef_env.c ****     }
 820              		.loc 1 1464 9 is_stmt 1 view .LVU272
1464:easyflash/src/ef_env.c ****     }
 821              		.loc 1 1464 18 is_stmt 0 view .LVU273
 822 002e 0422     		movs	r2, #4
 823 0030 0DEB0201 		add	r1, sp, r2
 824 0034 7819     		adds	r0, r7, r5
ARM GAS  /tmp/ccSGDQKw.s 			page 45


 825 0036 FFF7FEFF 		bl	ef_port_write
 826              	.LVL77:
1467:easyflash/src/ef_env.c **** }
 827              		.loc 1 1467 5 is_stmt 1 view .LVU274
 828              		.loc 1 1468 1 is_stmt 0 view .LVU275
 829 003a 03B0     		add	sp, sp, #12
 830              		.cfi_def_cfa_offset 20
 831              		@ sp needed
 832 003c F0BD     		pop	{r4, r5, r6, r7, pc}
 833              		.loc 1 1468 1 view .LVU276
 834              		.cfi_endproc
 835              	.LFE273:
 837 003e 00BF     		.section	.text.alloc_env_cb,"ax",%progbits
 838              		.align	1
 839              		.p2align 2,,3
 840              		.syntax unified
 841              		.thumb
 842              		.thumb_func
 844              	alloc_env_cb:
 845              	.LVL78:
 846              	.LFB264:
1170:easyflash/src/ef_env.c ****     size_t *env_size = arg1;
 847              		.loc 1 1170 1 is_stmt 1 view -0
 848              		.cfi_startproc
 849              		@ args = 0, pretend = 0, frame = 0
 850              		@ frame_needed = 0, uses_anonymous_args = 0
 851              		@ link register save eliminated.
1171:easyflash/src/ef_env.c ****     uint32_t *empty_env = arg2;
 852              		.loc 1 1171 5 view .LVU278
1172:easyflash/src/ef_env.c **** 
 853              		.loc 1 1172 5 view .LVU279
1177:easyflash/src/ef_env.c ****             && ((sector->status.dirty == SECTOR_DIRTY_FALSE)
 854              		.loc 1 1177 15 is_stmt 0 view .LVU280
 855 0000 0378     		ldrb	r3, [r0]	@ zero_extendqisi2
 856              	.LVL79:
1177:easyflash/src/ef_env.c ****             && ((sector->status.dirty == SECTOR_DIRTY_FALSE)
 857              		.loc 1 1177 5 is_stmt 1 view .LVU281
1177:easyflash/src/ef_env.c ****             && ((sector->status.dirty == SECTOR_DIRTY_FALSE)
 858              		.loc 1 1177 8 is_stmt 0 view .LVU282
 859 0002 ABB1     		cbz	r3, .L104
1170:easyflash/src/ef_env.c ****     size_t *env_size = arg1;
 860              		.loc 1 1170 1 discriminator 1 view .LVU283
 861 0004 10B4     		push	{r4}
 862              		.cfi_def_cfa_offset 4
 863              		.cfi_offset 4, -4
1177:easyflash/src/ef_env.c ****             && ((sector->status.dirty == SECTOR_DIRTY_FALSE)
 864              		.loc 1 1177 26 discriminator 1 view .LVU284
 865 0006 0968     		ldr	r1, [r1]
 866              	.LVL80:
1177:easyflash/src/ef_env.c ****             && ((sector->status.dirty == SECTOR_DIRTY_FALSE)
 867              		.loc 1 1177 26 discriminator 1 view .LVU285
 868 0008 0469     		ldr	r4, [r0, #16]
 869 000a 8C42     		cmp	r4, r1
 870 000c 04D8     		bhi	.L107
 871              	.L96:
1185:easyflash/src/ef_env.c **** }
 872              		.loc 1 1185 12 view .LVU286
ARM GAS  /tmp/ccSGDQKw.s 			page 46


 873 000e 0023     		movs	r3, #0
 874              	.L92:
1186:easyflash/src/ef_env.c **** 
 875              		.loc 1 1186 1 view .LVU287
 876 0010 1846     		mov	r0, r3
 877              	.LVL81:
1186:easyflash/src/ef_env.c **** 
 878              		.loc 1 1186 1 view .LVU288
 879 0012 5DF8044B 		ldr	r4, [sp], #4
 880              		.cfi_remember_state
 881              		.cfi_restore 4
 882              		.cfi_def_cfa_offset 0
 883 0016 7047     		bx	lr
 884              	.LVL82:
 885              	.L107:
 886              		.cfi_restore_state
 887              	.LBB41:
 888              	.LBI41:
1169:easyflash/src/ef_env.c **** {
 889              		.loc 1 1169 13 is_stmt 1 view .LVU289
 890              	.LBB42:
1178:easyflash/src/ef_env.c ****                 || (sector->status.dirty == SECTOR_DIRTY_TRUE && !gc_request)))
 891              		.loc 1 1178 32 is_stmt 0 view .LVU290
 892 0018 8178     		ldrb	r1, [r0, #2]	@ zero_extendqisi2
1178:easyflash/src/ef_env.c ****                 || (sector->status.dirty == SECTOR_DIRTY_TRUE && !gc_request)))
 893              		.loc 1 1178 13 view .LVU291
 894 001a 0129     		cmp	r1, #1
 895 001c 05D0     		beq	.L93
1179:easyflash/src/ef_env.c ****     {
 896              		.loc 1 1179 17 view .LVU292
 897 001e 0229     		cmp	r1, #2
 898 0020 F5D1     		bne	.L96
1179:easyflash/src/ef_env.c ****     {
 899              		.loc 1 1179 66 view .LVU293
 900 0022 0449     		ldr	r1, .L108
1179:easyflash/src/ef_env.c ****     {
 901              		.loc 1 1179 63 view .LVU294
 902 0024 0978     		ldrb	r1, [r1]	@ zero_extendqisi2
 903 0026 0029     		cmp	r1, #0
 904 0028 F1D1     		bne	.L96
 905              	.L93:
1181:easyflash/src/ef_env.c ****         return true;
 906              		.loc 1 1181 9 is_stmt 1 view .LVU295
1181:easyflash/src/ef_env.c ****         return true;
 907              		.loc 1 1181 28 is_stmt 0 view .LVU296
 908 002a 4169     		ldr	r1, [r0, #20]
1181:easyflash/src/ef_env.c ****         return true;
 909              		.loc 1 1181 20 view .LVU297
 910 002c 1160     		str	r1, [r2]
1182:easyflash/src/ef_env.c ****     }
 911              		.loc 1 1182 9 is_stmt 1 view .LVU298
1182:easyflash/src/ef_env.c ****     }
 912              		.loc 1 1182 16 is_stmt 0 view .LVU299
 913 002e EFE7     		b	.L92
 914              	.LVL83:
 915              	.L104:
 916              		.cfi_def_cfa_offset 0
ARM GAS  /tmp/ccSGDQKw.s 			page 47


 917              		.cfi_restore 4
1182:easyflash/src/ef_env.c ****     }
 918              		.loc 1 1182 16 view .LVU300
 919              	.LBE42:
 920              	.LBE41:
1186:easyflash/src/ef_env.c **** 
 921              		.loc 1 1186 1 view .LVU301
 922 0030 1846     		mov	r0, r3
 923              	.LVL84:
1186:easyflash/src/ef_env.c **** 
 924              		.loc 1 1186 1 view .LVU302
 925 0032 7047     		bx	lr
 926              	.L109:
 927              		.align	2
 928              	.L108:
 929 0034 00000000 		.word	.LANCHOR2
 930              		.cfi_endproc
 931              	.LFE264:
 933              		.section	.rodata.write_status.str1.4,"aMS",%progbits,1
 934              		.align	2
 935              	.LC0:
 936 0000 73746174 		.ascii	"status_index < status_num\000"
 936      75735F69 
 936      6E646578 
 936      203C2073 
 936      74617475 
 937 001a 0000     		.align	2
 938              	.LC1:
 939 001c 28257329 		.ascii	"(%s) has assert failed at %s.\000"
 939      20686173 
 939      20617373 
 939      65727420 
 939      6661696C 
 940 003a 0000     		.align	2
 941              	.LC2:
 942 003c 65617379 		.ascii	"easyflash/src/ef_env.c\000"
 942      666C6173 
 942      682F7372 
 942      632F6566 
 942      5F656E76 
 943 0053 00       		.align	2
 944              	.LC3:
 945 0054 73746174 		.ascii	"status_table\000"
 945      75735F74 
 945      61626C65 
 945      00
 946              		.section	.text.write_status,"ax",%progbits
 947              		.align	1
 948              		.p2align 2,,3
 949              		.syntax unified
 950              		.thumb
 951              		.thumb_func
 953              	write_status:
 954              	.LVL85:
 955              	.LFB237:
 281:easyflash/src/ef_env.c ****     EfErrCode result = EF_NO_ERR;
 956              		.loc 1 281 1 is_stmt 1 view -0
ARM GAS  /tmp/ccSGDQKw.s 			page 48


 957              		.cfi_startproc
 958              		@ args = 0, pretend = 0, frame = 0
 959              		@ frame_needed = 0, uses_anonymous_args = 0
 282:easyflash/src/ef_env.c ****     size_t byte_index;
 960              		.loc 1 282 5 view .LVU304
 283:easyflash/src/ef_env.c **** 
 961              		.loc 1 283 5 view .LVU305
 285:easyflash/src/ef_env.c ****     EF_ASSERT(status_table);
 962              		.loc 1 285 5 view .LVU306
 281:easyflash/src/ef_env.c ****     EfErrCode result = EF_NO_ERR;
 963              		.loc 1 281 1 is_stmt 0 view .LVU307
 964 0000 30B5     		push	{r4, r5, lr}
 965              		.cfi_def_cfa_offset 12
 966              		.cfi_offset 4, -12
 967              		.cfi_offset 5, -8
 968              		.cfi_offset 14, -4
 285:easyflash/src/ef_env.c ****     EF_ASSERT(status_table);
 969              		.loc 1 285 5 view .LVU308
 970 0002 9342     		cmp	r3, r2
 281:easyflash/src/ef_env.c ****     EfErrCode result = EF_NO_ERR;
 971              		.loc 1 281 1 view .LVU309
 972 0004 83B0     		sub	sp, sp, #12
 973              		.cfi_def_cfa_offset 24
 281:easyflash/src/ef_env.c ****     EfErrCode result = EF_NO_ERR;
 974              		.loc 1 281 1 view .LVU310
 975 0006 1C46     		mov	r4, r3
 285:easyflash/src/ef_env.c ****     EF_ASSERT(status_table);
 976              		.loc 1 285 5 view .LVU311
 977 0008 21D2     		bcs	.L116
 285:easyflash/src/ef_env.c ****     EF_ASSERT(status_table);
 978              		.loc 1 285 41 is_stmt 1 discriminator 2 view .LVU312
 286:easyflash/src/ef_env.c **** 
 979              		.loc 1 286 5 discriminator 2 view .LVU313
 980 000a 0B46     		mov	r3, r1
 981              	.LVL86:
 286:easyflash/src/ef_env.c **** 
 982              		.loc 1 286 5 is_stmt 0 discriminator 2 view .LVU314
 983 000c A9B1     		cbz	r1, .L117
 984              	.LBB47:
 985              	.LBB48:
 986              	.LBB49:
 987              	.LBB50:
 241:easyflash/src/ef_env.c ****     if (status_index > 0)
 988              		.loc 1 241 32 view .LVU315
 989 000e 5201     		lsls	r2, r2, #5
 990              	.LVL87:
 241:easyflash/src/ef_env.c ****     if (status_index > 0)
 991              		.loc 1 241 32 view .LVU316
 992 0010 193A     		subs	r2, r2, #25
 993 0012 0546     		mov	r5, r0
 994              	.LVL88:
 241:easyflash/src/ef_env.c ****     if (status_index > 0)
 995              		.loc 1 241 32 view .LVU317
 996              	.LBE50:
 997              	.LBE49:
 998              	.LBE48:
 999              	.LBI47:
ARM GAS  /tmp/ccSGDQKw.s 			page 49


 280:easyflash/src/ef_env.c **** {
 1000              		.loc 1 280 18 is_stmt 1 view .LVU318
 1001              	.LBB53:
 286:easyflash/src/ef_env.c **** 
 1002              		.loc 1 286 28 view .LVU319
 289:easyflash/src/ef_env.c **** 
 1003              		.loc 1 289 5 view .LVU320
 1004              	.LBB52:
 1005              	.LBI49:
 231:easyflash/src/ef_env.c **** {
 1006              		.loc 1 231 15 view .LVU321
 1007              	.LBB51:
 233:easyflash/src/ef_env.c ****     /*
 1008              		.loc 1 233 5 view .LVU322
 241:easyflash/src/ef_env.c ****     if (status_index > 0)
 1009              		.loc 1 241 5 view .LVU323
 1010 0014 D208     		lsrs	r2, r2, #3
 1011 0016 FF21     		movs	r1, #255
 1012              	.LVL89:
 241:easyflash/src/ef_env.c ****     if (status_index > 0)
 1013              		.loc 1 241 5 is_stmt 0 view .LVU324
 1014 0018 1846     		mov	r0, r3
 1015              	.LVL90:
 241:easyflash/src/ef_env.c ****     if (status_index > 0)
 1016              		.loc 1 241 5 view .LVU325
 1017 001a FFF7FEFF 		bl	memset
 1018              	.LVL91:
 242:easyflash/src/ef_env.c ****     {
 1019              		.loc 1 242 5 is_stmt 1 view .LVU326
 248:easyflash/src/ef_env.c ****         status_table[byte_index] = 0x00;
 1020              		.loc 1 248 9 view .LVU327
 248:easyflash/src/ef_env.c ****         status_table[byte_index] = 0x00;
 1021              		.loc 1 248 36 is_stmt 0 view .LVU328
 1022 001e 013C     		subs	r4, r4, #1
 1023              	.LVL92:
 249:easyflash/src/ef_env.c **** #endif /* EF_WRITE_GRAN == 1 */
 1024              		.loc 1 249 9 is_stmt 1 view .LVU329
 249:easyflash/src/ef_env.c **** #endif /* EF_WRITE_GRAN == 1 */
 1025              		.loc 1 249 34 is_stmt 0 view .LVU330
 1026 0020 0022     		movs	r2, #0
 1027 0022 00F82420 		strb	r2, [r0, r4, lsl #2]
 253:easyflash/src/ef_env.c **** }
 1028              		.loc 1 253 5 is_stmt 1 view .LVU331
 1029              	.LVL93:
 253:easyflash/src/ef_env.c **** }
 1030              		.loc 1 253 5 is_stmt 0 view .LVU332
 1031              	.LBE51:
 1032              	.LBE52:
 292:easyflash/src/ef_env.c ****     {
 1033              		.loc 1 292 5 is_stmt 1 view .LVU333
 301:easyflash/src/ef_env.c **** #endif /* EF_WRITE_GRAN == 1 */
 1034              		.loc 1 301 5 view .LVU334
 301:easyflash/src/ef_env.c **** #endif /* EF_WRITE_GRAN == 1 */
 1035              		.loc 1 301 14 is_stmt 0 view .LVU335
 1036 0026 00EB8401 		add	r1, r0, r4, lsl #2
 1037 002a 0422     		movs	r2, #4
 1038 002c 05EB8400 		add	r0, r5, r4, lsl #2
ARM GAS  /tmp/ccSGDQKw.s 			page 50


 1039              	.LBE53:
 1040              	.LBE47:
 305:easyflash/src/ef_env.c **** 
 1041              		.loc 1 305 1 view .LVU336
 1042 0030 03B0     		add	sp, sp, #12
 1043              		.cfi_remember_state
 1044              		.cfi_def_cfa_offset 12
 1045              		@ sp needed
 1046 0032 BDE83040 		pop	{r4, r5, lr}
 1047              		.cfi_restore 14
 1048              		.cfi_restore 5
 1049              		.cfi_restore 4
 1050              		.cfi_def_cfa_offset 0
 1051              	.LVL94:
 1052              	.LBB55:
 1053              	.LBB54:
 301:easyflash/src/ef_env.c **** #endif /* EF_WRITE_GRAN == 1 */
 1054              		.loc 1 301 14 view .LVU337
 1055 0036 FFF7FEBF 		b	ef_port_write
 1056              	.LVL95:
 1057              	.L117:
 1058              		.cfi_restore_state
 301:easyflash/src/ef_env.c **** #endif /* EF_WRITE_GRAN == 1 */
 1059              		.loc 1 301 14 view .LVU338
 1060              	.LBE54:
 1061              	.LBE55:
 286:easyflash/src/ef_env.c **** 
 1062              		.loc 1 286 5 is_stmt 1 discriminator 1 view .LVU339
 1063 003a 0A49     		ldr	r1, .L118
 1064              	.LVL96:
 286:easyflash/src/ef_env.c **** 
 1065              		.loc 1 286 5 is_stmt 0 discriminator 1 view .LVU340
 1066 003c 0091     		str	r1, [sp]
 1067 003e 0A4B     		ldr	r3, .L118+4
 1068              	.LVL97:
 286:easyflash/src/ef_env.c **** 
 1069              		.loc 1 286 5 discriminator 1 view .LVU341
 1070 0040 0A4A     		ldr	r2, .L118+8
 1071              	.LVL98:
 286:easyflash/src/ef_env.c **** 
 1072              		.loc 1 286 5 discriminator 1 view .LVU342
 1073 0042 0B48     		ldr	r0, .L118+12
 1074              	.LVL99:
 286:easyflash/src/ef_env.c **** 
 1075              		.loc 1 286 5 discriminator 1 view .LVU343
 1076 0044 4FF48F71 		mov	r1, #286
 1077 0048 FFF7FEFF 		bl	ef_log_debug
 1078              	.LVL100:
 1079              	.L114:
 286:easyflash/src/ef_env.c **** 
 1080              		.loc 1 286 5 is_stmt 1 discriminator 2 view .LVU344
 286:easyflash/src/ef_env.c **** 
 1081              		.loc 1 286 5 discriminator 2 view .LVU345
 286:easyflash/src/ef_env.c **** 
 1082              		.loc 1 286 5 discriminator 2 view .LVU346
 286:easyflash/src/ef_env.c **** 
 1083              		.loc 1 286 5 discriminator 2 view .LVU347
ARM GAS  /tmp/ccSGDQKw.s 			page 51


 286:easyflash/src/ef_env.c **** 
 1084              		.loc 1 286 5 discriminator 2 view .LVU348
 286:easyflash/src/ef_env.c **** 
 1085              		.loc 1 286 5 discriminator 2 view .LVU349
 1086 004c FEE7     		b	.L114
 1087              	.LVL101:
 1088              	.L116:
 285:easyflash/src/ef_env.c ****     EF_ASSERT(status_table);
 1089              		.loc 1 285 5 discriminator 1 view .LVU350
 1090 004e 0549     		ldr	r1, .L118
 1091              	.LVL102:
 285:easyflash/src/ef_env.c ****     EF_ASSERT(status_table);
 1092              		.loc 1 285 5 is_stmt 0 discriminator 1 view .LVU351
 1093 0050 0091     		str	r1, [sp]
 1094 0052 084B     		ldr	r3, .L118+16
 1095              	.LVL103:
 285:easyflash/src/ef_env.c ****     EF_ASSERT(status_table);
 1096              		.loc 1 285 5 discriminator 1 view .LVU352
 1097 0054 054A     		ldr	r2, .L118+8
 1098              	.LVL104:
 285:easyflash/src/ef_env.c ****     EF_ASSERT(status_table);
 1099              		.loc 1 285 5 discriminator 1 view .LVU353
 1100 0056 0648     		ldr	r0, .L118+12
 1101              	.LVL105:
 285:easyflash/src/ef_env.c ****     EF_ASSERT(status_table);
 1102              		.loc 1 285 5 discriminator 1 view .LVU354
 1103 0058 40F21D11 		movw	r1, #285
 1104 005c FFF7FEFF 		bl	ef_log_debug
 1105              	.LVL106:
 1106              	.L112:
 285:easyflash/src/ef_env.c ****     EF_ASSERT(status_table);
 1107              		.loc 1 285 5 is_stmt 1 discriminator 1 view .LVU355
 285:easyflash/src/ef_env.c ****     EF_ASSERT(status_table);
 1108              		.loc 1 285 5 discriminator 1 view .LVU356
 285:easyflash/src/ef_env.c ****     EF_ASSERT(status_table);
 1109              		.loc 1 285 5 discriminator 1 view .LVU357
 285:easyflash/src/ef_env.c ****     EF_ASSERT(status_table);
 1110              		.loc 1 285 5 discriminator 1 view .LVU358
 285:easyflash/src/ef_env.c ****     EF_ASSERT(status_table);
 1111              		.loc 1 285 5 discriminator 1 view .LVU359
 285:easyflash/src/ef_env.c ****     EF_ASSERT(status_table);
 1112              		.loc 1 285 5 discriminator 1 view .LVU360
 1113 0060 FEE7     		b	.L112
 1114              	.L119:
 1115 0062 00BF     		.align	2
 1116              	.L118:
 1117 0064 00000000 		.word	.LANCHOR3
 1118 0068 54000000 		.word	.LC3
 1119 006c 1C000000 		.word	.LC1
 1120 0070 3C000000 		.word	.LC2
 1121 0074 00000000 		.word	.LC0
 1122              		.cfi_endproc
 1123              	.LFE237:
 1125              		.section	.text.update_sec_status,"ax",%progbits
 1126              		.align	1
 1127              		.p2align 2,,3
 1128              		.syntax unified
ARM GAS  /tmp/ccSGDQKw.s 			page 52


 1129              		.thumb
 1130              		.thumb_func
 1132              	update_sec_status:
 1133              	.LVL107:
 1134              	.LFB261:
1092:easyflash/src/ef_env.c ****     uint8_t status_table[STORE_STATUS_TABLE_SIZE];
 1135              		.loc 1 1092 1 view -0
 1136              		.cfi_startproc
 1137              		@ args = 0, pretend = 0, frame = 16
 1138              		@ frame_needed = 0, uses_anonymous_args = 0
1092:easyflash/src/ef_env.c ****     uint8_t status_table[STORE_STATUS_TABLE_SIZE];
 1139              		.loc 1 1092 1 is_stmt 0 view .LVU362
 1140 0000 30B5     		push	{r4, r5, lr}
 1141              		.cfi_def_cfa_offset 12
 1142              		.cfi_offset 4, -12
 1143              		.cfi_offset 5, -8
 1144              		.cfi_offset 14, -4
1096:easyflash/src/ef_env.c ****     {
 1145              		.loc 1 1096 23 view .LVU363
 1146 0002 4378     		ldrb	r3, [r0, #1]	@ zero_extendqisi2
1093:easyflash/src/ef_env.c ****     EfErrCode result = EF_NO_ERR;
 1147              		.loc 1 1093 5 is_stmt 1 view .LVU364
1094:easyflash/src/ef_env.c ****     /* change the current sector status */
 1148              		.loc 1 1094 5 view .LVU365
 1149              	.LVL108:
1096:easyflash/src/ef_env.c ****     {
 1150              		.loc 1 1096 5 view .LVU366
1096:easyflash/src/ef_env.c ****     {
 1151              		.loc 1 1096 8 is_stmt 0 view .LVU367
 1152 0004 012B     		cmp	r3, #1
1092:easyflash/src/ef_env.c ****     uint8_t status_table[STORE_STATUS_TABLE_SIZE];
 1153              		.loc 1 1092 1 view .LVU368
 1154 0006 85B0     		sub	sp, sp, #20
 1155              		.cfi_def_cfa_offset 32
1092:easyflash/src/ef_env.c ****     uint8_t status_table[STORE_STATUS_TABLE_SIZE];
 1156              		.loc 1 1092 1 view .LVU369
 1157 0008 0446     		mov	r4, r0
1096:easyflash/src/ef_env.c ****     {
 1158              		.loc 1 1096 8 view .LVU370
 1159 000a 11D0     		beq	.L132
1101:easyflash/src/ef_env.c ****     {
 1160              		.loc 1 1101 10 is_stmt 1 view .LVU371
1101:easyflash/src/ef_env.c ****     {
 1161              		.loc 1 1101 13 is_stmt 0 view .LVU372
 1162 000c 022B     		cmp	r3, #2
 1163 000e 03D0     		beq	.L133
 1164              	.LVL109:
 1165              	.L126:
1094:easyflash/src/ef_env.c ****     /* change the current sector status */
 1166              		.loc 1 1094 15 view .LVU373
 1167 0010 0024     		movs	r4, #0
 1168              	.LVL110:
 1169              	.L122:
1125:easyflash/src/ef_env.c **** }
 1170              		.loc 1 1125 5 is_stmt 1 view .LVU374
1126:easyflash/src/ef_env.c **** 
 1171              		.loc 1 1126 1 is_stmt 0 view .LVU375
ARM GAS  /tmp/ccSGDQKw.s 			page 53


 1172 0012 2046     		mov	r0, r4
 1173 0014 05B0     		add	sp, sp, #20
 1174              		.cfi_remember_state
 1175              		.cfi_def_cfa_offset 12
 1176              		@ sp needed
 1177 0016 30BD     		pop	{r4, r5, pc}
 1178              	.LVL111:
 1179              	.L133:
 1180              		.cfi_restore_state
 1181              	.LBB58:
 1182              	.LBB59:
1104:easyflash/src/ef_env.c ****         {
 1183              		.loc 1 1104 19 view .LVU376
 1184 0018 0369     		ldr	r3, [r0, #16]
1104:easyflash/src/ef_env.c ****         {
 1185              		.loc 1 1104 12 view .LVU377
 1186 001a 472B     		cmp	r3, #71
 1187 001c 1546     		mov	r5, r2
 1188              	.LVL112:
1104:easyflash/src/ef_env.c ****         {
 1189              		.loc 1 1104 12 view .LVU378
 1190              	.LBE59:
 1191              	.LBI58:
1091:easyflash/src/ef_env.c **** {
 1192              		.loc 1 1091 18 is_stmt 1 view .LVU379
 1193              	.LBB60:
1104:easyflash/src/ef_env.c ****         {
 1194              		.loc 1 1104 9 view .LVU380
1104:easyflash/src/ef_env.c ****         {
 1195              		.loc 1 1104 12 is_stmt 0 view .LVU381
 1196 001e 12D9     		bls	.L123
1104:easyflash/src/ef_env.c ****         {
 1197              		.loc 1 1104 72 view .LVU382
 1198 0020 591A     		subs	r1, r3, r1
 1199              	.LVL113:
1104:easyflash/src/ef_env.c ****         {
 1200              		.loc 1 1104 54 view .LVU383
 1201 0022 4729     		cmp	r1, #71
 1202 0024 0FD9     		bls	.L123
1119:easyflash/src/ef_env.c ****         {
 1203              		.loc 1 1119 14 is_stmt 1 view .LVU384
1119:easyflash/src/ef_env.c ****         {
 1204              		.loc 1 1119 17 is_stmt 0 view .LVU385
 1205 0026 002A     		cmp	r2, #0
 1206 0028 F2D0     		beq	.L126
1121:easyflash/src/ef_env.c ****         }
 1207              		.loc 1 1121 13 is_stmt 1 view .LVU386
1121:easyflash/src/ef_env.c ****         }
 1208              		.loc 1 1121 22 is_stmt 0 view .LVU387
 1209 002a 0024     		movs	r4, #0
 1210 002c 1470     		strb	r4, [r2]
 1211 002e F0E7     		b	.L122
 1212              	.LVL114:
 1213              	.L132:
1121:easyflash/src/ef_env.c ****         }
 1214              		.loc 1 1121 22 view .LVU388
 1215              	.LBE60:
ARM GAS  /tmp/ccSGDQKw.s 			page 54


 1216              	.LBE58:
1099:easyflash/src/ef_env.c ****     }
 1217              		.loc 1 1099 9 is_stmt 1 view .LVU389
1099:easyflash/src/ef_env.c ****     }
 1218              		.loc 1 1099 18 is_stmt 0 view .LVU390
 1219 0030 0422     		movs	r2, #4
 1220              	.LVL115:
1099:easyflash/src/ef_env.c ****     }
 1221              		.loc 1 1099 18 view .LVU391
 1222 0032 0223     		movs	r3, #2
 1223 0034 0DEB0201 		add	r1, sp, r2
 1224              	.LVL116:
1099:easyflash/src/ef_env.c ****     }
 1225              		.loc 1 1099 18 view .LVU392
 1226 0038 4068     		ldr	r0, [r0, #4]
 1227              	.LVL117:
1099:easyflash/src/ef_env.c ****     }
 1228              		.loc 1 1099 18 view .LVU393
 1229 003a FFF7FEFF 		bl	write_status
 1230              	.LVL118:
 1231 003e 0446     		mov	r4, r0
 1232              	.LVL119:
1125:easyflash/src/ef_env.c **** }
 1233              		.loc 1 1125 5 is_stmt 1 view .LVU394
1126:easyflash/src/ef_env.c **** 
 1234              		.loc 1 1126 1 is_stmt 0 view .LVU395
 1235 0040 2046     		mov	r0, r4
 1236 0042 05B0     		add	sp, sp, #20
 1237              		.cfi_remember_state
 1238              		.cfi_def_cfa_offset 12
 1239              		@ sp needed
 1240 0044 30BD     		pop	{r4, r5, pc}
 1241              	.LVL120:
 1242              	.L123:
 1243              		.cfi_restore_state
 1244              	.LBB63:
 1245              	.LBB61:
1107:easyflash/src/ef_env.c **** 
 1246              		.loc 1 1107 13 is_stmt 1 view .LVU396
1107:easyflash/src/ef_env.c **** 
 1247              		.loc 1 1107 22 is_stmt 0 view .LVU397
 1248 0046 6068     		ldr	r0, [r4, #4]
 1249              	.LVL121:
1107:easyflash/src/ef_env.c **** 
 1250              		.loc 1 1107 22 view .LVU398
 1251 0048 01A9     		add	r1, sp, #4
 1252 004a 0323     		movs	r3, #3
 1253 004c 0422     		movs	r2, #4
 1254              	.LVL122:
1107:easyflash/src/ef_env.c **** 
 1255              		.loc 1 1107 22 view .LVU399
 1256 004e FFF7FEFF 		bl	write_status
 1257              	.LVL123:
1111:easyflash/src/ef_env.c **** #endif /* EF_ENV_USING_CACHE */
 1258              		.loc 1 1111 13 view .LVU400
 1259 0052 6368     		ldr	r3, [r4, #4]
1107:easyflash/src/ef_env.c **** 
ARM GAS  /tmp/ccSGDQKw.s 			page 55


 1260              		.loc 1 1107 22 view .LVU401
 1261 0054 0446     		mov	r4, r0
 1262              	.LVL124:
1111:easyflash/src/ef_env.c **** #endif /* EF_ENV_USING_CACHE */
 1263              		.loc 1 1111 13 is_stmt 1 view .LVU402
 1264 0056 03F50031 		add	r1, r3, #131072
 1265 005a 1846     		mov	r0, r3
 1266 005c FFF7FEFF 		bl	update_sector_cache
 1267              	.LVL125:
1114:easyflash/src/ef_env.c ****             {
 1268              		.loc 1 1114 13 view .LVU403
1114:easyflash/src/ef_env.c ****             {
 1269              		.loc 1 1114 16 is_stmt 0 view .LVU404
 1270 0060 002D     		cmp	r5, #0
 1271 0062 D6D0     		beq	.L122
1116:easyflash/src/ef_env.c ****             }
 1272              		.loc 1 1116 17 is_stmt 1 view .LVU405
1116:easyflash/src/ef_env.c ****             }
 1273              		.loc 1 1116 26 is_stmt 0 view .LVU406
 1274 0064 0123     		movs	r3, #1
 1275              	.LBE61:
 1276              	.LBE63:
1126:easyflash/src/ef_env.c **** 
 1277              		.loc 1 1126 1 view .LVU407
 1278 0066 2046     		mov	r0, r4
 1279              	.LBB64:
 1280              	.LBB62:
1116:easyflash/src/ef_env.c ****             }
 1281              		.loc 1 1116 26 view .LVU408
 1282 0068 2B70     		strb	r3, [r5]
 1283              	.LVL126:
1116:easyflash/src/ef_env.c ****             }
 1284              		.loc 1 1116 26 view .LVU409
 1285              	.LBE62:
 1286              	.LBE64:
1125:easyflash/src/ef_env.c **** }
 1287              		.loc 1 1125 5 is_stmt 1 view .LVU410
1126:easyflash/src/ef_env.c **** 
 1288              		.loc 1 1126 1 is_stmt 0 view .LVU411
 1289 006a 05B0     		add	sp, sp, #20
 1290              		.cfi_def_cfa_offset 12
 1291              		@ sp needed
 1292 006c 30BD     		pop	{r4, r5, pc}
1126:easyflash/src/ef_env.c **** 
 1293              		.loc 1 1126 1 view .LVU412
 1294              		.cfi_endproc
 1295              	.LFE261:
 1297 006e 00BF     		.section	.rodata.print_env_cb.str1.4,"aMS",%progbits,1
 1298              		.align	2
 1299              	.LC4:
 1300 0000 252E2A73 		.ascii	"%.*s=\000"
 1300      3D00
 1301 0006 0000     		.align	2
 1302              	.LC5:
 1303 0008 252E2A73 		.ascii	"%.*s\000"
 1303      00
 1304 000d 000000   		.align	2
ARM GAS  /tmp/ccSGDQKw.s 			page 56


 1305              	.LC6:
 1306 0010 626C6F62 		.ascii	"blob @0x%08X %dbytes\000"
 1306      20403078 
 1306      25303858 
 1306      20256462 
 1306      79746573 
 1307 0025 000000   		.align	2
 1308              	.LC7:
 1309 0028 0D0A00   		.ascii	"\015\012\000"
 1310              		.section	.text.print_env_cb,"ax",%progbits
 1311              		.align	1
 1312              		.p2align 2,,3
 1313              		.syntax unified
 1314              		.thumb
 1315              		.thumb_func
 1317              	print_env_cb:
 1318              	.LVL127:
 1319              	.LFB283:
1469:easyflash/src/ef_env.c **** 
1470:easyflash/src/ef_env.c **** static EfErrCode create_env_blob(sector_meta_data_t sector, const char *key, const void *value, siz
1471:easyflash/src/ef_env.c **** {
1472:easyflash/src/ef_env.c ****     EfErrCode result = EF_NO_ERR;
1473:easyflash/src/ef_env.c ****     struct env_hdr_data env_hdr;
1474:easyflash/src/ef_env.c ****     bool is_full = false;
1475:easyflash/src/ef_env.c ****     uint32_t env_addr = sector->empty_env;
1476:easyflash/src/ef_env.c **** 
1477:easyflash/src/ef_env.c ****     if (strlen(key) > EF_ENV_NAME_MAX)
1478:easyflash/src/ef_env.c ****     {
1479:easyflash/src/ef_env.c ****         EF_INFO("Error: The ENV name length is more than %d", EF_ENV_NAME_MAX);
1480:easyflash/src/ef_env.c ****         return EF_ENV_NAME_ERR;
1481:easyflash/src/ef_env.c ****     }
1482:easyflash/src/ef_env.c **** 
1483:easyflash/src/ef_env.c ****     memset(&env_hdr, 0xFF, sizeof(struct env_hdr_data));
1484:easyflash/src/ef_env.c ****     env_hdr.magic = ENV_MAGIC_WORD;
1485:easyflash/src/ef_env.c ****     env_hdr.name_len = strlen(key);
1486:easyflash/src/ef_env.c ****     env_hdr.value_len = len;
1487:easyflash/src/ef_env.c ****     env_hdr.len = ENV_HDR_DATA_SIZE + EF_WG_ALIGN(env_hdr.name_len) + EF_WG_ALIGN(env_hdr.value_len
1488:easyflash/src/ef_env.c **** 
1489:easyflash/src/ef_env.c ****     if (env_hdr.len > SECTOR_SIZE - SECTOR_HDR_DATA_SIZE)
1490:easyflash/src/ef_env.c ****     {
1491:easyflash/src/ef_env.c ****         EF_INFO("Error: The ENV size is too big");
1492:easyflash/src/ef_env.c ****         return EF_ENV_FULL;
1493:easyflash/src/ef_env.c ****     }
1494:easyflash/src/ef_env.c **** 
1495:easyflash/src/ef_env.c ****     if (env_addr != FAILED_ADDR || (env_addr = new_env(sector, env_hdr.len)) != FAILED_ADDR)
1496:easyflash/src/ef_env.c ****     {
1497:easyflash/src/ef_env.c ****         size_t align_remain;
1498:easyflash/src/ef_env.c ****         /* update the sector status */
1499:easyflash/src/ef_env.c ****         if (result == EF_NO_ERR)
1500:easyflash/src/ef_env.c ****         {
1501:easyflash/src/ef_env.c ****             result = update_sec_status(sector, env_hdr.len, &is_full);
1502:easyflash/src/ef_env.c ****         }
1503:easyflash/src/ef_env.c ****         if (result == EF_NO_ERR)
1504:easyflash/src/ef_env.c ****         {
1505:easyflash/src/ef_env.c ****             uint8_t ff = 0xFF;
1506:easyflash/src/ef_env.c ****             /* start calculate CRC32 */
1507:easyflash/src/ef_env.c ****             env_hdr.crc32 = ef_calc_crc32(0, &env_hdr.name_len, ENV_HDR_DATA_SIZE - ENV_NAME_LEN_OF
ARM GAS  /tmp/ccSGDQKw.s 			page 57


1508:easyflash/src/ef_env.c ****             env_hdr.crc32 = ef_calc_crc32(env_hdr.crc32, key, env_hdr.name_len);
1509:easyflash/src/ef_env.c ****             align_remain = EF_WG_ALIGN(env_hdr.name_len) - env_hdr.name_len;
1510:easyflash/src/ef_env.c ****             while (align_remain--)
1511:easyflash/src/ef_env.c ****             {
1512:easyflash/src/ef_env.c ****                 env_hdr.crc32 = ef_calc_crc32(env_hdr.crc32, &ff, 1);
1513:easyflash/src/ef_env.c ****             }
1514:easyflash/src/ef_env.c ****             env_hdr.crc32 = ef_calc_crc32(env_hdr.crc32, value, env_hdr.value_len);
1515:easyflash/src/ef_env.c ****             align_remain = EF_WG_ALIGN(env_hdr.value_len) - env_hdr.value_len;
1516:easyflash/src/ef_env.c ****             while (align_remain--)
1517:easyflash/src/ef_env.c ****             {
1518:easyflash/src/ef_env.c ****                 env_hdr.crc32 = ef_calc_crc32(env_hdr.crc32, &ff, 1);
1519:easyflash/src/ef_env.c ****             }
1520:easyflash/src/ef_env.c ****             /* write ENV header data */
1521:easyflash/src/ef_env.c ****             result = write_env_hdr(env_addr, &env_hdr);
1522:easyflash/src/ef_env.c **** 
1523:easyflash/src/ef_env.c ****         }
1524:easyflash/src/ef_env.c ****         /* write key name */
1525:easyflash/src/ef_env.c ****         if (result == EF_NO_ERR)
1526:easyflash/src/ef_env.c ****         {
1527:easyflash/src/ef_env.c ****             result = align_write(env_addr + ENV_HDR_DATA_SIZE, (uint32_t *) key, env_hdr.name_len);
1528:easyflash/src/ef_env.c **** 
1529:easyflash/src/ef_env.c **** #ifdef EF_ENV_USING_CACHE
1530:easyflash/src/ef_env.c ****             if (!is_full)
1531:easyflash/src/ef_env.c ****             {
1532:easyflash/src/ef_env.c ****                 update_sector_cache(sector->addr,
1533:easyflash/src/ef_env.c ****                                     env_addr + ENV_HDR_DATA_SIZE + EF_WG_ALIGN(env_hdr.name_len) + 
1534:easyflash/src/ef_env.c ****             }
1535:easyflash/src/ef_env.c ****             update_env_cache(key, env_hdr.name_len, env_addr);
1536:easyflash/src/ef_env.c **** #endif /* EF_ENV_USING_CACHE */
1537:easyflash/src/ef_env.c ****         }
1538:easyflash/src/ef_env.c ****         /* write value */
1539:easyflash/src/ef_env.c ****         if (result == EF_NO_ERR)
1540:easyflash/src/ef_env.c ****         {
1541:easyflash/src/ef_env.c ****             result = align_write(env_addr + ENV_HDR_DATA_SIZE + EF_WG_ALIGN(env_hdr.name_len), valu
1542:easyflash/src/ef_env.c ****                                  env_hdr.value_len);
1543:easyflash/src/ef_env.c ****         }
1544:easyflash/src/ef_env.c ****         /* change the ENV status to ENV_WRITE */
1545:easyflash/src/ef_env.c ****         if (result == EF_NO_ERR)
1546:easyflash/src/ef_env.c ****         {
1547:easyflash/src/ef_env.c ****             result = write_status(env_addr, env_hdr.status_table, ENV_STATUS_NUM, ENV_WRITE);
1548:easyflash/src/ef_env.c ****         }
1549:easyflash/src/ef_env.c ****         /* trigger GC collect when current sector is full */
1550:easyflash/src/ef_env.c ****         if (result == EF_NO_ERR && is_full)
1551:easyflash/src/ef_env.c ****         {
1552:easyflash/src/ef_env.c ****             EF_DEBUG("Trigger a GC check after created ENV.");
1553:easyflash/src/ef_env.c ****             gc_request = true;
1554:easyflash/src/ef_env.c ****         }
1555:easyflash/src/ef_env.c ****     }
1556:easyflash/src/ef_env.c ****     else
1557:easyflash/src/ef_env.c ****     {
1558:easyflash/src/ef_env.c ****         result = EF_ENV_FULL;
1559:easyflash/src/ef_env.c ****     }
1560:easyflash/src/ef_env.c **** 
1561:easyflash/src/ef_env.c ****     return result;
1562:easyflash/src/ef_env.c **** }
1563:easyflash/src/ef_env.c **** 
1564:easyflash/src/ef_env.c **** /**
ARM GAS  /tmp/ccSGDQKw.s 			page 58


1565:easyflash/src/ef_env.c ****  * Delete an ENV.
1566:easyflash/src/ef_env.c ****  *
1567:easyflash/src/ef_env.c ****  * @param key ENV name
1568:easyflash/src/ef_env.c ****  *
1569:easyflash/src/ef_env.c ****  * @return result
1570:easyflash/src/ef_env.c ****  */
1571:easyflash/src/ef_env.c **** EfErrCode ef_del_env(const char *key)
1572:easyflash/src/ef_env.c **** {
1573:easyflash/src/ef_env.c ****     EfErrCode result = EF_NO_ERR;
1574:easyflash/src/ef_env.c **** 
1575:easyflash/src/ef_env.c ****     if (!init_ok)
1576:easyflash/src/ef_env.c ****     {
1577:easyflash/src/ef_env.c ****         EF_INFO("Error: ENV isn't initialize OK.");
1578:easyflash/src/ef_env.c ****         return EF_ENV_INIT_FAILED;
1579:easyflash/src/ef_env.c ****     }
1580:easyflash/src/ef_env.c **** 
1581:easyflash/src/ef_env.c ****     /* lock the ENV cache */
1582:easyflash/src/ef_env.c ****     ef_port_env_lock();
1583:easyflash/src/ef_env.c **** 
1584:easyflash/src/ef_env.c ****     result = del_env(key, NULL, true);
1585:easyflash/src/ef_env.c **** 
1586:easyflash/src/ef_env.c ****     /* unlock the ENV cache */
1587:easyflash/src/ef_env.c ****     ef_port_env_unlock();
1588:easyflash/src/ef_env.c **** 
1589:easyflash/src/ef_env.c ****     return result;
1590:easyflash/src/ef_env.c **** }
1591:easyflash/src/ef_env.c **** 
1592:easyflash/src/ef_env.c **** /**
1593:easyflash/src/ef_env.c ****  * The same to ef_del_env on this mode
1594:easyflash/src/ef_env.c ****  * It's compatibility with older versions (less then V4.0).
1595:easyflash/src/ef_env.c ****  *
1596:easyflash/src/ef_env.c ****  * @note this function is DEPRECATED
1597:easyflash/src/ef_env.c ****  *
1598:easyflash/src/ef_env.c ****  * @param key ENV name
1599:easyflash/src/ef_env.c ****  *
1600:easyflash/src/ef_env.c ****  * @return result
1601:easyflash/src/ef_env.c ****  */
1602:easyflash/src/ef_env.c **** EfErrCode ef_del_and_save_env(const char *key)
1603:easyflash/src/ef_env.c **** {
1604:easyflash/src/ef_env.c ****     return ef_del_env(key);
1605:easyflash/src/ef_env.c **** }
1606:easyflash/src/ef_env.c **** 
1607:easyflash/src/ef_env.c **** static EfErrCode set_env(const char *key, const void *value_buf, size_t buf_len)
1608:easyflash/src/ef_env.c **** {
1609:easyflash/src/ef_env.c ****     EfErrCode result = EF_NO_ERR;
1610:easyflash/src/ef_env.c ****     static struct env_node_obj env;
1611:easyflash/src/ef_env.c ****     static struct sector_meta_data sector;
1612:easyflash/src/ef_env.c ****     bool env_is_found = false;
1613:easyflash/src/ef_env.c **** 
1614:easyflash/src/ef_env.c ****     if (value_buf == NULL)
1615:easyflash/src/ef_env.c ****     {
1616:easyflash/src/ef_env.c ****         result = del_env(key, NULL, true);
1617:easyflash/src/ef_env.c ****     }
1618:easyflash/src/ef_env.c ****     else
1619:easyflash/src/ef_env.c ****     {
1620:easyflash/src/ef_env.c ****         /* make sure the flash has enough space */
1621:easyflash/src/ef_env.c ****         if (new_env_by_kv(&sector, strlen(key), buf_len) == FAILED_ADDR)
ARM GAS  /tmp/ccSGDQKw.s 			page 59


1622:easyflash/src/ef_env.c ****         {
1623:easyflash/src/ef_env.c ****             return EF_ENV_FULL;
1624:easyflash/src/ef_env.c ****         }
1625:easyflash/src/ef_env.c ****         env_is_found = find_env(key, &env);
1626:easyflash/src/ef_env.c ****         /* prepare to delete the old ENV */
1627:easyflash/src/ef_env.c ****         if (env_is_found)
1628:easyflash/src/ef_env.c ****         {
1629:easyflash/src/ef_env.c ****             result = del_env(key, &env, false);
1630:easyflash/src/ef_env.c ****         }
1631:easyflash/src/ef_env.c ****         /* create the new ENV */
1632:easyflash/src/ef_env.c ****         if (result == EF_NO_ERR)
1633:easyflash/src/ef_env.c ****         {
1634:easyflash/src/ef_env.c ****             result = create_env_blob(&sector, key, value_buf, buf_len);
1635:easyflash/src/ef_env.c ****         }
1636:easyflash/src/ef_env.c ****         /* delete the old ENV */
1637:easyflash/src/ef_env.c ****         if (env_is_found && result == EF_NO_ERR)
1638:easyflash/src/ef_env.c ****         {
1639:easyflash/src/ef_env.c ****             result = del_env(key, &env, true);
1640:easyflash/src/ef_env.c ****         }
1641:easyflash/src/ef_env.c ****         /* process the GC after set ENV */
1642:easyflash/src/ef_env.c ****         if (gc_request)
1643:easyflash/src/ef_env.c ****         {
1644:easyflash/src/ef_env.c ****             gc_collect();
1645:easyflash/src/ef_env.c ****         }
1646:easyflash/src/ef_env.c ****     }
1647:easyflash/src/ef_env.c **** 
1648:easyflash/src/ef_env.c ****     return result;
1649:easyflash/src/ef_env.c **** }
1650:easyflash/src/ef_env.c **** 
1651:easyflash/src/ef_env.c **** /**
1652:easyflash/src/ef_env.c ****  * Set a blob ENV. If it value is NULL, delete it.
1653:easyflash/src/ef_env.c ****  * If not find it in flash, then create it.
1654:easyflash/src/ef_env.c ****  *
1655:easyflash/src/ef_env.c ****  * @param key ENV name
1656:easyflash/src/ef_env.c ****  * @param value ENV value
1657:easyflash/src/ef_env.c ****  * @param len ENV value length
1658:easyflash/src/ef_env.c ****  *
1659:easyflash/src/ef_env.c ****  * @return result
1660:easyflash/src/ef_env.c ****  */
1661:easyflash/src/ef_env.c **** EfErrCode ef_set_env_blob(const char *key, const void *value_buf, size_t buf_len)
1662:easyflash/src/ef_env.c **** {
1663:easyflash/src/ef_env.c ****     EfErrCode result = EF_NO_ERR;
1664:easyflash/src/ef_env.c **** 
1665:easyflash/src/ef_env.c **** 
1666:easyflash/src/ef_env.c ****     if (!init_ok)
1667:easyflash/src/ef_env.c ****     {
1668:easyflash/src/ef_env.c ****         EF_INFO("ENV isn't initialize OK.");
1669:easyflash/src/ef_env.c ****         return EF_ENV_INIT_FAILED;
1670:easyflash/src/ef_env.c ****     }
1671:easyflash/src/ef_env.c **** 
1672:easyflash/src/ef_env.c ****     /* lock the ENV cache */
1673:easyflash/src/ef_env.c ****     ef_port_env_lock();
1674:easyflash/src/ef_env.c **** 
1675:easyflash/src/ef_env.c ****     result = set_env(key, value_buf, buf_len);
1676:easyflash/src/ef_env.c **** 
1677:easyflash/src/ef_env.c ****     /* unlock the ENV cache */
1678:easyflash/src/ef_env.c ****     ef_port_env_unlock();
ARM GAS  /tmp/ccSGDQKw.s 			page 60


1679:easyflash/src/ef_env.c **** 
1680:easyflash/src/ef_env.c ****     return result;
1681:easyflash/src/ef_env.c **** }
1682:easyflash/src/ef_env.c **** 
1683:easyflash/src/ef_env.c **** /**
1684:easyflash/src/ef_env.c ****  * Set a string ENV. If it value is NULL, delete it.
1685:easyflash/src/ef_env.c ****  * If not find it in flash, then create it.
1686:easyflash/src/ef_env.c ****  *
1687:easyflash/src/ef_env.c ****  * @param key ENV name
1688:easyflash/src/ef_env.c ****  * @param value ENV value
1689:easyflash/src/ef_env.c ****  *
1690:easyflash/src/ef_env.c ****  * @return result
1691:easyflash/src/ef_env.c ****  */
1692:easyflash/src/ef_env.c **** EfErrCode ef_set_env(const char *key, const char *value)
1693:easyflash/src/ef_env.c **** {
1694:easyflash/src/ef_env.c ****     return ef_set_env_blob(key, value, strlen(value));
1695:easyflash/src/ef_env.c **** }
1696:easyflash/src/ef_env.c **** 
1697:easyflash/src/ef_env.c **** /**
1698:easyflash/src/ef_env.c ****  * The same to ef_set_env on this mode.
1699:easyflash/src/ef_env.c ****  * It's compatibility with older versions (less then V4.0).
1700:easyflash/src/ef_env.c ****  *
1701:easyflash/src/ef_env.c ****  * @note this function is DEPRECATED
1702:easyflash/src/ef_env.c ****  *
1703:easyflash/src/ef_env.c ****  * @param key ENV name
1704:easyflash/src/ef_env.c ****  * @param value ENV value
1705:easyflash/src/ef_env.c ****  *
1706:easyflash/src/ef_env.c ****  * @return result
1707:easyflash/src/ef_env.c ****  */
1708:easyflash/src/ef_env.c **** EfErrCode ef_set_and_save_env(const char *key, const char *value)
1709:easyflash/src/ef_env.c **** {
1710:easyflash/src/ef_env.c ****     return ef_set_env_blob(key, value, strlen(value));
1711:easyflash/src/ef_env.c **** }
1712:easyflash/src/ef_env.c **** 
1713:easyflash/src/ef_env.c **** /**
1714:easyflash/src/ef_env.c ****  * Save ENV to flash.
1715:easyflash/src/ef_env.c ****  *
1716:easyflash/src/ef_env.c ****  * @note this function is DEPRECATED
1717:easyflash/src/ef_env.c ****  */
1718:easyflash/src/ef_env.c **** EfErrCode ef_save_env(void)
1719:easyflash/src/ef_env.c **** {
1720:easyflash/src/ef_env.c ****     /* do nothing not cur mode */
1721:easyflash/src/ef_env.c ****     return EF_NO_ERR;
1722:easyflash/src/ef_env.c **** }
1723:easyflash/src/ef_env.c **** 
1724:easyflash/src/ef_env.c **** /**
1725:easyflash/src/ef_env.c ****  * ENV set default.
1726:easyflash/src/ef_env.c ****  *
1727:easyflash/src/ef_env.c ****  * @return result
1728:easyflash/src/ef_env.c ****  */
1729:easyflash/src/ef_env.c **** EfErrCode ef_env_set_default(void)
1730:easyflash/src/ef_env.c **** {
1731:easyflash/src/ef_env.c ****     EfErrCode result = EF_NO_ERR;
1732:easyflash/src/ef_env.c ****     uint32_t addr, i, value_len;
1733:easyflash/src/ef_env.c ****     struct sector_meta_data sector;
1734:easyflash/src/ef_env.c **** 
1735:easyflash/src/ef_env.c ****     EF_ASSERT(default_env_set);
ARM GAS  /tmp/ccSGDQKw.s 			page 61


1736:easyflash/src/ef_env.c ****     EF_ASSERT(default_env_set_size);
1737:easyflash/src/ef_env.c **** 
1738:easyflash/src/ef_env.c ****     /* lock the ENV cache */
1739:easyflash/src/ef_env.c ****     ef_port_env_lock();
1740:easyflash/src/ef_env.c ****     /* format all sectors */
1741:easyflash/src/ef_env.c ****     for (addr = env_start_addr; addr < env_start_addr + ENV_AREA_SIZE; addr += SECTOR_SIZE)
1742:easyflash/src/ef_env.c ****     {
1743:easyflash/src/ef_env.c ****         result = format_sector(addr, SECTOR_NOT_COMBINED);
1744:easyflash/src/ef_env.c ****         if (result != EF_NO_ERR)
1745:easyflash/src/ef_env.c ****         {
1746:easyflash/src/ef_env.c ****             goto __exit;
1747:easyflash/src/ef_env.c ****         }
1748:easyflash/src/ef_env.c ****     }
1749:easyflash/src/ef_env.c ****     /* create default ENV */
1750:easyflash/src/ef_env.c ****     for (i = 0; i < default_env_set_size; i++)
1751:easyflash/src/ef_env.c ****     {
1752:easyflash/src/ef_env.c ****         /* It seems to be a string when value length is 0.
1753:easyflash/src/ef_env.c ****          * This mechanism is for compatibility with older versions (less then V4.0). */
1754:easyflash/src/ef_env.c ****         if (default_env_set[i].value_len == 0)
1755:easyflash/src/ef_env.c ****         {
1756:easyflash/src/ef_env.c ****             value_len = strlen(default_env_set[i].value);
1757:easyflash/src/ef_env.c ****         }
1758:easyflash/src/ef_env.c ****         else
1759:easyflash/src/ef_env.c ****         {
1760:easyflash/src/ef_env.c ****             value_len = default_env_set[i].value_len;
1761:easyflash/src/ef_env.c ****         }
1762:easyflash/src/ef_env.c ****         sector.empty_env = FAILED_ADDR;
1763:easyflash/src/ef_env.c ****         create_env_blob(&sector, default_env_set[i].key, default_env_set[i].value, value_len);
1764:easyflash/src/ef_env.c ****         if (result != EF_NO_ERR)
1765:easyflash/src/ef_env.c ****         {
1766:easyflash/src/ef_env.c ****             goto __exit;
1767:easyflash/src/ef_env.c ****         }
1768:easyflash/src/ef_env.c ****     }
1769:easyflash/src/ef_env.c **** 
1770:easyflash/src/ef_env.c **** __exit:
1771:easyflash/src/ef_env.c ****     /* unlock the ENV cache */
1772:easyflash/src/ef_env.c ****     ef_port_env_unlock();
1773:easyflash/src/ef_env.c **** 
1774:easyflash/src/ef_env.c ****     return result;
1775:easyflash/src/ef_env.c **** }
1776:easyflash/src/ef_env.c **** 
1777:easyflash/src/ef_env.c **** static bool print_env_cb(env_node_obj_t env, void *arg1, void *arg2)
1778:easyflash/src/ef_env.c **** {
 1320              		.loc 1 1778 1 is_stmt 1 view -0
 1321              		.cfi_startproc
 1322              		@ args = 0, pretend = 0, frame = 32
 1323              		@ frame_needed = 0, uses_anonymous_args = 0
1779:easyflash/src/ef_env.c ****     bool value_is_str = true, print_value = false;
 1324              		.loc 1 1779 5 view .LVU414
1780:easyflash/src/ef_env.c ****     size_t *using_size = arg1;
 1325              		.loc 1 1780 5 view .LVU415
1781:easyflash/src/ef_env.c **** 
1782:easyflash/src/ef_env.c ****     if (env->crc_is_ok)
 1326              		.loc 1 1782 5 view .LVU416
1778:easyflash/src/ef_env.c ****     bool value_is_str = true, print_value = false;
 1327              		.loc 1 1778 1 is_stmt 0 view .LVU417
 1328 0000 2DE9F043 		push	{r4, r5, r6, r7, r8, r9, lr}
ARM GAS  /tmp/ccSGDQKw.s 			page 62


 1329              		.cfi_def_cfa_offset 28
 1330              		.cfi_offset 4, -28
 1331              		.cfi_offset 5, -24
 1332              		.cfi_offset 6, -20
 1333              		.cfi_offset 7, -16
 1334              		.cfi_offset 8, -12
 1335              		.cfi_offset 9, -8
 1336              		.cfi_offset 14, -4
 1337              		.loc 1 1782 12 view .LVU418
 1338 0004 4578     		ldrb	r5, [r0, #1]	@ zero_extendqisi2
1778:easyflash/src/ef_env.c ****     bool value_is_str = true, print_value = false;
 1339              		.loc 1 1778 1 view .LVU419
 1340 0006 89B0     		sub	sp, sp, #36
 1341              		.cfi_def_cfa_offset 64
 1342              		.loc 1 1782 8 view .LVU420
 1343 0008 3DB1     		cbz	r5, .L155
1783:easyflash/src/ef_env.c ****     {
1784:easyflash/src/ef_env.c ****         /* calculate the total using flash size */
1785:easyflash/src/ef_env.c ****         *using_size += env->len;
 1344              		.loc 1 1785 21 view .LVU421
 1345 000a 0B68     		ldr	r3, [r1]
 1346 000c 8268     		ldr	r2, [r0, #8]
 1347              	.LVL128:
 1348              		.loc 1 1785 21 view .LVU422
 1349 000e 1344     		add	r3, r3, r2
 1350 0010 0B60     		str	r3, [r1]
1786:easyflash/src/ef_env.c ****         /* check ENV */
1787:easyflash/src/ef_env.c ****         if (env->status == ENV_WRITE)
 1351              		.loc 1 1787 12 view .LVU423
 1352 0012 0378     		ldrb	r3, [r0]	@ zero_extendqisi2
 1353 0014 022B     		cmp	r3, #2
 1354 0016 0446     		mov	r4, r0
1785:easyflash/src/ef_env.c ****         /* check ENV */
 1355              		.loc 1 1785 9 is_stmt 1 view .LVU424
 1356              		.loc 1 1787 9 view .LVU425
 1357              		.loc 1 1787 12 is_stmt 0 view .LVU426
 1358 0018 03D0     		beq	.L161
 1359              	.L155:
1788:easyflash/src/ef_env.c ****         {
1789:easyflash/src/ef_env.c ****             ef_print("%.*s=", env->name_len, env->name);
1790:easyflash/src/ef_env.c **** 
1791:easyflash/src/ef_env.c ****             if (env->value_len < EF_STR_ENV_VALUE_MAX_SIZE)
1792:easyflash/src/ef_env.c ****             {
1793:easyflash/src/ef_env.c ****                 uint8_t buf[32];
1794:easyflash/src/ef_env.c ****                 size_t len, size;
1795:easyflash/src/ef_env.c **** __reload:
1796:easyflash/src/ef_env.c ****                 /* check the value is string */
1797:easyflash/src/ef_env.c ****                 for (len = 0, size = 0; len < env->value_len; len += size)
1798:easyflash/src/ef_env.c ****                 {
1799:easyflash/src/ef_env.c ****                     if (len + sizeof(buf) < env->value_len)
1800:easyflash/src/ef_env.c ****                     {
1801:easyflash/src/ef_env.c ****                         size = sizeof(buf);
1802:easyflash/src/ef_env.c ****                     }
1803:easyflash/src/ef_env.c ****                     else
1804:easyflash/src/ef_env.c ****                     {
1805:easyflash/src/ef_env.c ****                         size = env->value_len - len;
1806:easyflash/src/ef_env.c ****                     }
ARM GAS  /tmp/ccSGDQKw.s 			page 63


1807:easyflash/src/ef_env.c ****                     ef_port_read(env->addr.value + len, (uint32_t *) buf, EF_WG_ALIGN(size));
1808:easyflash/src/ef_env.c ****                     if (print_value)
1809:easyflash/src/ef_env.c ****                     {
1810:easyflash/src/ef_env.c ****                         ef_print("%.*s", size, buf);
1811:easyflash/src/ef_env.c ****                     }
1812:easyflash/src/ef_env.c ****                     else if (!ef_is_str(buf, size))
1813:easyflash/src/ef_env.c ****                     {
1814:easyflash/src/ef_env.c ****                         value_is_str = false;
1815:easyflash/src/ef_env.c ****                         break;
1816:easyflash/src/ef_env.c ****                     }
1817:easyflash/src/ef_env.c ****                 }
1818:easyflash/src/ef_env.c ****             }
1819:easyflash/src/ef_env.c ****             else
1820:easyflash/src/ef_env.c ****             {
1821:easyflash/src/ef_env.c ****                 value_is_str = false;
1822:easyflash/src/ef_env.c ****             }
1823:easyflash/src/ef_env.c ****             if (value_is_str && !print_value)
1824:easyflash/src/ef_env.c ****             {
1825:easyflash/src/ef_env.c ****                 print_value = true;
1826:easyflash/src/ef_env.c ****                 goto __reload;
1827:easyflash/src/ef_env.c ****             }
1828:easyflash/src/ef_env.c ****             else if (!value_is_str)
1829:easyflash/src/ef_env.c ****             {
1830:easyflash/src/ef_env.c ****                 ef_print("blob @0x%08X %dbytes", env->addr.value, env->value_len);
1831:easyflash/src/ef_env.c ****             }
1832:easyflash/src/ef_env.c ****             ef_print("\r\n");
1833:easyflash/src/ef_env.c ****         }
1834:easyflash/src/ef_env.c ****     }
1835:easyflash/src/ef_env.c **** 
1836:easyflash/src/ef_env.c ****     return false;
1837:easyflash/src/ef_env.c **** }
 1360              		.loc 1 1837 1 view .LVU427
 1361 001a 0020     		movs	r0, #0
 1362              	.LVL129:
 1363              		.loc 1 1837 1 view .LVU428
 1364 001c 09B0     		add	sp, sp, #36
 1365              		.cfi_remember_state
 1366              		.cfi_def_cfa_offset 28
 1367              		@ sp needed
 1368 001e BDE8F083 		pop	{r4, r5, r6, r7, r8, r9, pc}
 1369              	.LVL130:
 1370              	.L161:
 1371              		.cfi_restore_state
 1372              	.LBB70:
 1373              	.LBI70:
1777:easyflash/src/ef_env.c **** {
 1374              		.loc 1 1777 13 is_stmt 1 view .LVU429
 1375              	.LBB71:
1789:easyflash/src/ef_env.c **** 
 1376              		.loc 1 1789 13 view .LVU430
 1377 0022 8178     		ldrb	r1, [r0, #2]	@ zero_extendqisi2
 1378              	.LVL131:
1789:easyflash/src/ef_env.c **** 
 1379              		.loc 1 1789 13 is_stmt 0 view .LVU431
 1380 0024 2748     		ldr	r0, .L167
 1381              	.LVL132:
1789:easyflash/src/ef_env.c **** 
ARM GAS  /tmp/ccSGDQKw.s 			page 64


 1382              		.loc 1 1789 13 view .LVU432
 1383 0026 04F11002 		add	r2, r4, #16
 1384 002a FFF7FEFF 		bl	ef_print
 1385              	.LVL133:
1791:easyflash/src/ef_env.c ****             {
 1386              		.loc 1 1791 13 is_stmt 1 view .LVU433
1791:easyflash/src/ef_env.c ****             {
 1387              		.loc 1 1791 20 is_stmt 0 view .LVU434
 1388 002e E268     		ldr	r2, [r4, #12]
1791:easyflash/src/ef_env.c ****             {
 1389              		.loc 1 1791 16 view .LVU435
 1390 0030 7F2A     		cmp	r2, #127
 1391 0032 0AD9     		bls	.L162
 1392              	.L138:
1830:easyflash/src/ef_env.c ****             }
 1393              		.loc 1 1830 17 is_stmt 1 view .LVU436
 1394 0034 616B     		ldr	r1, [r4, #52]
 1395 0036 2448     		ldr	r0, .L167+4
 1396 0038 FFF7FEFF 		bl	ef_print
 1397              	.LVL134:
 1398              	.L148:
1832:easyflash/src/ef_env.c ****         }
 1399              		.loc 1 1832 13 view .LVU437
 1400 003c 2348     		ldr	r0, .L167+8
 1401 003e FFF7FEFF 		bl	ef_print
 1402              	.LVL135:
1832:easyflash/src/ef_env.c ****         }
 1403              		.loc 1 1832 13 is_stmt 0 view .LVU438
 1404              	.LBE71:
 1405              	.LBE70:
1836:easyflash/src/ef_env.c **** }
 1406              		.loc 1 1836 5 is_stmt 1 view .LVU439
 1407              		.loc 1 1837 1 is_stmt 0 view .LVU440
 1408 0042 0020     		movs	r0, #0
 1409 0044 09B0     		add	sp, sp, #36
 1410              		.cfi_remember_state
 1411              		.cfi_def_cfa_offset 28
 1412              		@ sp needed
 1413 0046 BDE8F083 		pop	{r4, r5, r6, r7, r8, r9, pc}
 1414              	.LVL136:
 1415              	.L162:
 1416              		.cfi_restore_state
 1417              	.L139:
 1418              	.LBB78:
 1419              	.LBB77:
 1420              	.LBB72:
1793:easyflash/src/ef_env.c ****                 size_t len, size;
 1421              		.loc 1 1793 17 is_stmt 1 view .LVU441
1794:easyflash/src/ef_env.c **** __reload:
 1422              		.loc 1 1794 17 view .LVU442
1797:easyflash/src/ef_env.c ****                 {
 1423              		.loc 1 1797 17 view .LVU443
1797:easyflash/src/ef_env.c ****                 {
 1424              		.loc 1 1797 41 view .LVU444
1797:easyflash/src/ef_env.c ****                 {
 1425              		.loc 1 1797 17 is_stmt 0 view .LVU445
 1426 004a 002A     		cmp	r2, #0
ARM GAS  /tmp/ccSGDQKw.s 			page 65


 1427 004c F6D0     		beq	.L148
1810:easyflash/src/ef_env.c ****                     }
 1428              		.loc 1 1810 25 view .LVU446
 1429 004e 204F     		ldr	r7, .L167+12
 1430              	.LBE72:
1779:easyflash/src/ef_env.c ****     size_t *using_size = arg1;
 1431              		.loc 1 1779 31 view .LVU447
 1432 0050 0026     		movs	r6, #0
 1433              	.LVL137:
 1434              	.L149:
 1435              	.LBB75:
1797:easyflash/src/ef_env.c ****                 {
 1436              		.loc 1 1797 26 view .LVU448
 1437 0052 4FF00008 		mov	r8, #0
 1438 0056 14E0     		b	.L146
 1439              	.LVL138:
 1440              	.L164:
1805:easyflash/src/ef_env.c ****                     }
 1441              		.loc 1 1805 25 is_stmt 1 view .LVU449
1807:easyflash/src/ef_env.c ****                     if (print_value)
 1442              		.loc 1 1807 21 is_stmt 0 view .LVU450
 1443 0058 606B     		ldr	r0, [r4, #52]
1805:easyflash/src/ef_env.c ****                     }
 1444              		.loc 1 1805 30 view .LVU451
 1445 005a A2EB0809 		sub	r9, r2, r8
 1446              	.LVL139:
1807:easyflash/src/ef_env.c ****                     if (print_value)
 1447              		.loc 1 1807 21 is_stmt 1 view .LVU452
1807:easyflash/src/ef_env.c ****                     if (print_value)
 1448              		.loc 1 1807 75 is_stmt 0 view .LVU453
 1449 005e 09F10302 		add	r2, r9, #3
1807:easyflash/src/ef_env.c ****                     if (print_value)
 1450              		.loc 1 1807 21 view .LVU454
 1451 0062 22F00302 		bic	r2, r2, #3
 1452 0066 4044     		add	r0, r0, r8
 1453 0068 6946     		mov	r1, sp
 1454 006a FFF7FEFF 		bl	ef_port_read
 1455              	.LVL140:
1808:easyflash/src/ef_env.c ****                     {
 1456              		.loc 1 1808 21 is_stmt 1 view .LVU455
1810:easyflash/src/ef_env.c ****                     }
 1457              		.loc 1 1810 25 is_stmt 0 view .LVU456
 1458 006e 6A46     		mov	r2, sp
1808:easyflash/src/ef_env.c ****                     {
 1459              		.loc 1 1808 24 view .LVU457
 1460 0070 AEB1     		cbz	r6, .L142
 1461              	.L165:
1810:easyflash/src/ef_env.c ****                     }
 1462              		.loc 1 1810 25 is_stmt 1 view .LVU458
 1463 0072 4946     		mov	r1, r9
 1464 0074 3846     		mov	r0, r7
 1465 0076 FFF7FEFF 		bl	ef_print
 1466              	.LVL141:
 1467              	.L143:
1797:easyflash/src/ef_env.c ****                 {
 1468              		.loc 1 1797 63 view .LVU459
1797:easyflash/src/ef_env.c ****                 {
ARM GAS  /tmp/ccSGDQKw.s 			page 66


 1469              		.loc 1 1797 50 is_stmt 0 view .LVU460
 1470 007a E268     		ldr	r2, [r4, #12]
1797:easyflash/src/ef_env.c ****                 {
 1471              		.loc 1 1797 67 view .LVU461
 1472 007c C844     		add	r8, r8, r9
 1473              	.LVL142:
1797:easyflash/src/ef_env.c ****                 {
 1474              		.loc 1 1797 41 is_stmt 1 view .LVU462
1797:easyflash/src/ef_env.c ****                 {
 1475              		.loc 1 1797 17 is_stmt 0 view .LVU463
 1476 007e 4245     		cmp	r2, r8
 1477 0080 19D9     		bls	.L163
 1478              	.LVL143:
 1479              	.L146:
1799:easyflash/src/ef_env.c ****                     {
 1480              		.loc 1 1799 21 is_stmt 1 view .LVU464
1799:easyflash/src/ef_env.c ****                     {
 1481              		.loc 1 1799 29 is_stmt 0 view .LVU465
 1482 0082 08F12003 		add	r3, r8, #32
1799:easyflash/src/ef_env.c ****                     {
 1483              		.loc 1 1799 24 view .LVU466
 1484 0086 9342     		cmp	r3, r2
 1485 0088 E6D2     		bcs	.L164
1807:easyflash/src/ef_env.c ****                     if (print_value)
 1486              		.loc 1 1807 21 view .LVU467
 1487 008a 606B     		ldr	r0, [r4, #52]
 1488 008c 2022     		movs	r2, #32
 1489 008e 4044     		add	r0, r0, r8
 1490 0090 6946     		mov	r1, sp
1801:easyflash/src/ef_env.c ****                     }
 1491              		.loc 1 1801 30 view .LVU468
 1492 0092 9146     		mov	r9, r2
 1493              	.LVL144:
1807:easyflash/src/ef_env.c ****                     if (print_value)
 1494              		.loc 1 1807 21 is_stmt 1 view .LVU469
 1495 0094 FFF7FEFF 		bl	ef_port_read
 1496              	.LVL145:
1808:easyflash/src/ef_env.c ****                     {
 1497              		.loc 1 1808 21 view .LVU470
1810:easyflash/src/ef_env.c ****                     }
 1498              		.loc 1 1810 25 is_stmt 0 view .LVU471
 1499 0098 6A46     		mov	r2, sp
1808:easyflash/src/ef_env.c ****                     {
 1500              		.loc 1 1808 24 view .LVU472
 1501 009a 002E     		cmp	r6, #0
 1502 009c E9D1     		bne	.L165
 1503              	.L142:
1808:easyflash/src/ef_env.c ****                     {
 1504              		.loc 1 1808 24 view .LVU473
 1505 009e 0DEB0901 		add	r1, sp, r9
 1506 00a2 01E0     		b	.L145
 1507              	.LVL146:
 1508              	.L166:
 1509              	.LBB73:
 1510              	.LBB74:
 872:easyflash/src/ef_env.c ****     {
 1511              		.loc 1 872 5 view .LVU474
ARM GAS  /tmp/ccSGDQKw.s 			page 67


 1512 00a4 9142     		cmp	r1, r2
 1513 00a6 E8D0     		beq	.L143
 1514              	.LVL147:
 1515              	.L145:
 874:easyflash/src/ef_env.c ****         {
 1516              		.loc 1 874 9 is_stmt 1 view .LVU475
 872:easyflash/src/ef_env.c ****     {
 1517              		.loc 1 872 26 view .LVU476
 874:easyflash/src/ef_env.c ****         {
 1518              		.loc 1 874 14 is_stmt 0 view .LVU477
 1519 00a8 12F8013B 		ldrb	r3, [r2], #1	@ zero_extendqisi2
 1520              	.LVL148:
 872:easyflash/src/ef_env.c ****     {
 1521              		.loc 1 872 17 is_stmt 1 view .LVU478
 874:easyflash/src/ef_env.c ****         {
 1522              		.loc 1 874 14 is_stmt 0 view .LVU479
 1523 00ac 203B     		subs	r3, r3, #32
 874:easyflash/src/ef_env.c ****         {
 1524              		.loc 1 874 12 view .LVU480
 1525 00ae 5E2B     		cmp	r3, #94
 1526 00b0 F8D9     		bls	.L166
 1527              	.LVL149:
 874:easyflash/src/ef_env.c ****         {
 1528              		.loc 1 874 12 view .LVU481
 1529              	.LBE74:
 1530              	.LBE73:
 1531              	.LBE75:
1823:easyflash/src/ef_env.c ****             {
 1532              		.loc 1 1823 13 is_stmt 1 view .LVU482
1828:easyflash/src/ef_env.c ****             {
 1533              		.loc 1 1828 18 view .LVU483
1830:easyflash/src/ef_env.c ****             }
 1534              		.loc 1 1830 17 is_stmt 0 view .LVU484
 1535 00b2 E268     		ldr	r2, [r4, #12]
 1536 00b4 BEE7     		b	.L138
 1537              	.LVL150:
 1538              	.L163:
1823:easyflash/src/ef_env.c ****             {
 1539              		.loc 1 1823 13 is_stmt 1 view .LVU485
1823:easyflash/src/ef_env.c ****             {
 1540              		.loc 1 1823 30 is_stmt 0 view .LVU486
 1541 00b6 002E     		cmp	r6, #0
 1542 00b8 C0D1     		bne	.L148
 1543              	.LVL151:
 1544              	.LBB76:
1793:easyflash/src/ef_env.c ****                 size_t len, size;
 1545              		.loc 1 1793 17 is_stmt 1 view .LVU487
1794:easyflash/src/ef_env.c **** __reload:
 1546              		.loc 1 1794 17 view .LVU488
1797:easyflash/src/ef_env.c ****                 {
 1547              		.loc 1 1797 17 view .LVU489
1797:easyflash/src/ef_env.c ****                 {
 1548              		.loc 1 1797 41 view .LVU490
1797:easyflash/src/ef_env.c ****                 {
 1549              		.loc 1 1797 17 is_stmt 0 view .LVU491
 1550 00ba 002A     		cmp	r2, #0
 1551 00bc BED0     		beq	.L148
ARM GAS  /tmp/ccSGDQKw.s 			page 68


 1552              	.LBE76:
1825:easyflash/src/ef_env.c ****                 goto __reload;
 1553              		.loc 1 1825 29 view .LVU492
 1554 00be 2E46     		mov	r6, r5
 1555 00c0 C7E7     		b	.L149
 1556              	.L168:
 1557 00c2 00BF     		.align	2
 1558              	.L167:
 1559 00c4 00000000 		.word	.LC4
 1560 00c8 10000000 		.word	.LC6
 1561 00cc 28000000 		.word	.LC7
 1562 00d0 08000000 		.word	.LC5
 1563              	.LBE77:
 1564              	.LBE78:
 1565              		.cfi_endproc
 1566              	.LFE283:
 1568              		.section	.rodata.format_sector.constprop.0.str1.4,"aMS",%progbits,1
 1569              		.align	2
 1570              	.LC8:
 1571 0000 61646472 		.ascii	"addr % SECTOR_SIZE == 0\000"
 1571      20252053 
 1571      4543544F 
 1571      525F5349 
 1571      5A45203D 
 1572              		.section	.text.format_sector.constprop.0,"ax",%progbits
 1573              		.align	1
 1574              		.p2align 2,,3
 1575              		.syntax unified
 1576              		.thumb
 1577              		.thumb_func
 1579              	format_sector.constprop.0:
 1580              	.LVL152:
 1581              	.LFB310:
1062:easyflash/src/ef_env.c **** {
 1582              		.loc 1 1062 18 is_stmt 1 view -0
 1583              		.cfi_startproc
 1584              		@ args = 0, pretend = 0, frame = 40
 1585              		@ frame_needed = 0, uses_anonymous_args = 0
1064:easyflash/src/ef_env.c ****     struct sector_hdr_data sec_hdr;
 1586              		.loc 1 1064 5 view .LVU494
1065:easyflash/src/ef_env.c **** 
 1587              		.loc 1 1065 5 view .LVU495
1067:easyflash/src/ef_env.c **** 
 1588              		.loc 1 1067 5 view .LVU496
1062:easyflash/src/ef_env.c **** {
 1589              		.loc 1 1062 18 is_stmt 0 view .LVU497
 1590 0000 30B5     		push	{r4, r5, lr}
 1591              		.cfi_def_cfa_offset 12
 1592              		.cfi_offset 4, -12
 1593              		.cfi_offset 5, -8
 1594              		.cfi_offset 14, -4
1067:easyflash/src/ef_env.c **** 
 1595              		.loc 1 1067 5 view .LVU498
 1596 0002 C0F31003 		ubfx	r3, r0, #0, #17
1062:easyflash/src/ef_env.c **** {
 1597              		.loc 1 1062 18 view .LVU499
 1598 0006 8DB0     		sub	sp, sp, #52
ARM GAS  /tmp/ccSGDQKw.s 			page 69


 1599              		.cfi_def_cfa_offset 64
1067:easyflash/src/ef_env.c **** 
 1600              		.loc 1 1067 5 view .LVU500
 1601 0008 4BB1     		cbz	r3, .L170
1067:easyflash/src/ef_env.c **** 
 1602              		.loc 1 1067 5 is_stmt 1 view .LVU501
 1603 000a 1949     		ldr	r1, .L175
 1604 000c 0091     		str	r1, [sp]
 1605 000e 194B     		ldr	r3, .L175+4
 1606 0010 194A     		ldr	r2, .L175+8
 1607 0012 1A48     		ldr	r0, .L175+12
 1608              	.LVL153:
1067:easyflash/src/ef_env.c **** 
 1609              		.loc 1 1067 5 is_stmt 0 view .LVU502
 1610 0014 40F22B41 		movw	r1, #1067
 1611 0018 FFF7FEFF 		bl	ef_log_debug
 1612              	.LVL154:
 1613              	.L171:
1067:easyflash/src/ef_env.c **** 
 1614              		.loc 1 1067 5 is_stmt 1 view .LVU503
1067:easyflash/src/ef_env.c **** 
 1615              		.loc 1 1067 5 view .LVU504
1067:easyflash/src/ef_env.c **** 
 1616              		.loc 1 1067 5 view .LVU505
1067:easyflash/src/ef_env.c **** 
 1617              		.loc 1 1067 5 view .LVU506
1067:easyflash/src/ef_env.c **** 
 1618              		.loc 1 1067 5 view .LVU507
1067:easyflash/src/ef_env.c **** 
 1619              		.loc 1 1067 5 view .LVU508
 1620 001c FEE7     		b	.L171
 1621              	.LVL155:
 1622              	.L170:
1067:easyflash/src/ef_env.c **** 
 1623              		.loc 1 1067 39 view .LVU509
1069:easyflash/src/ef_env.c ****     if (result == EF_NO_ERR)
 1624              		.loc 1 1069 5 view .LVU510
1069:easyflash/src/ef_env.c ****     if (result == EF_NO_ERR)
 1625              		.loc 1 1069 14 is_stmt 0 view .LVU511
 1626 001e 4FF40031 		mov	r1, #131072
 1627 0022 0446     		mov	r4, r0
 1628 0024 FFF7FEFF 		bl	ef_port_erase
 1629              	.LVL156:
1070:easyflash/src/ef_env.c ****     {
 1630              		.loc 1 1070 5 is_stmt 1 view .LVU512
1070:easyflash/src/ef_env.c ****     {
 1631              		.loc 1 1070 8 is_stmt 0 view .LVU513
 1632 0028 0546     		mov	r5, r0
 1633 002a 10B1     		cbz	r0, .L174
 1634              	.LVL157:
1088:easyflash/src/ef_env.c **** }
 1635              		.loc 1 1088 5 is_stmt 1 view .LVU514
1089:easyflash/src/ef_env.c **** 
 1636              		.loc 1 1089 1 is_stmt 0 view .LVU515
 1637 002c 2846     		mov	r0, r5
 1638 002e 0DB0     		add	sp, sp, #52
 1639              		.cfi_remember_state
ARM GAS  /tmp/ccSGDQKw.s 			page 70


 1640              		.cfi_def_cfa_offset 12
 1641              		@ sp needed
 1642 0030 30BD     		pop	{r4, r5, pc}
 1643              	.LVL158:
 1644              	.L174:
 1645              		.cfi_restore_state
 1646              	.LBB85:
 1647              	.LBI85:
1062:easyflash/src/ef_env.c **** {
 1648              		.loc 1 1062 18 is_stmt 1 view .LVU516
 1649              	.LBB86:
1073:easyflash/src/ef_env.c ****         set_status(sec_hdr.status_table.store, SECTOR_STORE_STATUS_NUM, SECTOR_STORE_EMPTY);
 1650              		.loc 1 1073 9 view .LVU517
 1651 0032 4FF0FF33 		mov	r3, #-1
1076:easyflash/src/ef_env.c ****         sec_hdr.combined = combined_value;
 1652              		.loc 1 1076 23 is_stmt 0 view .LVU518
 1653 0036 124A     		ldr	r2, .L175+16
 1654              	.LBB87:
 1655              	.LBB88:
 241:easyflash/src/ef_env.c ****     if (status_index > 0)
 1656              		.loc 1 241 5 view .LVU519
 1657 0038 0393     		str	r3, [sp, #12]
 1658              	.LBE88:
 1659              	.LBE87:
 1660              	.LBB92:
 1661              	.LBB93:
 1662 003a 0693     		str	r3, [sp, #24]
 1663              	.LBE93:
 1664              	.LBE92:
 1665              	.LBB97:
 1666              	.LBB89:
 249:easyflash/src/ef_env.c **** #endif /* EF_WRITE_GRAN == 1 */
 1667              		.loc 1 249 34 view .LVU520
 1668 003c 8DF80C00 		strb	r0, [sp, #12]
 1669              	.LBE89:
 1670              	.LBE97:
 1671              	.LBB98:
 1672              	.LBB94:
 1673 0040 8DF81800 		strb	r0, [sp, #24]
 1674              	.LBE94:
 1675              	.LBE98:
1080:easyflash/src/ef_env.c **** 
 1676              		.loc 1 1080 18 view .LVU521
 1677 0044 03A9     		add	r1, sp, #12
1076:easyflash/src/ef_env.c ****         sec_hdr.combined = combined_value;
 1678              		.loc 1 1076 23 view .LVU522
 1679 0046 0992     		str	r2, [sp, #36]
1080:easyflash/src/ef_env.c **** 
 1680              		.loc 1 1080 18 view .LVU523
 1681 0048 2046     		mov	r0, r4
 1682              	.LVL159:
1080:easyflash/src/ef_env.c **** 
 1683              		.loc 1 1080 18 view .LVU524
 1684 004a 2422     		movs	r2, #36
 1685              	.LBB99:
 1686              	.LBB90:
 241:easyflash/src/ef_env.c ****     if (status_index > 0)
ARM GAS  /tmp/ccSGDQKw.s 			page 71


 1687              		.loc 1 241 5 view .LVU525
 1688 004c CDE90433 		strd	r3, r3, [sp, #16]
 1689              	.LBE90:
 1690              	.LBE99:
 1691              	.LBB100:
 1692              	.LBB95:
 1693 0050 CDE90733 		strd	r3, r3, [sp, #28]
 1694              	.LBE95:
 1695              	.LBE100:
1073:easyflash/src/ef_env.c ****         set_status(sec_hdr.status_table.store, SECTOR_STORE_STATUS_NUM, SECTOR_STORE_EMPTY);
 1696              		.loc 1 1073 9 view .LVU526
 1697 0054 0B93     		str	r3, [sp, #44]
1074:easyflash/src/ef_env.c ****         set_status(sec_hdr.status_table.dirty, SECTOR_DIRTY_STATUS_NUM, SECTOR_DIRTY_FALSE);
 1698              		.loc 1 1074 9 is_stmt 1 view .LVU527
 1699              	.LVL160:
 1700              	.LBB101:
 1701              	.LBI87:
 231:easyflash/src/ef_env.c **** {
 1702              		.loc 1 231 15 view .LVU528
 1703              	.LBB91:
 233:easyflash/src/ef_env.c ****     /*
 1704              		.loc 1 233 5 view .LVU529
 241:easyflash/src/ef_env.c ****     if (status_index > 0)
 1705              		.loc 1 241 5 view .LVU530
 242:easyflash/src/ef_env.c ****     {
 1706              		.loc 1 242 5 view .LVU531
 248:easyflash/src/ef_env.c ****         status_table[byte_index] = 0x00;
 1707              		.loc 1 248 9 view .LVU532
 249:easyflash/src/ef_env.c **** #endif /* EF_WRITE_GRAN == 1 */
 1708              		.loc 1 249 9 view .LVU533
 253:easyflash/src/ef_env.c **** }
 1709              		.loc 1 253 5 view .LVU534
 253:easyflash/src/ef_env.c **** }
 1710              		.loc 1 253 5 is_stmt 0 view .LVU535
 1711              	.LBE91:
 1712              	.LBE101:
1075:easyflash/src/ef_env.c ****         sec_hdr.magic = SECTOR_MAGIC_WORD;
 1713              		.loc 1 1075 9 is_stmt 1 view .LVU536
 1714              	.LBB102:
 1715              	.LBI92:
 231:easyflash/src/ef_env.c **** {
 1716              		.loc 1 231 15 view .LVU537
 1717              	.LBB96:
 233:easyflash/src/ef_env.c ****     /*
 1718              		.loc 1 233 5 view .LVU538
 241:easyflash/src/ef_env.c ****     if (status_index > 0)
 1719              		.loc 1 241 5 view .LVU539
 242:easyflash/src/ef_env.c ****     {
 1720              		.loc 1 242 5 view .LVU540
 248:easyflash/src/ef_env.c ****         status_table[byte_index] = 0x00;
 1721              		.loc 1 248 9 view .LVU541
 249:easyflash/src/ef_env.c **** #endif /* EF_WRITE_GRAN == 1 */
 1722              		.loc 1 249 9 view .LVU542
 253:easyflash/src/ef_env.c **** }
 1723              		.loc 1 253 5 view .LVU543
 253:easyflash/src/ef_env.c **** }
 1724              		.loc 1 253 5 is_stmt 0 view .LVU544
ARM GAS  /tmp/ccSGDQKw.s 			page 72


 1725              	.LBE96:
 1726              	.LBE102:
1076:easyflash/src/ef_env.c ****         sec_hdr.combined = combined_value;
 1727              		.loc 1 1076 9 is_stmt 1 view .LVU545
1077:easyflash/src/ef_env.c ****         sec_hdr.reserved = 0xFFFFFFFF;
 1728              		.loc 1 1077 9 view .LVU546
1077:easyflash/src/ef_env.c ****         sec_hdr.reserved = 0xFFFFFFFF;
 1729              		.loc 1 1077 26 is_stmt 0 view .LVU547
 1730 0056 0A93     		str	r3, [sp, #40]
1078:easyflash/src/ef_env.c ****         /* save the header */
 1731              		.loc 1 1078 9 is_stmt 1 view .LVU548
1080:easyflash/src/ef_env.c **** 
 1732              		.loc 1 1080 9 view .LVU549
1080:easyflash/src/ef_env.c **** 
 1733              		.loc 1 1080 18 is_stmt 0 view .LVU550
 1734 0058 FFF7FEFF 		bl	ef_port_write
 1735              	.LVL161:
1084:easyflash/src/ef_env.c **** #endif /* EF_ENV_USING_CACHE */
 1736              		.loc 1 1084 9 view .LVU551
 1737 005c 04F50031 		add	r1, r4, #131072
1080:easyflash/src/ef_env.c **** 
 1738              		.loc 1 1080 18 view .LVU552
 1739 0060 0546     		mov	r5, r0
1084:easyflash/src/ef_env.c **** #endif /* EF_ENV_USING_CACHE */
 1740              		.loc 1 1084 9 view .LVU553
 1741 0062 2046     		mov	r0, r4
 1742              	.LVL162:
1084:easyflash/src/ef_env.c **** #endif /* EF_ENV_USING_CACHE */
 1743              		.loc 1 1084 9 is_stmt 1 view .LVU554
 1744 0064 FFF7FEFF 		bl	update_sector_cache
 1745              	.LVL163:
1088:easyflash/src/ef_env.c **** }
 1746              		.loc 1 1088 5 view .LVU555
1088:easyflash/src/ef_env.c **** }
 1747              		.loc 1 1088 5 is_stmt 0 view .LVU556
 1748              	.LBE86:
 1749              	.LBE85:
1088:easyflash/src/ef_env.c **** }
 1750              		.loc 1 1088 5 is_stmt 1 view .LVU557
1089:easyflash/src/ef_env.c **** 
 1751              		.loc 1 1089 1 is_stmt 0 view .LVU558
 1752 0068 2846     		mov	r0, r5
 1753 006a 0DB0     		add	sp, sp, #52
 1754              		.cfi_def_cfa_offset 12
 1755              		@ sp needed
 1756 006c 30BD     		pop	{r4, r5, pc}
 1757              	.LVL164:
 1758              	.L176:
1089:easyflash/src/ef_env.c **** 
 1759              		.loc 1 1089 1 view .LVU559
 1760 006e 00BF     		.align	2
 1761              	.L175:
 1762 0070 00000000 		.word	.LANCHOR4
 1763 0074 00000000 		.word	.LC8
 1764 0078 1C000000 		.word	.LC1
 1765 007c 3C000000 		.word	.LC2
 1766 0080 45463430 		.word	808732229
ARM GAS  /tmp/ccSGDQKw.s 			page 73


 1767              		.cfi_endproc
 1768              	.LFE310:
 1770              		.section	.rodata.check_sec_hdr_cb.str1.4,"aMS",%progbits,1
 1771              		.align	2
 1772              	.LC9:
 1773 0000 5761726E 		.ascii	"Warning: Sector header check failed. Format this se"
 1773      696E673A 
 1773      20536563 
 1773      746F7220 
 1773      68656164 
 1774 0033 63746F72 		.ascii	"ctor (0x%08x).\000"
 1774      20283078 
 1774      25303878 
 1774      292E00
 1775              		.section	.text.check_sec_hdr_cb,"ax",%progbits
 1776              		.align	1
 1777              		.p2align 2,,3
 1778              		.syntax unified
 1779              		.thumb
 1780              		.thumb_func
 1782              	check_sec_hdr_cb:
 1783              	.LVL165:
 1784              	.LFB285:
1838:easyflash/src/ef_env.c **** 
1839:easyflash/src/ef_env.c **** 
1840:easyflash/src/ef_env.c **** /**
1841:easyflash/src/ef_env.c ****  * Print ENV.
1842:easyflash/src/ef_env.c ****  */
1843:easyflash/src/ef_env.c **** void ef_print_env(void)
1844:easyflash/src/ef_env.c **** {
1845:easyflash/src/ef_env.c ****     struct env_node_obj env;
1846:easyflash/src/ef_env.c ****     size_t using_size = 0;
1847:easyflash/src/ef_env.c **** 
1848:easyflash/src/ef_env.c ****     if (!init_ok)
1849:easyflash/src/ef_env.c ****     {
1850:easyflash/src/ef_env.c ****         EF_INFO("ENV isn't initialize OK.");
1851:easyflash/src/ef_env.c ****         return;
1852:easyflash/src/ef_env.c ****     }
1853:easyflash/src/ef_env.c **** 
1854:easyflash/src/ef_env.c ****     /* lock the ENV cache */
1855:easyflash/src/ef_env.c ****     ef_port_env_lock();
1856:easyflash/src/ef_env.c **** 
1857:easyflash/src/ef_env.c ****     env_iterator(&env, &using_size, NULL, print_env_cb);
1858:easyflash/src/ef_env.c **** 
1859:easyflash/src/ef_env.c ****     ef_print("\r\nmode: next generation\r\n");
1860:easyflash/src/ef_env.c ****     ef_print("size: %lu/%lu bytes.\r\n", using_size + (SECTOR_NUM - EF_GC_EMPTY_SEC_THRESHOLD) * SE
1861:easyflash/src/ef_env.c ****              ENV_AREA_SIZE - SECTOR_SIZE * EF_GC_EMPTY_SEC_THRESHOLD);
1862:easyflash/src/ef_env.c **** 
1863:easyflash/src/ef_env.c ****     /* unlock the ENV cache */
1864:easyflash/src/ef_env.c ****     ef_port_env_unlock();
1865:easyflash/src/ef_env.c **** }
1866:easyflash/src/ef_env.c **** 
1867:easyflash/src/ef_env.c **** #ifdef EF_ENV_AUTO_UPDATE
1868:easyflash/src/ef_env.c **** /*
1869:easyflash/src/ef_env.c ****  * Auto update ENV to latest default when current EF_ENV_VER_NUM is changed.
1870:easyflash/src/ef_env.c ****  */
1871:easyflash/src/ef_env.c **** static void env_auto_update(void)
ARM GAS  /tmp/ccSGDQKw.s 			page 74


1872:easyflash/src/ef_env.c **** {
1873:easyflash/src/ef_env.c ****     size_t saved_ver_num, setting_ver_num = EF_ENV_VER_NUM;
1874:easyflash/src/ef_env.c **** 
1875:easyflash/src/ef_env.c ****     if (get_env(VER_NUM_ENV_NAME, &saved_ver_num, sizeof(size_t), NULL) > 0)
1876:easyflash/src/ef_env.c ****     {
1877:easyflash/src/ef_env.c ****         /* check version number */
1878:easyflash/src/ef_env.c ****         if (saved_ver_num != setting_ver_num)
1879:easyflash/src/ef_env.c ****         {
1880:easyflash/src/ef_env.c ****             struct env_node_obj env;
1881:easyflash/src/ef_env.c ****             size_t i, value_len;
1882:easyflash/src/ef_env.c ****             struct sector_meta_data sector;
1883:easyflash/src/ef_env.c ****             EF_DEBUG("Update the ENV from version %d to %d.", saved_ver_num, setting_ver_num);
1884:easyflash/src/ef_env.c ****             for (i = 0; i < default_env_set_size; i++)
1885:easyflash/src/ef_env.c ****             {
1886:easyflash/src/ef_env.c ****                 /* add a new ENV when it's not found */
1887:easyflash/src/ef_env.c ****                 if (!find_env(default_env_set[i].key, &env))
1888:easyflash/src/ef_env.c ****                 {
1889:easyflash/src/ef_env.c ****                     /* It seems to be a string when value length is 0.
1890:easyflash/src/ef_env.c ****                      * This mechanism is for compatibility with older versions (less then V4.0). */
1891:easyflash/src/ef_env.c ****                     if (default_env_set[i].value_len == 0)
1892:easyflash/src/ef_env.c ****                     {
1893:easyflash/src/ef_env.c ****                         value_len = strlen(default_env_set[i].value);
1894:easyflash/src/ef_env.c ****                     }
1895:easyflash/src/ef_env.c ****                     else
1896:easyflash/src/ef_env.c ****                     {
1897:easyflash/src/ef_env.c ****                         value_len = default_env_set[i].value_len;
1898:easyflash/src/ef_env.c ****                     }
1899:easyflash/src/ef_env.c ****                     sector.empty_env = FAILED_ADDR;
1900:easyflash/src/ef_env.c ****                     create_env_blob(&sector, default_env_set[i].key, default_env_set[i].value, valu
1901:easyflash/src/ef_env.c ****                 }
1902:easyflash/src/ef_env.c ****             }
1903:easyflash/src/ef_env.c ****         }
1904:easyflash/src/ef_env.c ****         else
1905:easyflash/src/ef_env.c ****         {
1906:easyflash/src/ef_env.c ****             /* version number not changed now return */
1907:easyflash/src/ef_env.c ****             return;
1908:easyflash/src/ef_env.c ****         }
1909:easyflash/src/ef_env.c ****     }
1910:easyflash/src/ef_env.c **** 
1911:easyflash/src/ef_env.c ****     set_env(VER_NUM_ENV_NAME, &setting_ver_num, sizeof(size_t));
1912:easyflash/src/ef_env.c **** }
1913:easyflash/src/ef_env.c **** #endif /* EF_ENV_AUTO_UPDATE */
1914:easyflash/src/ef_env.c **** 
1915:easyflash/src/ef_env.c **** static bool check_sec_hdr_cb(sector_meta_data_t sector, void *arg1, void *arg2)
1916:easyflash/src/ef_env.c **** {
 1785              		.loc 1 1916 1 is_stmt 1 view -0
 1786              		.cfi_startproc
 1787              		@ args = 0, pretend = 0, frame = 0
 1788              		@ frame_needed = 0, uses_anonymous_args = 0
1917:easyflash/src/ef_env.c ****     if (!sector->check_ok)
 1789              		.loc 1 1917 5 view .LVU561
1916:easyflash/src/ef_env.c ****     if (!sector->check_ok)
 1790              		.loc 1 1916 1 is_stmt 0 view .LVU562
 1791 0000 38B5     		push	{r3, r4, r5, lr}
 1792              		.cfi_def_cfa_offset 16
 1793              		.cfi_offset 3, -16
 1794              		.cfi_offset 4, -12
ARM GAS  /tmp/ccSGDQKw.s 			page 75


 1795              		.cfi_offset 5, -8
 1796              		.cfi_offset 14, -4
 1797              		.loc 1 1917 8 view .LVU563
 1798 0002 0378     		ldrb	r3, [r0]	@ zero_extendqisi2
 1799 0004 0BB1     		cbz	r3, .L180
1918:easyflash/src/ef_env.c ****     {
1919:easyflash/src/ef_env.c ****         size_t *failed_count = arg1;
1920:easyflash/src/ef_env.c **** 
1921:easyflash/src/ef_env.c ****         EF_INFO("Warning: Sector header check failed. Format this sector (0x%08x).", sector->addr);
1922:easyflash/src/ef_env.c ****         (*failed_count) ++;
1923:easyflash/src/ef_env.c ****         format_sector(sector->addr, SECTOR_NOT_COMBINED);
1924:easyflash/src/ef_env.c ****     }
1925:easyflash/src/ef_env.c **** 
1926:easyflash/src/ef_env.c ****     return false;
 1800              		.loc 1 1926 5 is_stmt 1 view .LVU564
1927:easyflash/src/ef_env.c **** }
 1801              		.loc 1 1927 1 is_stmt 0 view .LVU565
 1802 0006 0020     		movs	r0, #0
 1803              	.LVL166:
 1804              		.loc 1 1927 1 view .LVU566
 1805 0008 38BD     		pop	{r3, r4, r5, pc}
 1806              	.LVL167:
 1807              	.L180:
 1808              		.loc 1 1927 1 view .LVU567
 1809 000a 0446     		mov	r4, r0
 1810              	.LVL168:
 1811              		.loc 1 1927 1 view .LVU568
 1812 000c 0D46     		mov	r5, r1
 1813              	.LVL169:
 1814              	.LBB106:
 1815              	.LBI106:
1915:easyflash/src/ef_env.c **** {
 1816              		.loc 1 1915 13 is_stmt 1 view .LVU569
 1817              	.LBB107:
1919:easyflash/src/ef_env.c **** 
 1818              		.loc 1 1919 9 view .LVU570
1921:easyflash/src/ef_env.c ****         (*failed_count) ++;
 1819              		.loc 1 1921 9 view .LVU571
 1820 000e 0648     		ldr	r0, .L181
 1821              	.LVL170:
1921:easyflash/src/ef_env.c ****         (*failed_count) ++;
 1822              		.loc 1 1921 9 is_stmt 0 view .LVU572
 1823 0010 6168     		ldr	r1, [r4, #4]
 1824              	.LVL171:
1921:easyflash/src/ef_env.c ****         (*failed_count) ++;
 1825              		.loc 1 1921 9 view .LVU573
 1826 0012 FFF7FEFF 		bl	ef_log_info
 1827              	.LVL172:
1922:easyflash/src/ef_env.c ****         format_sector(sector->addr, SECTOR_NOT_COMBINED);
 1828              		.loc 1 1922 9 is_stmt 1 view .LVU574
1922:easyflash/src/ef_env.c ****         format_sector(sector->addr, SECTOR_NOT_COMBINED);
 1829              		.loc 1 1922 25 is_stmt 0 view .LVU575
 1830 0016 2B68     		ldr	r3, [r5]
1923:easyflash/src/ef_env.c ****     }
 1831              		.loc 1 1923 9 view .LVU576
 1832 0018 6068     		ldr	r0, [r4, #4]
1922:easyflash/src/ef_env.c ****         format_sector(sector->addr, SECTOR_NOT_COMBINED);
ARM GAS  /tmp/ccSGDQKw.s 			page 76


 1833              		.loc 1 1922 25 view .LVU577
 1834 001a 0133     		adds	r3, r3, #1
 1835 001c 2B60     		str	r3, [r5]
1923:easyflash/src/ef_env.c ****     }
 1836              		.loc 1 1923 9 is_stmt 1 view .LVU578
 1837 001e FFF7FEFF 		bl	format_sector.constprop.0
 1838              	.LVL173:
1923:easyflash/src/ef_env.c ****     }
 1839              		.loc 1 1923 9 is_stmt 0 view .LVU579
 1840              	.LBE107:
 1841              	.LBE106:
1926:easyflash/src/ef_env.c **** }
 1842              		.loc 1 1926 5 is_stmt 1 view .LVU580
 1843              		.loc 1 1927 1 is_stmt 0 view .LVU581
 1844 0022 0020     		movs	r0, #0
 1845 0024 38BD     		pop	{r3, r4, r5, pc}
 1846              	.LVL174:
 1847              	.L182:
 1848              		.loc 1 1927 1 view .LVU582
 1849 0026 00BF     		.align	2
 1850              	.L181:
 1851 0028 00000000 		.word	.LC9
 1852              		.cfi_endproc
 1853              	.LFE285:
 1855              		.section	.text.sector_statistics_cb,"ax",%progbits
 1856              		.align	1
 1857              		.p2align 2,,3
 1858              		.syntax unified
 1859              		.thumb
 1860              		.thumb_func
 1862              	sector_statistics_cb:
 1863              	.LVL175:
 1864              	.LFB263:
1154:easyflash/src/ef_env.c ****     size_t *empty_sector = arg1, *using_sector = arg2;
 1865              		.loc 1 1154 1 is_stmt 1 view -0
 1866              		.cfi_startproc
 1867              		@ args = 0, pretend = 0, frame = 0
 1868              		@ frame_needed = 0, uses_anonymous_args = 0
 1869              		@ link register save eliminated.
1155:easyflash/src/ef_env.c **** 
 1870              		.loc 1 1155 5 view .LVU584
1157:easyflash/src/ef_env.c ****     {
 1871              		.loc 1 1157 8 is_stmt 0 view .LVU585
 1872 0000 0378     		ldrb	r3, [r0]	@ zero_extendqisi2
 1873              	.LVL176:
1157:easyflash/src/ef_env.c ****     {
 1874              		.loc 1 1157 5 is_stmt 1 view .LVU586
1157:easyflash/src/ef_env.c ****     {
 1875              		.loc 1 1157 8 is_stmt 0 view .LVU587
 1876 0002 23B1     		cbz	r3, .L184
1157:easyflash/src/ef_env.c ****     {
 1877              		.loc 1 1157 43 discriminator 1 view .LVU588
 1878 0004 4378     		ldrb	r3, [r0, #1]	@ zero_extendqisi2
1157:easyflash/src/ef_env.c ****     {
 1879              		.loc 1 1157 26 discriminator 1 view .LVU589
 1880 0006 012B     		cmp	r3, #1
 1881 0008 03D0     		beq	.L189
ARM GAS  /tmp/ccSGDQKw.s 			page 77


1161:easyflash/src/ef_env.c ****     {
 1882              		.loc 1 1161 10 is_stmt 1 discriminator 1 view .LVU590
 1883              	.LVL177:
 1884              	.LBB110:
 1885              	.LBI110:
1153:easyflash/src/ef_env.c **** {
 1886              		.loc 1 1153 13 discriminator 1 view .LVU591
 1887              	.LBB111:
1161:easyflash/src/ef_env.c ****     {
 1888              		.loc 1 1161 31 is_stmt 0 discriminator 1 view .LVU592
 1889 000a 022B     		cmp	r3, #2
 1890 000c 06D0     		beq	.L190
 1891              	.LVL178:
 1892              	.L184:
1161:easyflash/src/ef_env.c ****     {
 1893              		.loc 1 1161 31 discriminator 1 view .LVU593
 1894              	.LBE111:
 1895              	.LBE110:
1166:easyflash/src/ef_env.c **** }
 1896              		.loc 1 1166 5 is_stmt 1 view .LVU594
1167:easyflash/src/ef_env.c **** 
 1897              		.loc 1 1167 1 is_stmt 0 view .LVU595
 1898 000e 0020     		movs	r0, #0
 1899              	.LVL179:
1167:easyflash/src/ef_env.c **** 
 1900              		.loc 1 1167 1 view .LVU596
 1901 0010 7047     		bx	lr
 1902              	.LVL180:
 1903              	.L189:
1159:easyflash/src/ef_env.c ****     }
 1904              		.loc 1 1159 9 is_stmt 1 view .LVU597
1159:easyflash/src/ef_env.c ****     }
 1905              		.loc 1 1159 24 is_stmt 0 view .LVU598
 1906 0012 0B68     		ldr	r3, [r1]
 1907 0014 0133     		adds	r3, r3, #1
 1908 0016 0B60     		str	r3, [r1]
1166:easyflash/src/ef_env.c **** }
 1909              		.loc 1 1166 5 is_stmt 1 view .LVU599
1167:easyflash/src/ef_env.c **** 
 1910              		.loc 1 1167 1 is_stmt 0 view .LVU600
 1911 0018 0020     		movs	r0, #0
 1912              	.LVL181:
1167:easyflash/src/ef_env.c **** 
 1913              		.loc 1 1167 1 view .LVU601
 1914 001a 7047     		bx	lr
 1915              	.LVL182:
 1916              	.L190:
 1917              	.LBB113:
 1918              	.LBB112:
1163:easyflash/src/ef_env.c ****     }
 1919              		.loc 1 1163 9 is_stmt 1 view .LVU602
1163:easyflash/src/ef_env.c ****     }
 1920              		.loc 1 1163 24 is_stmt 0 view .LVU603
 1921 001c 1368     		ldr	r3, [r2]
 1922 001e 0133     		adds	r3, r3, #1
 1923 0020 1360     		str	r3, [r2]
 1924              	.LVL183:
ARM GAS  /tmp/ccSGDQKw.s 			page 78


1163:easyflash/src/ef_env.c ****     }
 1925              		.loc 1 1163 24 view .LVU604
 1926              	.LBE112:
 1927              	.LBE113:
1166:easyflash/src/ef_env.c **** }
 1928              		.loc 1 1166 5 is_stmt 1 view .LVU605
1167:easyflash/src/ef_env.c **** 
 1929              		.loc 1 1167 1 is_stmt 0 view .LVU606
 1930 0022 0020     		movs	r0, #0
 1931              	.LVL184:
1167:easyflash/src/ef_env.c **** 
 1932              		.loc 1 1167 1 view .LVU607
 1933 0024 7047     		bx	lr
 1934              		.cfi_endproc
 1935              	.LFE263:
 1937 0026 00BF     		.section	.rodata.read_env.isra.0.str1.4,"aMS",%progbits,1
 1938              		.align	2
 1939              	.LC10:
 1940 0000 4572726F 		.ascii	"Error: The ENV @0x%08X length has an error.\000"
 1940      723A2054 
 1940      68652045 
 1940      4E562040 
 1940      30782530 
 1941              		.align	2
 1942              	.LC11:
 1943 002c 3000     		.ascii	"0\000"
 1944              		.section	.text.read_env.isra.0,"ax",%progbits
 1945              		.align	1
 1946              		.p2align 2,,3
 1947              		.syntax unified
 1948              		.thumb
 1949              		.thumb_func
 1951              	read_env.isra.0:
 1952              	.LVL185:
 1953              	.LFB305:
 590:easyflash/src/ef_env.c **** {
 1954              		.loc 1 590 18 is_stmt 1 view -0
 1955              		.cfi_startproc
 1956              		@ args = 0, pretend = 0, frame = 72
 1957              		@ frame_needed = 0, uses_anonymous_args = 0
 592:easyflash/src/ef_env.c ****     uint8_t buf[32];
 1958              		.loc 1 592 5 view .LVU609
 593:easyflash/src/ef_env.c ****     uint32_t calc_crc32 = 0, crc_data_len, env_name_addr;
 1959              		.loc 1 593 5 view .LVU610
 594:easyflash/src/ef_env.c ****     EfErrCode result = EF_NO_ERR;
 1960              		.loc 1 594 5 view .LVU611
 595:easyflash/src/ef_env.c ****     size_t len, size;
 1961              		.loc 1 595 5 view .LVU612
 596:easyflash/src/ef_env.c ****     /* read ENV header raw data */
 1962              		.loc 1 596 5 view .LVU613
 598:easyflash/src/ef_env.c ****     env->status = (env_status_t) get_status(env_hdr.status_table, ENV_STATUS_NUM);
 1963              		.loc 1 598 5 view .LVU614
 590:easyflash/src/ef_env.c **** {
 1964              		.loc 1 590 18 is_stmt 0 view .LVU615
 1965 0000 F0B5     		push	{r4, r5, r6, r7, lr}
 1966              		.cfi_def_cfa_offset 20
 1967              		.cfi_offset 4, -20
ARM GAS  /tmp/ccSGDQKw.s 			page 79


 1968              		.cfi_offset 5, -16
 1969              		.cfi_offset 6, -12
 1970              		.cfi_offset 7, -8
 1971              		.cfi_offset 14, -4
 598:easyflash/src/ef_env.c ****     env->status = (env_status_t) get_status(env_hdr.status_table, ENV_STATUS_NUM);
 1972              		.loc 1 598 5 view .LVU616
 1973 0002 2822     		movs	r2, #40
 590:easyflash/src/ef_env.c **** {
 1974              		.loc 1 590 18 view .LVU617
 1975 0004 95B0     		sub	sp, sp, #84
 1976              		.cfi_def_cfa_offset 104
 598:easyflash/src/ef_env.c ****     env->status = (env_status_t) get_status(env_hdr.status_table, ENV_STATUS_NUM);
 1977              		.loc 1 598 5 view .LVU618
 1978 0006 0DEB0201 		add	r1, sp, r2
 590:easyflash/src/ef_env.c **** {
 1979              		.loc 1 590 18 view .LVU619
 1980 000a 0546     		mov	r5, r0
 598:easyflash/src/ef_env.c ****     env->status = (env_status_t) get_status(env_hdr.status_table, ENV_STATUS_NUM);
 1981              		.loc 1 598 5 view .LVU620
 1982 000c 006B     		ldr	r0, [r0, #48]
 1983              	.LVL186:
 598:easyflash/src/ef_env.c ****     env->status = (env_status_t) get_status(env_hdr.status_table, ENV_STATUS_NUM);
 1984              		.loc 1 598 5 view .LVU621
 1985 000e FFF7FEFF 		bl	ef_port_read
 1986              	.LVL187:
 599:easyflash/src/ef_env.c ****     env->len = env_hdr.len;
 1987              		.loc 1 599 5 is_stmt 1 view .LVU622
 1988              	.LBB116:
 1989              	.LBI116:
 256:easyflash/src/ef_env.c **** {
 1990              		.loc 1 256 15 view .LVU623
 1991              	.LBB117:
 258:easyflash/src/ef_env.c **** 
 1992              		.loc 1 258 5 view .LVU624
 260:easyflash/src/ef_env.c ****     {
 1993              		.loc 1 260 5 view .LVU625
 260:easyflash/src/ef_env.c ****     {
 1994              		.loc 1 260 11 view .LVU626
 260:easyflash/src/ef_env.c ****     {
 1995              		.loc 1 260 11 is_stmt 0 view .LVU627
 1996              	.LBE117:
 1997              	.LBE116:
 598:easyflash/src/ef_env.c ****     env->status = (env_status_t) get_status(env_hdr.status_table, ENV_STATUS_NUM);
 1998              		.loc 1 598 5 view .LVU628
 1999 0012 8021     		movs	r1, #128
 2000              	.LBB121:
 2001              	.LBB118:
 258:easyflash/src/ef_env.c **** 
 2002              		.loc 1 258 12 view .LVU629
 2003 0014 0022     		movs	r2, #0
 2004 0016 02E0     		b	.L193
 2005              	.LVL188:
 2006              	.L214:
 274:easyflash/src/ef_env.c ****     }
 2007              		.loc 1 274 10 view .LVU630
 2008 0018 0132     		adds	r2, r2, #1
 2009              	.LVL189:
ARM GAS  /tmp/ccSGDQKw.s 			page 80


 260:easyflash/src/ef_env.c ****     {
 2010              		.loc 1 260 11 is_stmt 1 view .LVU631
 260:easyflash/src/ef_env.c ****     {
 2011              		.loc 1 260 11 is_stmt 0 view .LVU632
 2012 001a 052A     		cmp	r2, #5
 2013 001c 43D0     		beq	.L213
 2014              	.LVL190:
 2015              	.L193:
 269:easyflash/src/ef_env.c ****         {
 2016              		.loc 1 269 9 is_stmt 1 view .LVU633
 274:easyflash/src/ef_env.c ****     }
 2017              		.loc 1 274 9 view .LVU634
 269:easyflash/src/ef_env.c ****         {
 2018              		.loc 1 269 12 is_stmt 0 view .LVU635
 2019 001e 14AB     		add	r3, sp, #80
 2020 0020 03EBD103 		add	r3, r3, r1, lsr #3
 2021 0024 2039     		subs	r1, r1, #32
 2022 0026 13F8283C 		ldrb	r3, [r3, #-40]	@ zero_extendqisi2
 2023 002a 002B     		cmp	r3, #0
 2024 002c F4D1     		bne	.L214
 277:easyflash/src/ef_env.c **** }
 2025              		.loc 1 277 5 is_stmt 1 view .LVU636
 2026              	.LBE118:
 2027              	.LBE121:
 600:easyflash/src/ef_env.c **** 
 2028              		.loc 1 600 23 is_stmt 0 view .LVU637
 2029 002e 109B     		ldr	r3, [sp, #64]
 602:easyflash/src/ef_env.c ****     {
 2030              		.loc 1 602 8 view .LVU638
 2031 0030 3F49     		ldr	r1, .L217
 602:easyflash/src/ef_env.c ****     {
 2032              		.loc 1 602 54 view .LVU639
 2033 0032 A3F12004 		sub	r4, r3, #32
 2034              	.LBB122:
 2035              	.LBB119:
 277:easyflash/src/ef_env.c **** }
 2036              		.loc 1 277 27 view .LVU640
 2037 0036 C2F10502 		rsb	r2, r2, #5
 2038              	.LVL191:
 277:easyflash/src/ef_env.c **** }
 2039              		.loc 1 277 27 view .LVU641
 2040              	.LBE119:
 2041              	.LBE122:
 602:easyflash/src/ef_env.c ****     {
 2042              		.loc 1 602 8 view .LVU642
 2043 003a 8C42     		cmp	r4, r1
 599:easyflash/src/ef_env.c ****     env->len = env_hdr.len;
 2044              		.loc 1 599 19 view .LVU643
 2045 003c 2A70     		strb	r2, [r5]
 600:easyflash/src/ef_env.c **** 
 2046              		.loc 1 600 5 is_stmt 1 view .LVU644
 602:easyflash/src/ef_env.c ****     {
 2047              		.loc 1 602 5 view .LVU645
 602:easyflash/src/ef_env.c ****     {
 2048              		.loc 1 602 8 is_stmt 0 view .LVU646
 2049 003e 71D8     		bhi	.L215
 2050              	.L195:
ARM GAS  /tmp/ccSGDQKw.s 			page 81


 615:easyflash/src/ef_env.c ****     {
 2051              		.loc 1 615 10 is_stmt 1 view .LVU647
 615:easyflash/src/ef_env.c ****     {
 2052              		.loc 1 615 13 is_stmt 0 view .LVU648
 2053 0040 3C4A     		ldr	r2, .L217+4
 600:easyflash/src/ef_env.c **** 
 2054              		.loc 1 600 14 view .LVU649
 2055 0042 AB60     		str	r3, [r5, #8]
 615:easyflash/src/ef_env.c ****     {
 2056              		.loc 1 615 60 view .LVU650
 2057 0044 6FF4EE71 		mvn	r1, #476
 2058 0048 A3F5FF33 		sub	r3, r3, #130560
 2059 004c 0B44     		add	r3, r3, r1
 615:easyflash/src/ef_env.c ****     {
 2060              		.loc 1 615 13 view .LVU651
 2061 004e 9342     		cmp	r3, r2
 2062 0050 43D9     		bls	.L198
 2063              	.LVL192:
 623:easyflash/src/ef_env.c ****     {
 2064              		.loc 1 623 29 is_stmt 1 view .LVU652
 623:easyflash/src/ef_env.c ****     {
 2065              		.loc 1 623 5 is_stmt 0 view .LVU653
 2066 0052 ACB1     		cbz	r4, .L200
 594:easyflash/src/ef_env.c ****     EfErrCode result = EF_NO_ERR;
 2067              		.loc 1 594 14 view .LVU654
 2068 0054 0026     		movs	r6, #0
 623:easyflash/src/ef_env.c ****     {
 2069              		.loc 1 623 14 view .LVU655
 2070 0056 3346     		mov	r3, r6
 2071              	.LVL193:
 2072              	.L199:
 625:easyflash/src/ef_env.c ****         {
 2073              		.loc 1 625 9 is_stmt 1 view .LVU656
 634:easyflash/src/ef_env.c ****         calc_crc32 = ef_calc_crc32(calc_crc32, buf, size);
 2074              		.loc 1 634 9 view .LVU657
 2075 0058 2022     		movs	r2, #32
 625:easyflash/src/ef_env.c ****         {
 2076              		.loc 1 625 17 is_stmt 0 view .LVU658
 2077 005a 9F18     		adds	r7, r3, r2
 625:easyflash/src/ef_env.c ****         {
 2078              		.loc 1 625 12 view .LVU659
 2079 005c A742     		cmp	r7, r4
 634:easyflash/src/ef_env.c ****         calc_crc32 = ef_calc_crc32(calc_crc32, buf, size);
 2080              		.loc 1 634 9 view .LVU660
 2081 005e 286B     		ldr	r0, [r5, #48]
 2082 0060 02A9     		add	r1, sp, #8
 625:easyflash/src/ef_env.c ****         {
 2083              		.loc 1 625 12 view .LVU661
 2084 0062 14D3     		bcc	.L202
 631:easyflash/src/ef_env.c ****         }
 2085              		.loc 1 631 13 is_stmt 1 view .LVU662
 631:easyflash/src/ef_env.c ****         }
 2086              		.loc 1 631 18 is_stmt 0 view .LVU663
 2087 0064 E41A     		subs	r4, r4, r3
 2088              	.LVL194:
 634:easyflash/src/ef_env.c ****         calc_crc32 = ef_calc_crc32(calc_crc32, buf, size);
 2089              		.loc 1 634 9 is_stmt 1 view .LVU664
ARM GAS  /tmp/ccSGDQKw.s 			page 82


 2090 0066 1044     		add	r0, r0, r2
 634:easyflash/src/ef_env.c ****         calc_crc32 = ef_calc_crc32(calc_crc32, buf, size);
 2091              		.loc 1 634 85 is_stmt 0 view .LVU665
 2092 0068 E21C     		adds	r2, r4, #3
 634:easyflash/src/ef_env.c ****         calc_crc32 = ef_calc_crc32(calc_crc32, buf, size);
 2093              		.loc 1 634 9 view .LVU666
 2094 006a 22F00302 		bic	r2, r2, #3
 2095 006e 1844     		add	r0, r0, r3
 2096 0070 FFF7FEFF 		bl	ef_port_read
 2097              	.LVL195:
 635:easyflash/src/ef_env.c ****     }
 2098              		.loc 1 635 9 is_stmt 1 view .LVU667
 635:easyflash/src/ef_env.c ****     }
 2099              		.loc 1 635 22 is_stmt 0 view .LVU668
 2100 0074 2246     		mov	r2, r4
 2101 0076 02A9     		add	r1, sp, #8
 2102 0078 3046     		mov	r0, r6
 2103 007a FFF7FEFF 		bl	ef_calc_crc32
 2104              	.LVL196:
 2105 007e 0446     		mov	r4, r0
 2106              	.LVL197:
 623:easyflash/src/ef_env.c ****     {
 2107              		.loc 1 623 49 is_stmt 1 view .LVU669
 623:easyflash/src/ef_env.c ****     {
 2108              		.loc 1 623 29 view .LVU670
 2109              	.L200:
 638:easyflash/src/ef_env.c ****     {
 2110              		.loc 1 638 5 view .LVU671
 638:easyflash/src/ef_env.c ****     {
 2111              		.loc 1 638 8 is_stmt 0 view .LVU672
 2112 0080 119B     		ldr	r3, [sp, #68]
 2113 0082 A342     		cmp	r3, r4
 2114 0084 33D0     		beq	.L216
 2115              	.L196:
 612:easyflash/src/ef_env.c ****         return EF_READ_ERR;
 2116              		.loc 1 612 9 is_stmt 1 view .LVU673
 612:easyflash/src/ef_env.c ****         return EF_READ_ERR;
 2117              		.loc 1 612 24 is_stmt 0 view .LVU674
 2118 0086 0023     		movs	r3, #0
 2119 0088 6B70     		strb	r3, [r5, #1]
 613:easyflash/src/ef_env.c ****     }
 2120              		.loc 1 613 9 is_stmt 1 view .LVU675
 656:easyflash/src/ef_env.c **** 
 2121              		.loc 1 656 1 is_stmt 0 view .LVU676
 2122 008a 15B0     		add	sp, sp, #84
 2123              		.cfi_remember_state
 2124              		.cfi_def_cfa_offset 20
 2125              		@ sp needed
 2126 008c F0BD     		pop	{r4, r5, r6, r7, pc}
 2127              	.LVL198:
 2128              	.L202:
 2129              		.cfi_restore_state
 634:easyflash/src/ef_env.c ****         calc_crc32 = ef_calc_crc32(calc_crc32, buf, size);
 2130              		.loc 1 634 9 view .LVU677
 2131 008e 2030     		adds	r0, r0, #32
 2132 0090 1844     		add	r0, r0, r3
 2133 0092 FFF7FEFF 		bl	ef_port_read
ARM GAS  /tmp/ccSGDQKw.s 			page 83


 2134              	.LVL199:
 635:easyflash/src/ef_env.c ****     }
 2135              		.loc 1 635 9 is_stmt 1 view .LVU678
 635:easyflash/src/ef_env.c ****     }
 2136              		.loc 1 635 22 is_stmt 0 view .LVU679
 2137 0096 3046     		mov	r0, r6
 2138 0098 2022     		movs	r2, #32
 2139 009a 02A9     		add	r1, sp, #8
 2140 009c FFF7FEFF 		bl	ef_calc_crc32
 2141              	.LVL200:
 2142 00a0 3B46     		mov	r3, r7
 2143 00a2 0646     		mov	r6, r0
 2144              	.LVL201:
 623:easyflash/src/ef_env.c ****     {
 2145              		.loc 1 623 49 is_stmt 1 view .LVU680
 623:easyflash/src/ef_env.c ****     {
 2146              		.loc 1 623 29 view .LVU681
 623:easyflash/src/ef_env.c ****     {
 2147              		.loc 1 623 29 is_stmt 0 view .LVU682
 2148 00a4 D8E7     		b	.L199
 2149              	.LVL202:
 2150              	.L213:
 2151              	.LBB123:
 2152              	.LBB120:
 277:easyflash/src/ef_env.c **** }
 2153              		.loc 1 277 5 is_stmt 1 view .LVU683
 277:easyflash/src/ef_env.c **** }
 2154              		.loc 1 277 5 is_stmt 0 view .LVU684
 2155              	.LBE120:
 2156              	.LBE123:
 600:easyflash/src/ef_env.c **** 
 2157              		.loc 1 600 23 view .LVU685
 2158 00a6 109B     		ldr	r3, [sp, #64]
 602:easyflash/src/ef_env.c ****     {
 2159              		.loc 1 602 8 view .LVU686
 2160 00a8 214A     		ldr	r2, .L217
 602:easyflash/src/ef_env.c ****     {
 2161              		.loc 1 602 54 view .LVU687
 2162 00aa A3F12004 		sub	r4, r3, #32
 599:easyflash/src/ef_env.c ****     env->len = env_hdr.len;
 2163              		.loc 1 599 17 view .LVU688
 2164 00ae 0021     		movs	r1, #0
 602:easyflash/src/ef_env.c ****     {
 2165              		.loc 1 602 8 view .LVU689
 2166 00b0 9442     		cmp	r4, r2
 599:easyflash/src/ef_env.c ****     env->len = env_hdr.len;
 2167              		.loc 1 599 17 view .LVU690
 2168 00b2 2970     		strb	r1, [r5]
 600:easyflash/src/ef_env.c **** 
 2169              		.loc 1 600 5 is_stmt 1 view .LVU691
 602:easyflash/src/ef_env.c ****     {
 2170              		.loc 1 602 5 view .LVU692
 602:easyflash/src/ef_env.c ****     {
 2171              		.loc 1 602 8 is_stmt 0 view .LVU693
 2172 00b4 C4D9     		bls	.L195
 605:easyflash/src/ef_env.c ****         if (env->status != ENV_ERR_HDR)
 2173              		.loc 1 605 9 is_stmt 1 view .LVU694
ARM GAS  /tmp/ccSGDQKw.s 			page 84


 605:easyflash/src/ef_env.c ****         if (env->status != ENV_ERR_HDR)
 2174              		.loc 1 605 18 is_stmt 0 view .LVU695
 2175 00b6 2823     		movs	r3, #40
 2176 00b8 AB60     		str	r3, [r5, #8]
 606:easyflash/src/ef_env.c ****         {
 2177              		.loc 1 606 9 is_stmt 1 view .LVU696
 2178              	.L203:
 608:easyflash/src/ef_env.c ****             EF_DEBUG("Error: The ENV @0x%08X length has an error.", env->addr.start);
 2179              		.loc 1 608 13 view .LVU697
 608:easyflash/src/ef_env.c ****             EF_DEBUG("Error: The ENV @0x%08X length has an error.", env->addr.start);
 2180              		.loc 1 608 25 is_stmt 0 view .LVU698
 2181 00ba 0524     		movs	r4, #5
 609:easyflash/src/ef_env.c ****             write_status(env->addr.start, env_hdr.status_table, ENV_STATUS_NUM, ENV_ERR_HDR);
 2182              		.loc 1 609 13 view .LVU699
 2183 00bc 2B6B     		ldr	r3, [r5, #48]
 2184 00be 1E4A     		ldr	r2, .L217+8
 2185 00c0 1E48     		ldr	r0, .L217+12
 608:easyflash/src/ef_env.c ****             EF_DEBUG("Error: The ENV @0x%08X length has an error.", env->addr.start);
 2186              		.loc 1 608 25 view .LVU700
 2187 00c2 2C70     		strb	r4, [r5]
 609:easyflash/src/ef_env.c ****             write_status(env->addr.start, env_hdr.status_table, ENV_STATUS_NUM, ENV_ERR_HDR);
 2188              		.loc 1 609 13 is_stmt 1 view .LVU701
 2189 00c4 40F26121 		movw	r1, #609
 2190 00c8 FFF7FEFF 		bl	ef_log_debug
 2191              	.LVL203:
 610:easyflash/src/ef_env.c ****         }
 2192              		.loc 1 610 13 view .LVU702
 2193 00cc 286B     		ldr	r0, [r5, #48]
 2194 00ce 2346     		mov	r3, r4
 2195 00d0 0622     		movs	r2, #6
 2196 00d2 0AA9     		add	r1, sp, #40
 2197 00d4 FFF7FEFF 		bl	write_status
 2198              	.LVL204:
 2199 00d8 D5E7     		b	.L196
 2200              	.L198:
 617:easyflash/src/ef_env.c ****     }
 2201              		.loc 1 617 9 view .LVU703
 617:easyflash/src/ef_env.c ****     }
 2202              		.loc 1 617 9 view .LVU704
 2203 00da 1949     		ldr	r1, .L217+16
 2204 00dc 0091     		str	r1, [sp]
 2205 00de 194B     		ldr	r3, .L217+20
 2206 00e0 194A     		ldr	r2, .L217+24
 2207 00e2 1648     		ldr	r0, .L217+12
 2208 00e4 40F26921 		movw	r1, #617
 2209 00e8 FFF7FEFF 		bl	ef_log_debug
 2210              	.LVL205:
 2211              	.L201:
 617:easyflash/src/ef_env.c ****     }
 2212              		.loc 1 617 9 view .LVU705
 617:easyflash/src/ef_env.c ****     }
 2213              		.loc 1 617 9 view .LVU706
 617:easyflash/src/ef_env.c ****     }
 2214              		.loc 1 617 9 view .LVU707
 617:easyflash/src/ef_env.c ****     }
 2215              		.loc 1 617 9 view .LVU708
 617:easyflash/src/ef_env.c ****     }
ARM GAS  /tmp/ccSGDQKw.s 			page 85


 2216              		.loc 1 617 9 view .LVU709
 617:easyflash/src/ef_env.c ****     }
 2217              		.loc 1 617 9 view .LVU710
 2218 00ec FEE7     		b	.L201
 2219              	.LVL206:
 2220              	.L216:
 645:easyflash/src/ef_env.c ****         /* the name is behind aligned ENV header */
 2221              		.loc 1 645 9 view .LVU711
 647:easyflash/src/ef_env.c ****         ef_port_read(env_name_addr, (uint32_t *) env->name, EF_WG_ALIGN(env_hdr.name_len));
 2222              		.loc 1 647 23 is_stmt 0 view .LVU712
 2223 00ee 2B6B     		ldr	r3, [r5, #48]
 648:easyflash/src/ef_env.c ****         /* the value is behind aligned name */
 2224              		.loc 1 648 61 view .LVU713
 2225 00f0 9DF84820 		ldrb	r2, [sp, #72]	@ zero_extendqisi2
 647:easyflash/src/ef_env.c ****         ef_port_read(env_name_addr, (uint32_t *) env->name, EF_WG_ALIGN(env_hdr.name_len));
 2226              		.loc 1 647 23 view .LVU714
 2227 00f4 03F12804 		add	r4, r3, #40
 648:easyflash/src/ef_env.c ****         /* the value is behind aligned name */
 2228              		.loc 1 648 61 view .LVU715
 2229 00f8 0332     		adds	r2, r2, #3
 645:easyflash/src/ef_env.c ****         /* the name is behind aligned ENV header */
 2230              		.loc 1 645 24 view .LVU716
 2231 00fa 0123     		movs	r3, #1
 2232 00fc 6B70     		strb	r3, [r5, #1]
 647:easyflash/src/ef_env.c ****         ef_port_read(env_name_addr, (uint32_t *) env->name, EF_WG_ALIGN(env_hdr.name_len));
 2233              		.loc 1 647 9 is_stmt 1 view .LVU717
 2234              	.LVL207:
 648:easyflash/src/ef_env.c ****         /* the value is behind aligned name */
 2235              		.loc 1 648 9 view .LVU718
 2236 00fe 05F11001 		add	r1, r5, #16
 2237 0102 02F4FE72 		and	r2, r2, #508
 2238 0106 2046     		mov	r0, r4
 2239 0108 FFF7FEFF 		bl	ef_port_read
 2240              	.LVL208:
 650:easyflash/src/ef_env.c ****         env->value_len = env_hdr.value_len;
 2241              		.loc 1 650 9 view .LVU719
 650:easyflash/src/ef_env.c ****         env->value_len = env_hdr.value_len;
 2242              		.loc 1 650 43 is_stmt 0 view .LVU720
 2243 010c 9DF84820 		ldrb	r2, [sp, #72]	@ zero_extendqisi2
 651:easyflash/src/ef_env.c ****         env->name_len = env_hdr.name_len;
 2244              		.loc 1 651 24 view .LVU721
 2245 0110 1399     		ldr	r1, [sp, #76]
 2246 0112 E960     		str	r1, [r5, #12]
 650:easyflash/src/ef_env.c ****         env->value_len = env_hdr.value_len;
 2247              		.loc 1 650 43 view .LVU722
 2248 0114 D31C     		adds	r3, r2, #3
 2249 0116 23F00303 		bic	r3, r3, #3
 650:easyflash/src/ef_env.c ****         env->value_len = env_hdr.value_len;
 2250              		.loc 1 650 41 view .LVU723
 2251 011a 2344     		add	r3, r3, r4
 650:easyflash/src/ef_env.c ****         env->value_len = env_hdr.value_len;
 2252              		.loc 1 650 25 view .LVU724
 2253 011c 6B63     		str	r3, [r5, #52]
 651:easyflash/src/ef_env.c ****         env->name_len = env_hdr.name_len;
