ARM GAS  /tmp/cccjClNS.s 			page 1


   1              		.cpu cortex-m4
   2              		.arch armv7e-m
   3              		.fpu fpv4-sp-d16
   4              		.eabi_attribute 27, 1
   5              		.eabi_attribute 28, 1
   6              		.eabi_attribute 20, 1
   7              		.eabi_attribute 21, 1
   8              		.eabi_attribute 23, 3
   9              		.eabi_attribute 24, 1
  10              		.eabi_attribute 25, 1
  11              		.eabi_attribute 26, 1
  12              		.eabi_attribute 30, 2
  13              		.eabi_attribute 34, 1
  14              		.eabi_attribute 18, 4
  15              		.file	"ef_utils.c"
  16              		.text
  17              	.Ltext0:
  18              		.cfi_sections	.debug_frame
  19              		.section	.text.ef_calc_crc32,"ax",%progbits
  20              		.align	1
  21              		.p2align 2,,3
  22              		.global	ef_calc_crc32
  23              		.syntax unified
  24              		.thumb
  25              		.thumb_func
  27              	ef_calc_crc32:
  28              	.LVL0:
  29              	.LFB235:
  30              		.file 1 "easyflash/src/ef_utils.c"
   1:easyflash/src/ef_utils.c **** /*
   2:easyflash/src/ef_utils.c ****  * This file is part of the EasyFlash Library.
   3:easyflash/src/ef_utils.c ****  *
   4:easyflash/src/ef_utils.c ****  * Copyright (c) 2015-2017, Armink, <armink.ztl@gmail.com>
   5:easyflash/src/ef_utils.c ****  *
   6:easyflash/src/ef_utils.c ****  * Permission is hereby granted, free of charge, to any person obtaining
   7:easyflash/src/ef_utils.c ****  * a copy of this software and associated documentation files (the
   8:easyflash/src/ef_utils.c ****  * 'Software'), to deal in the Software without restriction, including
   9:easyflash/src/ef_utils.c ****  * without limitation the rights to use, copy, modify, merge, publish,
  10:easyflash/src/ef_utils.c ****  * distribute, sublicense, and/or sell copies of the Software, and to
  11:easyflash/src/ef_utils.c ****  * permit persons to whom the Software is furnished to do so, subject to
  12:easyflash/src/ef_utils.c ****  * the following conditions:
  13:easyflash/src/ef_utils.c ****  *
  14:easyflash/src/ef_utils.c ****  * The above copyright notice and this permission notice shall be
  15:easyflash/src/ef_utils.c ****  * included in all copies or substantial portions of the Software.
  16:easyflash/src/ef_utils.c ****  *
  17:easyflash/src/ef_utils.c ****  * THE SOFTWARE IS PROVIDED 'AS IS', WITHOUT WARRANTY OF ANY KIND,
  18:easyflash/src/ef_utils.c ****  * EXPRESS OR IMPLIED, INCLUDING BUT NOT LIMITED TO THE WARRANTIES OF
  19:easyflash/src/ef_utils.c ****  * MERCHANTABILITY, FITNESS FOR A PARTICULAR PURPOSE AND NONINFRINGEMENT.
  20:easyflash/src/ef_utils.c ****  * IN NO EVENT SHALL THE AUTHORS OR COPYRIGHT HOLDERS BE LIABLE FOR ANY
  21:easyflash/src/ef_utils.c ****  * CLAIM, DAMAGES OR OTHER LIABILITY, WHETHER IN AN ACTION OF CONTRACT,
  22:easyflash/src/ef_utils.c ****  * TORT OR OTHERWISE, ARISING FROM, OUT OF OR IN CONNECTION WITH THE
  23:easyflash/src/ef_utils.c ****  * SOFTWARE OR THE USE OR OTHER DEALINGS IN THE SOFTWARE.
  24:easyflash/src/ef_utils.c ****  *
  25:easyflash/src/ef_utils.c ****  * Function: Some utils for this library.
  26:easyflash/src/ef_utils.c ****  * Created on: 2015-01-14
  27:easyflash/src/ef_utils.c ****  */
  28:easyflash/src/ef_utils.c **** 
ARM GAS  /tmp/cccjClNS.s 			page 2


  29:easyflash/src/ef_utils.c **** #include <easyflash.h>
  30:easyflash/src/ef_utils.c **** 
  31:easyflash/src/ef_utils.c **** static const uint32_t crc32_table[] =
  32:easyflash/src/ef_utils.c **** {
  33:easyflash/src/ef_utils.c ****     0x00000000, 0x77073096, 0xee0e612c, 0x990951ba, 0x076dc419, 0x706af48f,
  34:easyflash/src/ef_utils.c ****     0xe963a535, 0x9e6495a3, 0x0edb8832, 0x79dcb8a4, 0xe0d5e91e, 0x97d2d988,
  35:easyflash/src/ef_utils.c ****     0x09b64c2b, 0x7eb17cbd, 0xe7b82d07, 0x90bf1d91, 0x1db71064, 0x6ab020f2,
  36:easyflash/src/ef_utils.c ****     0xf3b97148, 0x84be41de, 0x1adad47d, 0x6ddde4eb, 0xf4d4b551, 0x83d385c7,
  37:easyflash/src/ef_utils.c ****     0x136c9856, 0x646ba8c0, 0xfd62f97a, 0x8a65c9ec, 0x14015c4f, 0x63066cd9,
  38:easyflash/src/ef_utils.c ****     0xfa0f3d63, 0x8d080df5, 0x3b6e20c8, 0x4c69105e, 0xd56041e4, 0xa2677172,
  39:easyflash/src/ef_utils.c ****     0x3c03e4d1, 0x4b04d447, 0xd20d85fd, 0xa50ab56b, 0x35b5a8fa, 0x42b2986c,
  40:easyflash/src/ef_utils.c ****     0xdbbbc9d6, 0xacbcf940, 0x32d86ce3, 0x45df5c75, 0xdcd60dcf, 0xabd13d59,
  41:easyflash/src/ef_utils.c ****     0x26d930ac, 0x51de003a, 0xc8d75180, 0xbfd06116, 0x21b4f4b5, 0x56b3c423,
  42:easyflash/src/ef_utils.c ****     0xcfba9599, 0xb8bda50f, 0x2802b89e, 0x5f058808, 0xc60cd9b2, 0xb10be924,
  43:easyflash/src/ef_utils.c ****     0x2f6f7c87, 0x58684c11, 0xc1611dab, 0xb6662d3d, 0x76dc4190, 0x01db7106,
  44:easyflash/src/ef_utils.c ****     0x98d220bc, 0xefd5102a, 0x71b18589, 0x06b6b51f, 0x9fbfe4a5, 0xe8b8d433,
  45:easyflash/src/ef_utils.c ****     0x7807c9a2, 0x0f00f934, 0x9609a88e, 0xe10e9818, 0x7f6a0dbb, 0x086d3d2d,
  46:easyflash/src/ef_utils.c ****     0x91646c97, 0xe6635c01, 0x6b6b51f4, 0x1c6c6162, 0x856530d8, 0xf262004e,
  47:easyflash/src/ef_utils.c ****     0x6c0695ed, 0x1b01a57b, 0x8208f4c1, 0xf50fc457, 0x65b0d9c6, 0x12b7e950,
  48:easyflash/src/ef_utils.c ****     0x8bbeb8ea, 0xfcb9887c, 0x62dd1ddf, 0x15da2d49, 0x8cd37cf3, 0xfbd44c65,
  49:easyflash/src/ef_utils.c ****     0x4db26158, 0x3ab551ce, 0xa3bc0074, 0xd4bb30e2, 0x4adfa541, 0x3dd895d7,
  50:easyflash/src/ef_utils.c ****     0xa4d1c46d, 0xd3d6f4fb, 0x4369e96a, 0x346ed9fc, 0xad678846, 0xda60b8d0,
  51:easyflash/src/ef_utils.c ****     0x44042d73, 0x33031de5, 0xaa0a4c5f, 0xdd0d7cc9, 0x5005713c, 0x270241aa,
  52:easyflash/src/ef_utils.c ****     0xbe0b1010, 0xc90c2086, 0x5768b525, 0x206f85b3, 0xb966d409, 0xce61e49f,
  53:easyflash/src/ef_utils.c ****     0x5edef90e, 0x29d9c998, 0xb0d09822, 0xc7d7a8b4, 0x59b33d17, 0x2eb40d81,
  54:easyflash/src/ef_utils.c ****     0xb7bd5c3b, 0xc0ba6cad, 0xedb88320, 0x9abfb3b6, 0x03b6e20c, 0x74b1d29a,
  55:easyflash/src/ef_utils.c ****     0xead54739, 0x9dd277af, 0x04db2615, 0x73dc1683, 0xe3630b12, 0x94643b84,
  56:easyflash/src/ef_utils.c ****     0x0d6d6a3e, 0x7a6a5aa8, 0xe40ecf0b, 0x9309ff9d, 0x0a00ae27, 0x7d079eb1,
  57:easyflash/src/ef_utils.c ****     0xf00f9344, 0x8708a3d2, 0x1e01f268, 0x6906c2fe, 0xf762575d, 0x806567cb,
  58:easyflash/src/ef_utils.c ****     0x196c3671, 0x6e6b06e7, 0xfed41b76, 0x89d32be0, 0x10da7a5a, 0x67dd4acc,
  59:easyflash/src/ef_utils.c ****     0xf9b9df6f, 0x8ebeeff9, 0x17b7be43, 0x60b08ed5, 0xd6d6a3e8, 0xa1d1937e,
  60:easyflash/src/ef_utils.c ****     0x38d8c2c4, 0x4fdff252, 0xd1bb67f1, 0xa6bc5767, 0x3fb506dd, 0x48b2364b,
  61:easyflash/src/ef_utils.c ****     0xd80d2bda, 0xaf0a1b4c, 0x36034af6, 0x41047a60, 0xdf60efc3, 0xa867df55,
  62:easyflash/src/ef_utils.c ****     0x316e8eef, 0x4669be79, 0xcb61b38c, 0xbc66831a, 0x256fd2a0, 0x5268e236,
  63:easyflash/src/ef_utils.c ****     0xcc0c7795, 0xbb0b4703, 0x220216b9, 0x5505262f, 0xc5ba3bbe, 0xb2bd0b28,
  64:easyflash/src/ef_utils.c ****     0x2bb45a92, 0x5cb36a04, 0xc2d7ffa7, 0xb5d0cf31, 0x2cd99e8b, 0x5bdeae1d,
  65:easyflash/src/ef_utils.c ****     0x9b64c2b0, 0xec63f226, 0x756aa39c, 0x026d930a, 0x9c0906a9, 0xeb0e363f,
  66:easyflash/src/ef_utils.c ****     0x72076785, 0x05005713, 0x95bf4a82, 0xe2b87a14, 0x7bb12bae, 0x0cb61b38,
  67:easyflash/src/ef_utils.c ****     0x92d28e9b, 0xe5d5be0d, 0x7cdcefb7, 0x0bdbdf21, 0x86d3d2d4, 0xf1d4e242,
  68:easyflash/src/ef_utils.c ****     0x68ddb3f8, 0x1fda836e, 0x81be16cd, 0xf6b9265b, 0x6fb077e1, 0x18b74777,
  69:easyflash/src/ef_utils.c ****     0x88085ae6, 0xff0f6a70, 0x66063bca, 0x11010b5c, 0x8f659eff, 0xf862ae69,
  70:easyflash/src/ef_utils.c ****     0x616bffd3, 0x166ccf45, 0xa00ae278, 0xd70dd2ee, 0x4e048354, 0x3903b3c2,
  71:easyflash/src/ef_utils.c ****     0xa7672661, 0xd06016f7, 0x4969474d, 0x3e6e77db, 0xaed16a4a, 0xd9d65adc,
  72:easyflash/src/ef_utils.c ****     0x40df0b66, 0x37d83bf0, 0xa9bcae53, 0xdebb9ec5, 0x47b2cf7f, 0x30b5ffe9,
  73:easyflash/src/ef_utils.c ****     0xbdbdf21c, 0xcabac28a, 0x53b39330, 0x24b4a3a6, 0xbad03605, 0xcdd70693,
  74:easyflash/src/ef_utils.c ****     0x54de5729, 0x23d967bf, 0xb3667a2e, 0xc4614ab8, 0x5d681b02, 0x2a6f2b94,
  75:easyflash/src/ef_utils.c ****     0xb40bbe37, 0xc30c8ea1, 0x5a05df1b, 0x2d02ef8d
  76:easyflash/src/ef_utils.c **** };
  77:easyflash/src/ef_utils.c **** 
  78:easyflash/src/ef_utils.c **** /**
  79:easyflash/src/ef_utils.c ****  * Calculate the CRC32 value of a memory buffer.
  80:easyflash/src/ef_utils.c ****  *
  81:easyflash/src/ef_utils.c ****  * @param crc accumulated CRC32 value, must be 0 on first call
  82:easyflash/src/ef_utils.c ****  * @param buf buffer to calculate CRC32 value for
  83:easyflash/src/ef_utils.c ****  * @param size bytes in buffer
  84:easyflash/src/ef_utils.c ****  *
  85:easyflash/src/ef_utils.c ****  * @return calculated CRC32 value
ARM GAS  /tmp/cccjClNS.s 			page 3


  86:easyflash/src/ef_utils.c ****  */
  87:easyflash/src/ef_utils.c **** uint32_t ef_calc_crc32(uint32_t crc, const void *buf, size_t size)
  88:easyflash/src/ef_utils.c **** {
  31              		.loc 1 88 1 view -0
  32              		.cfi_startproc
  33              		@ args = 0, pretend = 0, frame = 0
  34              		@ frame_needed = 0, uses_anonymous_args = 0
  35              		@ link register save eliminated.
  89:easyflash/src/ef_utils.c ****     const uint8_t *p;
  36              		.loc 1 89 5 view .LVU1
  90:easyflash/src/ef_utils.c **** 
  91:easyflash/src/ef_utils.c ****     p = (const uint8_t *)buf;
  37              		.loc 1 91 5 view .LVU2
  92:easyflash/src/ef_utils.c ****     crc = crc ^ ~0U;
  38              		.loc 1 92 5 view .LVU3
  39              		.loc 1 92 9 is_stmt 0 view .LVU4
  40 0000 6FEA000C 		mvn	ip, r0
  41              	.LVL1:
  93:easyflash/src/ef_utils.c **** 
  94:easyflash/src/ef_utils.c ****     while (size--)
  42              		.loc 1 94 5 is_stmt 1 view .LVU5
  43              		.loc 1 94 11 view .LVU6
  44              		.loc 1 94 11 is_stmt 0 view .LVU7
  45 0004 72B1     		cbz	r2, .L1
  46 0006 0848     		ldr	r0, .L7
  47 0008 0A44     		add	r2, r2, r1
  48              	.LVL2:
  49              	.L3:
  95:easyflash/src/ef_utils.c ****     {
  96:easyflash/src/ef_utils.c ****         crc = crc32_table[(crc ^ *p++) & 0xFF] ^ (crc >> 8);
  50              		.loc 1 96 9 is_stmt 1 view .LVU8
  51              		.loc 1 96 34 is_stmt 0 view .LVU9
  52 000a 11F8013B 		ldrb	r3, [r1], #1	@ zero_extendqisi2
  53              	.LVL3:
  54              		.loc 1 96 32 view .LVU10
  55 000e 83EA0C03 		eor	r3, r3, ip
  56              		.loc 1 96 40 view .LVU11
  57 0012 DBB2     		uxtb	r3, r3
  94:easyflash/src/ef_utils.c ****     {
  58              		.loc 1 94 11 view .LVU12
  59 0014 9142     		cmp	r1, r2
  60              		.loc 1 96 26 view .LVU13
  61 0016 50F82330 		ldr	r3, [r0, r3, lsl #2]
  62              		.loc 1 96 13 view .LVU14
  63 001a 83EA1C2C 		eor	ip, r3, ip, lsr #8
  64              	.LVL4:
  94:easyflash/src/ef_utils.c ****     {
  65              		.loc 1 94 11 is_stmt 1 view .LVU15
  94:easyflash/src/ef_utils.c ****     {
  66              		.loc 1 94 11 is_stmt 0 view .LVU16
  67 001e F4D1     		bne	.L3
  97:easyflash/src/ef_utils.c ****     }
  98:easyflash/src/ef_utils.c **** 
  99:easyflash/src/ef_utils.c ****     return crc ^ ~0U;
  68              		.loc 1 99 16 view .LVU17
  69 0020 6FEA0C00 		mvn	r0, ip
  70              	.LVL5:
ARM GAS  /tmp/cccjClNS.s 			page 4


  71              	.L1:
 100:easyflash/src/ef_utils.c **** }
  72              		.loc 1 100 1 view .LVU18
  73 0024 7047     		bx	lr
  74              	.L8:
  75 0026 00BF     		.align	2
  76              	.L7:
  77 0028 00000000 		.word	.LANCHOR0
  78              		.cfi_endproc
  79              	.LFE235:
  81              		.section	.rodata.crc32_table,"a"
  82              		.align	2
  83              		.set	.LANCHOR0,. + 0
  86              	crc32_table:
  87 0000 00000000 		.word	0
  88 0004 96300777 		.word	1996959894
  89 0008 2C610EEE 		.word	-301047508
  90 000c BA510999 		.word	-1727442502
  91 0010 19C46D07 		.word	124634137
  92 0014 8FF46A70 		.word	1886057615
  93 0018 35A563E9 		.word	-379345611
  94 001c A395649E 		.word	-1637575261
  95 0020 3288DB0E 		.word	249268274
  96 0024 A4B8DC79 		.word	2044508324
  97 0028 1EE9D5E0 		.word	-522852066
  98 002c 88D9D297 		.word	-1747789432
  99 0030 2B4CB609 		.word	162941995
 100 0034 BD7CB17E 		.word	2125561021
 101 0038 072DB8E7 		.word	-407360249
 102 003c 911DBF90 		.word	-1866523247
 103 0040 6410B71D 		.word	498536548
 104 0044 F220B06A 		.word	1789927666
 105 0048 4871B9F3 		.word	-205950648
 106 004c DE41BE84 		.word	-2067906082
 107 0050 7DD4DA1A 		.word	450548861
 108 0054 EBE4DD6D 		.word	1843258603
 109 0058 51B5D4F4 		.word	-187386543
 110 005c C785D383 		.word	-2083289657
 111 0060 56986C13 		.word	325883990
 112 0064 C0A86B64 		.word	1684777152
 113 0068 7AF962FD 		.word	-43845254
 114 006c ECC9658A 		.word	-1973040660
 115 0070 4F5C0114 		.word	335633487
 116 0074 D96C0663 		.word	1661365465
 117 0078 633D0FFA 		.word	-99664541
 118 007c F50D088D 		.word	-1928851979
 119 0080 C8206E3B 		.word	997073096
 120 0084 5E10694C 		.word	1281953886
 121 0088 E44160D5 		.word	-715111964
 122 008c 727167A2 		.word	-1570279054
 123 0090 D1E4033C 		.word	1006888145
 124 0094 47D4044B 		.word	1258607687
 125 0098 FD850DD2 		.word	-770865667
 126 009c 6BB50AA5 		.word	-1526024853
 127 00a0 FAA8B535 		.word	901097722
 128 00a4 6C98B242 		.word	1119000684
 129 00a8 D6C9BBDB 		.word	-608450090
ARM GAS  /tmp/cccjClNS.s 			page 5


 130 00ac 40F9BCAC 		.word	-1396901568
 131 00b0 E36CD832 		.word	853044451
 132 00b4 755CDF45 		.word	1172266101
 133 00b8 CF0DD6DC 		.word	-589951537
 134 00bc 593DD1AB 		.word	-1412350631
 135 00c0 AC30D926 		.word	651767980
 136 00c4 3A00DE51 		.word	1373503546
 137 00c8 8051D7C8 		.word	-925412992
 138 00cc 1661D0BF 		.word	-1076862698
 139 00d0 B5F4B421 		.word	565507253
 140 00d4 23C4B356 		.word	1454621731
 141 00d8 9995BACF 		.word	-809855591
 142 00dc 0FA5BDB8 		.word	-1195530993
 143 00e0 9EB80228 		.word	671266974
 144 00e4 0888055F 		.word	1594198024
 145 00e8 B2D90CC6 		.word	-972236366
 146 00ec 24E90BB1 		.word	-1324619484
 147 00f0 877C6F2F 		.word	795835527
 148 00f4 114C6858 		.word	1483230225
 149 00f8 AB1D61C1 		.word	-1050600021
 150 00fc 3D2D66B6 		.word	-1234817731
 151 0100 9041DC76 		.word	1994146192
 152 0104 0671DB01 		.word	31158534
 153 0108 BC20D298 		.word	-1731059524
 154 010c 2A10D5EF 		.word	-271249366
 155 0110 8985B171 		.word	1907459465
 156 0114 1FB5B606 		.word	112637215
 157 0118 A5E4BF9F 		.word	-1614814043
 158 011c 33D4B8E8 		.word	-390540237
 159 0120 A2C90778 		.word	2013776290
 160 0124 34F9000F 		.word	251722036
 161 0128 8EA80996 		.word	-1777751922
 162 012c 18980EE1 		.word	-519137256
 163 0130 BB0D6A7F 		.word	2137656763
 164 0134 2D3D6D08 		.word	141376813
 165 0138 976C6491 		.word	-1855689577
 166 013c 015C63E6 		.word	-429695999
 167 0140 F4516B6B 		.word	1802195444
 168 0144 62616C1C 		.word	476864866
 169 0148 D8306585 		.word	-2056965928
 170 014c 4E0062F2 		.word	-228458418
 171 0150 ED95066C 		.word	1812370925
 172 0154 7BA5011B 		.word	453092731
 173 0158 C1F40882 		.word	-2113342271
 174 015c 57C40FF5 		.word	-183516073
 175 0160 C6D9B065 		.word	1706088902
 176 0164 50E9B712 		.word	314042704
 177 0168 EAB8BE8B 		.word	-1950435094
 178 016c 7C88B9FC 		.word	-54949764
 179 0170 DF1DDD62 		.word	1658658271
 180 0174 492DDA15 		.word	366619977
 181 0178 F37CD38C 		.word	-1932296973
 182 017c 654CD4FB 		.word	-69972891
 183 0180 5861B24D 		.word	1303535960
 184 0184 CE51B53A 		.word	984961486
 185 0188 7400BCA3 		.word	-1547960204
 186 018c E230BBD4 		.word	-725929758
ARM GAS  /tmp/cccjClNS.s 			page 6


 187 0190 41A5DF4A 		.word	1256170817
 188 0194 D795D83D 		.word	1037604311
 189 0198 6DC4D1A4 		.word	-1529756563
 190 019c FBF4D6D3 		.word	-740887301
 191 01a0 6AE96943 		.word	1131014506
 192 01a4 FCD96E34 		.word	879679996
 193 01a8 468867AD 		.word	-1385723834
 194 01ac D0B860DA 		.word	-631195440
 195 01b0 732D0444 		.word	1141124467
 196 01b4 E51D0333 		.word	855842277
 197 01b8 5F4C0AAA 		.word	-1442165665
 198 01bc C97C0DDD 		.word	-586318647
 199 01c0 3C710550 		.word	1342533948
 200 01c4 AA410227 		.word	654459306
 201 01c8 10100BBE 		.word	-1106571248
 202 01cc 86200CC9 		.word	-921952122
 203 01d0 25B56857 		.word	1466479909
 204 01d4 B3856F20 		.word	544179635
 205 01d8 09D466B9 		.word	-1184443383
 206 01dc 9FE461CE 		.word	-832445281
 207 01e0 0EF9DE5E 		.word	1591671054
 208 01e4 98C9D929 		.word	702138776
 209 01e8 2298D0B0 		.word	-1328506846
 210 01ec B4A8D7C7 		.word	-942167884
 211 01f0 173DB359 		.word	1504918807
 212 01f4 810DB42E 		.word	783551873
 213 01f8 3B5CBDB7 		.word	-1212326853
 214 01fc AD6CBAC0 		.word	-1061524307
 215 0200 2083B8ED 		.word	-306674912
 216 0204 B6B3BF9A 		.word	-1698712650
 217 0208 0CE2B603 		.word	62317068
 218 020c 9AD2B174 		.word	1957810842
 219 0210 3947D5EA 		.word	-355121351
 220 0214 AF77D29D 		.word	-1647151185
 221 0218 1526DB04 		.word	81470997
 222 021c 8316DC73 		.word	1943803523
 223 0220 120B63E3 		.word	-480048366
 224 0224 843B6494 		.word	-1805370492
 225 0228 3E6A6D0D 		.word	225274430
 226 022c A85A6A7A 		.word	2053790376
 227 0230 0BCF0EE4 		.word	-468791541
 228 0234 9DFF0993 		.word	-1828061283
 229 0238 27AE000A 		.word	167816743
 230 023c B19E077D 		.word	2097651377
 231 0240 44930FF0 		.word	-267414716
 232 0244 D2A30887 		.word	-2029476910
 233 0248 68F2011E 		.word	503444072
 234 024c FEC20669 		.word	1762050814
 235 0250 5D5762F7 		.word	-144550051
 236 0254 CB676580 		.word	-2140837941
 237 0258 71366C19 		.word	426522225
 238 025c E7066B6E 		.word	1852507879
 239 0260 761BD4FE 		.word	-19653770
 240 0264 E02BD389 		.word	-1982649376
 241 0268 5A7ADA10 		.word	282753626
 242 026c CC4ADD67 		.word	1742555852
 243 0270 6FDFB9F9 		.word	-105259153
ARM GAS  /tmp/cccjClNS.s 			page 7


 244 0274 F9EFBE8E 		.word	-1900089351
 245 0278 43BEB717 		.word	397917763
 246 027c D58EB060 		.word	1622183637
 247 0280 E8A3D6D6 		.word	-690576408
 248 0284 7E93D1A1 		.word	-1580100738
 249 0288 C4C2D838 		.word	953729732
 250 028c 52F2DF4F 		.word	1340076626
 251 0290 F167BBD1 		.word	-776247311
 252 0294 6757BCA6 		.word	-1497606297
 253 0298 DD06B53F 		.word	1068828381
 254 029c 4B36B248 		.word	1219638859
 255 02a0 DA2B0DD8 		.word	-670225446
 256 02a4 4C1B0AAF 		.word	-1358292148
 257 02a8 F64A0336 		.word	906185462
 258 02ac 607A0441 		.word	1090812512
 259 02b0 C3EF60DF 		.word	-547295293
 260 02b4 55DF67A8 		.word	-1469587627
 261 02b8 EF8E6E31 		.word	829329135
 262 02bc 79BE6946 		.word	1181335161
 263 02c0 8CB361CB 		.word	-882789492
 264 02c4 1A8366BC 		.word	-1134132454
 265 02c8 A0D26F25 		.word	628085408
 266 02cc 36E26852 		.word	1382605366
 267 02d0 95770CCC 		.word	-871598187
 268 02d4 03470BBB 		.word	-1156888829
 269 02d8 B9160222 		.word	570562233
 270 02dc 2F260555 		.word	1426400815
 271 02e0 BE3BBAC5 		.word	-977650754
 272 02e4 280BBDB2 		.word	-1296233688
 273 02e8 925AB42B 		.word	733239954
 274 02ec 046AB35C 		.word	1555261956
 275 02f0 A7FFD7C2 		.word	-1026031705
 276 02f4 31CFD0B5 		.word	-1244606671
 277 02f8 8B9ED92C 		.word	752459403
 278 02fc 1DAEDE5B 		.word	1541320221
 279 0300 B0C2649B 		.word	-1687895376
 280 0304 26F263EC 		.word	-328994266
 281 0308 9CA36A75 		.word	1969922972
 282 030c 0A936D02 		.word	40735498
 283 0310 A906099C 		.word	-1677130071
 284 0314 3F360EEB 		.word	-351390145
 285 0318 85670772 		.word	1913087877
 286 031c 13570005 		.word	83908371
 287 0320 824ABF95 		.word	-1782625662
 288 0324 147AB8E2 		.word	-491226604
 289 0328 AE2BB17B 		.word	2075208622
 290 032c 381BB60C 		.word	213261112
 291 0330 9B8ED292 		.word	-1831694693
 292 0334 0DBED5E5 		.word	-438977011
 293 0338 B7EFDC7C 		.word	2094854071
 294 033c 21DFDB0B 		.word	198958881
 295 0340 D4D2D386 		.word	-2032938284
 296 0344 42E2D4F1 		.word	-237706686
 297 0348 F8B3DD68 		.word	1759359992
 298 034c 6E83DA1F 		.word	534414190
 299 0350 CD16BE81 		.word	-2118248755
 300 0354 5B26B9F6 		.word	-155638181
ARM GAS  /tmp/cccjClNS.s 			page 8


 301 0358 E177B06F 		.word	1873836001
 302 035c 7747B718 		.word	414664567
 303 0360 E65A0888 		.word	-2012718362
 304 0364 706A0FFF 		.word	-15766928
 305 0368 CA3B0666 		.word	1711684554
 306 036c 5C0B0111 		.word	285281116
 307 0370 FF9E658F 		.word	-1889165569
 308 0374 69AE62F8 		.word	-127750551
 309 0378 D3FF6B61 		.word	1634467795
 310 037c 45CF6C16 		.word	376229701
 311 0380 78E20AA0 		.word	-1609899400
 312 0384 EED20DD7 		.word	-686959890
 313 0388 5483044E 		.word	1308918612
 314 038c C2B30339 		.word	956543938
 315 0390 612667A7 		.word	-1486412191
 316 0394 F71660D0 		.word	-799009033
 317 0398 4D476949 		.word	1231636301
 318 039c DB776E3E 		.word	1047427035
 319 03a0 4A6AD1AE 		.word	-1362007478
 320 03a4 DC5AD6D9 		.word	-640263460
 321 03a8 660BDF40 		.word	1088359270
 322 03ac F03BD837 		.word	936918000
 323 03b0 53AEBCA9 		.word	-1447252397
 324 03b4 C59EBBDE 		.word	-558129467
 325 03b8 7FCFB247 		.word	1202900863
 326 03bc E9FFB530 		.word	817233897
 327 03c0 1CF2BDBD 		.word	-1111625188
 328 03c4 8AC2BACA 		.word	-893730166
 329 03c8 3093B353 		.word	1404277552
 330 03cc A6A3B424 		.word	615818150
 331 03d0 0536D0BA 		.word	-1160759803
 332 03d4 9306D7CD 		.word	-841546093
 333 03d8 2957DE54 		.word	1423857449
 334 03dc BF67D923 		.word	601450431
 335 03e0 2E7A66B3 		.word	-1285129682
 336 03e4 B84A61C4 		.word	-1000256840
 337 03e8 021B685D 		.word	1567103746
 338 03ec 942B6F2A 		.word	711928724
 339 03f0 37BE0BB4 		.word	-1274298825
 340 03f4 A18E0CC3 		.word	-1022587231
 341 03f8 1BDF055A 		.word	1510334235
 342 03fc 8DEF022D 		.word	755167117
 343              		.text
 344              	.Letext0:
 345              		.file 2 "/opt/gcc-arm-none-eabi-10.3-2021.10/arm-none-eabi/include/machine/_default_types.h"
 346              		.file 3 "/opt/gcc-arm-none-eabi-10.3-2021.10/arm-none-eabi/include/sys/_stdint.h"
 347              		.file 4 "/opt/gcc-arm-none-eabi-10.3-2021.10/lib/gcc/arm-none-eabi/10.3.1/include/stddef.h"
ARM GAS  /tmp/cccjClNS.s 			page 9


DEFINED SYMBOLS
                            *ABS*:0000000000000000 ef_utils.c
     /tmp/cccjClNS.s:20     .text.ef_calc_crc32:0000000000000000 $t
     /tmp/cccjClNS.s:27     .text.ef_calc_crc32:0000000000000000 ef_calc_crc32
     /tmp/cccjClNS.s:77     .text.ef_calc_crc32:0000000000000028 $d
     /tmp/cccjClNS.s:82     .rodata.crc32_table:0000000000000000 $d
     /tmp/cccjClNS.s:86     .rodata.crc32_table:0000000000000000 crc32_table

NO UNDEFINED SYMBOLS
