ARM GAS  /tmp/cc0dnhIO.s 			page 1


   1              		.cpu cortex-m4
   2              		.arch armv7e-m
   3              		.fpu fpv4-sp-d16
   4              		.eabi_attribute 27, 1
   5              		.eabi_attribute 28, 1
   6              		.eabi_attribute 20, 1
   7              		.eabi_attribute 21, 1
   8              		.eabi_attribute 23, 3
   9              		.eabi_attribute 24, 1
  10              		.eabi_attribute 25, 1
  11              		.eabi_attribute 26, 1
  12              		.eabi_attribute 30, 2
  13              		.eabi_attribute 34, 1
  14              		.eabi_attribute 18, 4
  15              		.file	"event_groups.c"
  16              		.text
  17              	.Ltext0:
  18              		.cfi_sections	.debug_frame
  19              		.section	.text.xEventGroupCreateStatic,"ax",%progbits
  20              		.align	1
  21              		.p2align 2,,3
  22              		.global	xEventGroupCreateStatic
  23              		.syntax unified
  24              		.thumb
  25              		.thumb_func
  27              	xEventGroupCreateStatic:
  28              	.LVL0:
  29              	.LFB5:
  30              		.file 1 "Middlewares/Third_Party/FreeRTOS/Source/event_groups.c"
   1:Middlewares/Third_Party/FreeRTOS/Source/event_groups.c **** /*
   2:Middlewares/Third_Party/FreeRTOS/Source/event_groups.c ****  * FreeRTOS Kernel V10.3.1
   3:Middlewares/Third_Party/FreeRTOS/Source/event_groups.c ****  * Copyright (C) 2020 Amazon.com, Inc. or its affiliates.  All Rights Reserved.
   4:Middlewares/Third_Party/FreeRTOS/Source/event_groups.c ****  *
   5:Middlewares/Third_Party/FreeRTOS/Source/event_groups.c ****  * Permission is hereby granted, free of charge, to any person obtaining a copy of
   6:Middlewares/Third_Party/FreeRTOS/Source/event_groups.c ****  * this software and associated documentation files (the "Software"), to deal in
   7:Middlewares/Third_Party/FreeRTOS/Source/event_groups.c ****  * the Software without restriction, including without limitation the rights to
   8:Middlewares/Third_Party/FreeRTOS/Source/event_groups.c ****  * use, copy, modify, merge, publish, distribute, sublicense, and/or sell copies of
   9:Middlewares/Third_Party/FreeRTOS/Source/event_groups.c ****  * the Software, and to permit persons to whom the Software is furnished to do so,
  10:Middlewares/Third_Party/FreeRTOS/Source/event_groups.c ****  * subject to the following conditions:
  11:Middlewares/Third_Party/FreeRTOS/Source/event_groups.c ****  *
  12:Middlewares/Third_Party/FreeRTOS/Source/event_groups.c ****  * The above copyright notice and this permission notice shall be included in all
  13:Middlewares/Third_Party/FreeRTOS/Source/event_groups.c ****  * copies or substantial portions of the Software.
  14:Middlewares/Third_Party/FreeRTOS/Source/event_groups.c ****  *
  15:Middlewares/Third_Party/FreeRTOS/Source/event_groups.c ****  * THE SOFTWARE IS PROVIDED "AS IS", WITHOUT WARRANTY OF ANY KIND, EXPRESS OR
  16:Middlewares/Third_Party/FreeRTOS/Source/event_groups.c ****  * IMPLIED, INCLUDING BUT NOT LIMITED TO THE WARRANTIES OF MERCHANTABILITY, FITNESS
  17:Middlewares/Third_Party/FreeRTOS/Source/event_groups.c ****  * FOR A PARTICULAR PURPOSE AND NONINFRINGEMENT. IN NO EVENT SHALL THE AUTHORS OR
  18:Middlewares/Third_Party/FreeRTOS/Source/event_groups.c ****  * COPYRIGHT HOLDERS BE LIABLE FOR ANY CLAIM, DAMAGES OR OTHER LIABILITY, WHETHER
  19:Middlewares/Third_Party/FreeRTOS/Source/event_groups.c ****  * IN AN ACTION OF CONTRACT, TORT OR OTHERWISE, ARISING FROM, OUT OF OR IN
  20:Middlewares/Third_Party/FreeRTOS/Source/event_groups.c ****  * CONNECTION WITH THE SOFTWARE OR THE USE OR OTHER DEALINGS IN THE SOFTWARE.
  21:Middlewares/Third_Party/FreeRTOS/Source/event_groups.c ****  *
  22:Middlewares/Third_Party/FreeRTOS/Source/event_groups.c ****  * http://www.FreeRTOS.org
  23:Middlewares/Third_Party/FreeRTOS/Source/event_groups.c ****  * http://aws.amazon.com/freertos
  24:Middlewares/Third_Party/FreeRTOS/Source/event_groups.c ****  *
  25:Middlewares/Third_Party/FreeRTOS/Source/event_groups.c ****  * 1 tab == 4 spaces!
  26:Middlewares/Third_Party/FreeRTOS/Source/event_groups.c ****  */
  27:Middlewares/Third_Party/FreeRTOS/Source/event_groups.c **** 
  28:Middlewares/Third_Party/FreeRTOS/Source/event_groups.c **** /* Standard includes. */
ARM GAS  /tmp/cc0dnhIO.s 			page 2


  29:Middlewares/Third_Party/FreeRTOS/Source/event_groups.c **** #include <stdlib.h>
  30:Middlewares/Third_Party/FreeRTOS/Source/event_groups.c **** 
  31:Middlewares/Third_Party/FreeRTOS/Source/event_groups.c **** /* Defining MPU_WRAPPERS_INCLUDED_FROM_API_FILE prevents task.h from redefining
  32:Middlewares/Third_Party/FreeRTOS/Source/event_groups.c **** all the API functions to use the MPU wrappers.  That should only be done when
  33:Middlewares/Third_Party/FreeRTOS/Source/event_groups.c **** task.h is included from an application file. */
  34:Middlewares/Third_Party/FreeRTOS/Source/event_groups.c **** #define MPU_WRAPPERS_INCLUDED_FROM_API_FILE
  35:Middlewares/Third_Party/FreeRTOS/Source/event_groups.c **** 
  36:Middlewares/Third_Party/FreeRTOS/Source/event_groups.c **** /* FreeRTOS includes. */
  37:Middlewares/Third_Party/FreeRTOS/Source/event_groups.c **** #include "FreeRTOS.h"
  38:Middlewares/Third_Party/FreeRTOS/Source/event_groups.c **** #include "task.h"
  39:Middlewares/Third_Party/FreeRTOS/Source/event_groups.c **** #include "timers.h"
  40:Middlewares/Third_Party/FreeRTOS/Source/event_groups.c **** #include "event_groups.h"
  41:Middlewares/Third_Party/FreeRTOS/Source/event_groups.c **** 
  42:Middlewares/Third_Party/FreeRTOS/Source/event_groups.c **** /* Lint e961, e750 and e9021 are suppressed as a MISRA exception justified
  43:Middlewares/Third_Party/FreeRTOS/Source/event_groups.c **** because the MPU ports require MPU_WRAPPERS_INCLUDED_FROM_API_FILE to be defined
  44:Middlewares/Third_Party/FreeRTOS/Source/event_groups.c **** for the header files above, but not in this file, in order to generate the
  45:Middlewares/Third_Party/FreeRTOS/Source/event_groups.c **** correct privileged Vs unprivileged linkage and placement. */
  46:Middlewares/Third_Party/FreeRTOS/Source/event_groups.c **** #undef MPU_WRAPPERS_INCLUDED_FROM_API_FILE /*lint !e961 !e750 !e9021 See comment above. */
  47:Middlewares/Third_Party/FreeRTOS/Source/event_groups.c **** 
  48:Middlewares/Third_Party/FreeRTOS/Source/event_groups.c **** /* The following bit fields convey control information in a task's event list
  49:Middlewares/Third_Party/FreeRTOS/Source/event_groups.c **** item value.  It is important they don't clash with the
  50:Middlewares/Third_Party/FreeRTOS/Source/event_groups.c **** taskEVENT_LIST_ITEM_VALUE_IN_USE definition. */
  51:Middlewares/Third_Party/FreeRTOS/Source/event_groups.c **** #if configUSE_16_BIT_TICKS == 1
  52:Middlewares/Third_Party/FreeRTOS/Source/event_groups.c **** 	#define eventCLEAR_EVENTS_ON_EXIT_BIT	0x0100U
  53:Middlewares/Third_Party/FreeRTOS/Source/event_groups.c **** 	#define eventUNBLOCKED_DUE_TO_BIT_SET	0x0200U
  54:Middlewares/Third_Party/FreeRTOS/Source/event_groups.c **** 	#define eventWAIT_FOR_ALL_BITS			0x0400U
  55:Middlewares/Third_Party/FreeRTOS/Source/event_groups.c **** 	#define eventEVENT_BITS_CONTROL_BYTES	0xff00U
  56:Middlewares/Third_Party/FreeRTOS/Source/event_groups.c **** #else
  57:Middlewares/Third_Party/FreeRTOS/Source/event_groups.c **** 	#define eventCLEAR_EVENTS_ON_EXIT_BIT	0x01000000UL
  58:Middlewares/Third_Party/FreeRTOS/Source/event_groups.c **** 	#define eventUNBLOCKED_DUE_TO_BIT_SET	0x02000000UL
  59:Middlewares/Third_Party/FreeRTOS/Source/event_groups.c **** 	#define eventWAIT_FOR_ALL_BITS			0x04000000UL
  60:Middlewares/Third_Party/FreeRTOS/Source/event_groups.c **** 	#define eventEVENT_BITS_CONTROL_BYTES	0xff000000UL
  61:Middlewares/Third_Party/FreeRTOS/Source/event_groups.c **** #endif
  62:Middlewares/Third_Party/FreeRTOS/Source/event_groups.c **** 
  63:Middlewares/Third_Party/FreeRTOS/Source/event_groups.c **** typedef struct EventGroupDef_t
  64:Middlewares/Third_Party/FreeRTOS/Source/event_groups.c **** {
  65:Middlewares/Third_Party/FreeRTOS/Source/event_groups.c **** 	EventBits_t uxEventBits;
  66:Middlewares/Third_Party/FreeRTOS/Source/event_groups.c **** 	List_t xTasksWaitingForBits;		/*< List of tasks waiting for a bit to be set. */
  67:Middlewares/Third_Party/FreeRTOS/Source/event_groups.c **** 
  68:Middlewares/Third_Party/FreeRTOS/Source/event_groups.c **** 	#if( configUSE_TRACE_FACILITY == 1 )
  69:Middlewares/Third_Party/FreeRTOS/Source/event_groups.c **** 		UBaseType_t uxEventGroupNumber;
  70:Middlewares/Third_Party/FreeRTOS/Source/event_groups.c **** 	#endif
  71:Middlewares/Third_Party/FreeRTOS/Source/event_groups.c **** 
  72:Middlewares/Third_Party/FreeRTOS/Source/event_groups.c **** 	#if( ( configSUPPORT_STATIC_ALLOCATION == 1 ) && ( configSUPPORT_DYNAMIC_ALLOCATION == 1 ) )
  73:Middlewares/Third_Party/FreeRTOS/Source/event_groups.c **** 		uint8_t ucStaticallyAllocated; /*< Set to pdTRUE if the event group is statically allocated to en
  74:Middlewares/Third_Party/FreeRTOS/Source/event_groups.c **** 	#endif
  75:Middlewares/Third_Party/FreeRTOS/Source/event_groups.c **** } EventGroup_t;
  76:Middlewares/Third_Party/FreeRTOS/Source/event_groups.c **** 
  77:Middlewares/Third_Party/FreeRTOS/Source/event_groups.c **** /*-----------------------------------------------------------*/
  78:Middlewares/Third_Party/FreeRTOS/Source/event_groups.c **** 
  79:Middlewares/Third_Party/FreeRTOS/Source/event_groups.c **** /*
  80:Middlewares/Third_Party/FreeRTOS/Source/event_groups.c ****  * Test the bits set in uxCurrentEventBits to see if the wait condition is met.
  81:Middlewares/Third_Party/FreeRTOS/Source/event_groups.c ****  * The wait condition is defined by xWaitForAllBits.  If xWaitForAllBits is
  82:Middlewares/Third_Party/FreeRTOS/Source/event_groups.c ****  * pdTRUE then the wait condition is met if all the bits set in uxBitsToWaitFor
  83:Middlewares/Third_Party/FreeRTOS/Source/event_groups.c ****  * are also set in uxCurrentEventBits.  If xWaitForAllBits is pdFALSE then the
  84:Middlewares/Third_Party/FreeRTOS/Source/event_groups.c ****  * wait condition is met if any of the bits set in uxBitsToWait for are also set
  85:Middlewares/Third_Party/FreeRTOS/Source/event_groups.c ****  * in uxCurrentEventBits.
ARM GAS  /tmp/cc0dnhIO.s 			page 3


  86:Middlewares/Third_Party/FreeRTOS/Source/event_groups.c ****  */
  87:Middlewares/Third_Party/FreeRTOS/Source/event_groups.c **** static BaseType_t prvTestWaitCondition( const EventBits_t uxCurrentEventBits, const EventBits_t uxB
  88:Middlewares/Third_Party/FreeRTOS/Source/event_groups.c **** 
  89:Middlewares/Third_Party/FreeRTOS/Source/event_groups.c **** /*-----------------------------------------------------------*/
  90:Middlewares/Third_Party/FreeRTOS/Source/event_groups.c **** 
  91:Middlewares/Third_Party/FreeRTOS/Source/event_groups.c **** #if( configSUPPORT_STATIC_ALLOCATION == 1 )
  92:Middlewares/Third_Party/FreeRTOS/Source/event_groups.c **** 
  93:Middlewares/Third_Party/FreeRTOS/Source/event_groups.c **** 	EventGroupHandle_t xEventGroupCreateStatic( StaticEventGroup_t *pxEventGroupBuffer )
  94:Middlewares/Third_Party/FreeRTOS/Source/event_groups.c **** 	{
  31              		.loc 1 94 2 view -0
  32              		.cfi_startproc
  33              		@ args = 0, pretend = 0, frame = 8
  34              		@ frame_needed = 0, uses_anonymous_args = 0
  95:Middlewares/Third_Party/FreeRTOS/Source/event_groups.c **** 	EventGroup_t *pxEventBits;
  35              		.loc 1 95 2 view .LVU1
  96:Middlewares/Third_Party/FreeRTOS/Source/event_groups.c **** 
  97:Middlewares/Third_Party/FreeRTOS/Source/event_groups.c **** 		/* A StaticEventGroup_t object must be provided. */
  98:Middlewares/Third_Party/FreeRTOS/Source/event_groups.c **** 		configASSERT( pxEventGroupBuffer );
  36              		.loc 1 98 3 view .LVU2
  37 0000 78B1     		cbz	r0, .L9
  38              		.loc 1 98 37 discriminator 2 view .LVU3
  39              	.LBB57:
  99:Middlewares/Third_Party/FreeRTOS/Source/event_groups.c **** 
 100:Middlewares/Third_Party/FreeRTOS/Source/event_groups.c **** 		#if( configASSERT_DEFINED == 1 )
 101:Middlewares/Third_Party/FreeRTOS/Source/event_groups.c **** 		{
 102:Middlewares/Third_Party/FreeRTOS/Source/event_groups.c **** 			/* Sanity check that the size of the structure used to declare a
 103:Middlewares/Third_Party/FreeRTOS/Source/event_groups.c **** 			variable of type StaticEventGroup_t equals the size of the real
 104:Middlewares/Third_Party/FreeRTOS/Source/event_groups.c **** 			event group structure. */
 105:Middlewares/Third_Party/FreeRTOS/Source/event_groups.c **** 			volatile size_t xSize = sizeof( StaticEventGroup_t );
  40              		.loc 1 105 4 discriminator 2 view .LVU4
  41              	.LBE57:
  94:Middlewares/Third_Party/FreeRTOS/Source/event_groups.c **** 	EventGroup_t *pxEventBits;
  42              		.loc 1 94 2 is_stmt 0 discriminator 2 view .LVU5
  43 0002 10B5     		push	{r4, lr}
  44              		.cfi_def_cfa_offset 8
  45              		.cfi_offset 4, -8
  46              		.cfi_offset 14, -4
  47 0004 82B0     		sub	sp, sp, #8
  48              		.cfi_def_cfa_offset 16
  49              	.LBB60:
  50              		.loc 1 105 20 discriminator 2 view .LVU6
  51 0006 1C23     		movs	r3, #28
  52 0008 0193     		str	r3, [sp, #4]
 106:Middlewares/Third_Party/FreeRTOS/Source/event_groups.c **** 			configASSERT( xSize == sizeof( EventGroup_t ) );
  53              		.loc 1 106 4 is_stmt 1 discriminator 2 view .LVU7
  54 000a 019B     		ldr	r3, [sp, #4]
  55 000c 1C2B     		cmp	r3, #28
  56 000e 11D0     		beq	.L4
  57              		.loc 1 106 4 view .LVU8
  58              	.LBB58:
  59              	.LBI58:
  60              		.file 2 "Middlewares/Third_Party/FreeRTOS/Source/portable/GCC/ARM_CM4F/portmacro.h"
   1:Middlewares/Third_Party/FreeRTOS/Source/portable/GCC/ARM_CM4F/portmacro.h **** /*
   2:Middlewares/Third_Party/FreeRTOS/Source/portable/GCC/ARM_CM4F/portmacro.h ****  * FreeRTOS Kernel V10.3.1
   3:Middlewares/Third_Party/FreeRTOS/Source/portable/GCC/ARM_CM4F/portmacro.h ****  * Copyright (C) 2020 Amazon.com, Inc. or its affiliates.  All Rights Reserved.
   4:Middlewares/Third_Party/FreeRTOS/Source/portable/GCC/ARM_CM4F/portmacro.h ****  *
   5:Middlewares/Third_Party/FreeRTOS/Source/portable/GCC/ARM_CM4F/portmacro.h ****  * Permission is hereby granted, free of charge, to any person obtaining a copy of
ARM GAS  /tmp/cc0dnhIO.s 			page 4


   6:Middlewares/Third_Party/FreeRTOS/Source/portable/GCC/ARM_CM4F/portmacro.h ****  * this software and associated documentation files (the "Software"), to deal in
   7:Middlewares/Third_Party/FreeRTOS/Source/portable/GCC/ARM_CM4F/portmacro.h ****  * the Software without restriction, including without limitation the rights to
   8:Middlewares/Third_Party/FreeRTOS/Source/portable/GCC/ARM_CM4F/portmacro.h ****  * use, copy, modify, merge, publish, distribute, sublicense, and/or sell copies of
   9:Middlewares/Third_Party/FreeRTOS/Source/portable/GCC/ARM_CM4F/portmacro.h ****  * the Software, and to permit persons to whom the Software is furnished to do so,
  10:Middlewares/Third_Party/FreeRTOS/Source/portable/GCC/ARM_CM4F/portmacro.h ****  * subject to the following conditions:
  11:Middlewares/Third_Party/FreeRTOS/Source/portable/GCC/ARM_CM4F/portmacro.h ****  *
  12:Middlewares/Third_Party/FreeRTOS/Source/portable/GCC/ARM_CM4F/portmacro.h ****  * The above copyright notice and this permission notice shall be included in all
  13:Middlewares/Third_Party/FreeRTOS/Source/portable/GCC/ARM_CM4F/portmacro.h ****  * copies or substantial portions of the Software.
  14:Middlewares/Third_Party/FreeRTOS/Source/portable/GCC/ARM_CM4F/portmacro.h ****  *
  15:Middlewares/Third_Party/FreeRTOS/Source/portable/GCC/ARM_CM4F/portmacro.h ****  * THE SOFTWARE IS PROVIDED "AS IS", WITHOUT WARRANTY OF ANY KIND, EXPRESS OR
  16:Middlewares/Third_Party/FreeRTOS/Source/portable/GCC/ARM_CM4F/portmacro.h ****  * IMPLIED, INCLUDING BUT NOT LIMITED TO THE WARRANTIES OF MERCHANTABILITY, FITNESS
  17:Middlewares/Third_Party/FreeRTOS/Source/portable/GCC/ARM_CM4F/portmacro.h ****  * FOR A PARTICULAR PURPOSE AND NONINFRINGEMENT. IN NO EVENT SHALL THE AUTHORS OR
  18:Middlewares/Third_Party/FreeRTOS/Source/portable/GCC/ARM_CM4F/portmacro.h ****  * COPYRIGHT HOLDERS BE LIABLE FOR ANY CLAIM, DAMAGES OR OTHER LIABILITY, WHETHER
  19:Middlewares/Third_Party/FreeRTOS/Source/portable/GCC/ARM_CM4F/portmacro.h ****  * IN AN ACTION OF CONTRACT, TORT OR OTHERWISE, ARISING FROM, OUT OF OR IN
  20:Middlewares/Third_Party/FreeRTOS/Source/portable/GCC/ARM_CM4F/portmacro.h ****  * CONNECTION WITH THE SOFTWARE OR THE USE OR OTHER DEALINGS IN THE SOFTWARE.
  21:Middlewares/Third_Party/FreeRTOS/Source/portable/GCC/ARM_CM4F/portmacro.h ****  *
  22:Middlewares/Third_Party/FreeRTOS/Source/portable/GCC/ARM_CM4F/portmacro.h ****  * http://www.FreeRTOS.org
  23:Middlewares/Third_Party/FreeRTOS/Source/portable/GCC/ARM_CM4F/portmacro.h ****  * http://aws.amazon.com/freertos
  24:Middlewares/Third_Party/FreeRTOS/Source/portable/GCC/ARM_CM4F/portmacro.h ****  *
  25:Middlewares/Third_Party/FreeRTOS/Source/portable/GCC/ARM_CM4F/portmacro.h ****  * 1 tab == 4 spaces!
  26:Middlewares/Third_Party/FreeRTOS/Source/portable/GCC/ARM_CM4F/portmacro.h ****  */
  27:Middlewares/Third_Party/FreeRTOS/Source/portable/GCC/ARM_CM4F/portmacro.h **** 
  28:Middlewares/Third_Party/FreeRTOS/Source/portable/GCC/ARM_CM4F/portmacro.h **** 
  29:Middlewares/Third_Party/FreeRTOS/Source/portable/GCC/ARM_CM4F/portmacro.h **** #ifndef PORTMACRO_H
  30:Middlewares/Third_Party/FreeRTOS/Source/portable/GCC/ARM_CM4F/portmacro.h **** #define PORTMACRO_H
  31:Middlewares/Third_Party/FreeRTOS/Source/portable/GCC/ARM_CM4F/portmacro.h **** 
  32:Middlewares/Third_Party/FreeRTOS/Source/portable/GCC/ARM_CM4F/portmacro.h **** #ifdef __cplusplus
  33:Middlewares/Third_Party/FreeRTOS/Source/portable/GCC/ARM_CM4F/portmacro.h **** extern "C" {
  34:Middlewares/Third_Party/FreeRTOS/Source/portable/GCC/ARM_CM4F/portmacro.h **** #endif
  35:Middlewares/Third_Party/FreeRTOS/Source/portable/GCC/ARM_CM4F/portmacro.h **** 
  36:Middlewares/Third_Party/FreeRTOS/Source/portable/GCC/ARM_CM4F/portmacro.h **** /*-----------------------------------------------------------
  37:Middlewares/Third_Party/FreeRTOS/Source/portable/GCC/ARM_CM4F/portmacro.h ****  * Port specific definitions.
  38:Middlewares/Third_Party/FreeRTOS/Source/portable/GCC/ARM_CM4F/portmacro.h ****  *
  39:Middlewares/Third_Party/FreeRTOS/Source/portable/GCC/ARM_CM4F/portmacro.h ****  * The settings in this file configure FreeRTOS correctly for the
  40:Middlewares/Third_Party/FreeRTOS/Source/portable/GCC/ARM_CM4F/portmacro.h ****  * given hardware and compiler.
  41:Middlewares/Third_Party/FreeRTOS/Source/portable/GCC/ARM_CM4F/portmacro.h ****  *
  42:Middlewares/Third_Party/FreeRTOS/Source/portable/GCC/ARM_CM4F/portmacro.h ****  * These settings should not be altered.
  43:Middlewares/Third_Party/FreeRTOS/Source/portable/GCC/ARM_CM4F/portmacro.h ****  *-----------------------------------------------------------
  44:Middlewares/Third_Party/FreeRTOS/Source/portable/GCC/ARM_CM4F/portmacro.h ****  */
  45:Middlewares/Third_Party/FreeRTOS/Source/portable/GCC/ARM_CM4F/portmacro.h **** 
  46:Middlewares/Third_Party/FreeRTOS/Source/portable/GCC/ARM_CM4F/portmacro.h **** /* Type definitions. */
  47:Middlewares/Third_Party/FreeRTOS/Source/portable/GCC/ARM_CM4F/portmacro.h **** #define portCHAR		char
  48:Middlewares/Third_Party/FreeRTOS/Source/portable/GCC/ARM_CM4F/portmacro.h **** #define portFLOAT		float
  49:Middlewares/Third_Party/FreeRTOS/Source/portable/GCC/ARM_CM4F/portmacro.h **** #define portDOUBLE		double
  50:Middlewares/Third_Party/FreeRTOS/Source/portable/GCC/ARM_CM4F/portmacro.h **** #define portLONG		long
  51:Middlewares/Third_Party/FreeRTOS/Source/portable/GCC/ARM_CM4F/portmacro.h **** #define portSHORT		short
  52:Middlewares/Third_Party/FreeRTOS/Source/portable/GCC/ARM_CM4F/portmacro.h **** #define portSTACK_TYPE	uint32_t
  53:Middlewares/Third_Party/FreeRTOS/Source/portable/GCC/ARM_CM4F/portmacro.h **** #define portBASE_TYPE	long
  54:Middlewares/Third_Party/FreeRTOS/Source/portable/GCC/ARM_CM4F/portmacro.h **** 
  55:Middlewares/Third_Party/FreeRTOS/Source/portable/GCC/ARM_CM4F/portmacro.h **** typedef portSTACK_TYPE StackType_t;
  56:Middlewares/Third_Party/FreeRTOS/Source/portable/GCC/ARM_CM4F/portmacro.h **** typedef long BaseType_t;
  57:Middlewares/Third_Party/FreeRTOS/Source/portable/GCC/ARM_CM4F/portmacro.h **** typedef unsigned long UBaseType_t;
  58:Middlewares/Third_Party/FreeRTOS/Source/portable/GCC/ARM_CM4F/portmacro.h **** 
  59:Middlewares/Third_Party/FreeRTOS/Source/portable/GCC/ARM_CM4F/portmacro.h **** #if( configUSE_16_BIT_TICKS == 1 )
  60:Middlewares/Third_Party/FreeRTOS/Source/portable/GCC/ARM_CM4F/portmacro.h **** 	typedef uint16_t TickType_t;
  61:Middlewares/Third_Party/FreeRTOS/Source/portable/GCC/ARM_CM4F/portmacro.h **** 	#define portMAX_DELAY ( TickType_t ) 0xffff
  62:Middlewares/Third_Party/FreeRTOS/Source/portable/GCC/ARM_CM4F/portmacro.h **** #else
ARM GAS  /tmp/cc0dnhIO.s 			page 5


  63:Middlewares/Third_Party/FreeRTOS/Source/portable/GCC/ARM_CM4F/portmacro.h **** 	typedef uint32_t TickType_t;
  64:Middlewares/Third_Party/FreeRTOS/Source/portable/GCC/ARM_CM4F/portmacro.h **** 	#define portMAX_DELAY ( TickType_t ) 0xffffffffUL
  65:Middlewares/Third_Party/FreeRTOS/Source/portable/GCC/ARM_CM4F/portmacro.h **** 
  66:Middlewares/Third_Party/FreeRTOS/Source/portable/GCC/ARM_CM4F/portmacro.h **** 	/* 32-bit tick type on a 32-bit architecture, so reads of the tick count do
  67:Middlewares/Third_Party/FreeRTOS/Source/portable/GCC/ARM_CM4F/portmacro.h **** 	not need to be guarded with a critical section. */
  68:Middlewares/Third_Party/FreeRTOS/Source/portable/GCC/ARM_CM4F/portmacro.h **** 	#define portTICK_TYPE_IS_ATOMIC 1
  69:Middlewares/Third_Party/FreeRTOS/Source/portable/GCC/ARM_CM4F/portmacro.h **** #endif
  70:Middlewares/Third_Party/FreeRTOS/Source/portable/GCC/ARM_CM4F/portmacro.h **** /*-----------------------------------------------------------*/
  71:Middlewares/Third_Party/FreeRTOS/Source/portable/GCC/ARM_CM4F/portmacro.h **** 
  72:Middlewares/Third_Party/FreeRTOS/Source/portable/GCC/ARM_CM4F/portmacro.h **** /* Architecture specifics. */
  73:Middlewares/Third_Party/FreeRTOS/Source/portable/GCC/ARM_CM4F/portmacro.h **** #define portSTACK_GROWTH			( -1 )
  74:Middlewares/Third_Party/FreeRTOS/Source/portable/GCC/ARM_CM4F/portmacro.h **** #define portTICK_PERIOD_MS			( ( TickType_t ) 1000 / configTICK_RATE_HZ )
  75:Middlewares/Third_Party/FreeRTOS/Source/portable/GCC/ARM_CM4F/portmacro.h **** #define portBYTE_ALIGNMENT			8
  76:Middlewares/Third_Party/FreeRTOS/Source/portable/GCC/ARM_CM4F/portmacro.h **** /*-----------------------------------------------------------*/
  77:Middlewares/Third_Party/FreeRTOS/Source/portable/GCC/ARM_CM4F/portmacro.h **** 
  78:Middlewares/Third_Party/FreeRTOS/Source/portable/GCC/ARM_CM4F/portmacro.h **** /* Scheduler utilities. */
  79:Middlewares/Third_Party/FreeRTOS/Source/portable/GCC/ARM_CM4F/portmacro.h **** #define portYIELD() 															\
  80:Middlewares/Third_Party/FreeRTOS/Source/portable/GCC/ARM_CM4F/portmacro.h **** {																				\
  81:Middlewares/Third_Party/FreeRTOS/Source/portable/GCC/ARM_CM4F/portmacro.h **** 	/* Set a PendSV to request a context switch. */								\
  82:Middlewares/Third_Party/FreeRTOS/Source/portable/GCC/ARM_CM4F/portmacro.h **** 	portNVIC_INT_CTRL_REG = portNVIC_PENDSVSET_BIT;								\
  83:Middlewares/Third_Party/FreeRTOS/Source/portable/GCC/ARM_CM4F/portmacro.h **** 																				\
  84:Middlewares/Third_Party/FreeRTOS/Source/portable/GCC/ARM_CM4F/portmacro.h **** 	/* Barriers are normally not required but do ensure the code is completely	\
  85:Middlewares/Third_Party/FreeRTOS/Source/portable/GCC/ARM_CM4F/portmacro.h **** 	within the specified behaviour for the architecture. */						\
  86:Middlewares/Third_Party/FreeRTOS/Source/portable/GCC/ARM_CM4F/portmacro.h **** 	__asm volatile( "dsb" ::: "memory" );										\
  87:Middlewares/Third_Party/FreeRTOS/Source/portable/GCC/ARM_CM4F/portmacro.h **** 	__asm volatile( "isb" );													\
  88:Middlewares/Third_Party/FreeRTOS/Source/portable/GCC/ARM_CM4F/portmacro.h **** }
  89:Middlewares/Third_Party/FreeRTOS/Source/portable/GCC/ARM_CM4F/portmacro.h **** 
  90:Middlewares/Third_Party/FreeRTOS/Source/portable/GCC/ARM_CM4F/portmacro.h **** #define portNVIC_INT_CTRL_REG		( * ( ( volatile uint32_t * ) 0xe000ed04 ) )
  91:Middlewares/Third_Party/FreeRTOS/Source/portable/GCC/ARM_CM4F/portmacro.h **** #define portNVIC_PENDSVSET_BIT		( 1UL << 28UL )
  92:Middlewares/Third_Party/FreeRTOS/Source/portable/GCC/ARM_CM4F/portmacro.h **** #define portEND_SWITCHING_ISR( xSwitchRequired ) if( xSwitchRequired != pdFALSE ) portYIELD()
  93:Middlewares/Third_Party/FreeRTOS/Source/portable/GCC/ARM_CM4F/portmacro.h **** #define portYIELD_FROM_ISR( x ) portEND_SWITCHING_ISR( x )
  94:Middlewares/Third_Party/FreeRTOS/Source/portable/GCC/ARM_CM4F/portmacro.h **** /*-----------------------------------------------------------*/
  95:Middlewares/Third_Party/FreeRTOS/Source/portable/GCC/ARM_CM4F/portmacro.h **** 
  96:Middlewares/Third_Party/FreeRTOS/Source/portable/GCC/ARM_CM4F/portmacro.h **** /* Critical section management. */
  97:Middlewares/Third_Party/FreeRTOS/Source/portable/GCC/ARM_CM4F/portmacro.h **** extern void vPortEnterCritical( void );
  98:Middlewares/Third_Party/FreeRTOS/Source/portable/GCC/ARM_CM4F/portmacro.h **** extern void vPortExitCritical( void );
  99:Middlewares/Third_Party/FreeRTOS/Source/portable/GCC/ARM_CM4F/portmacro.h **** #define portSET_INTERRUPT_MASK_FROM_ISR()		ulPortRaiseBASEPRI()
 100:Middlewares/Third_Party/FreeRTOS/Source/portable/GCC/ARM_CM4F/portmacro.h **** #define portCLEAR_INTERRUPT_MASK_FROM_ISR(x)	vPortSetBASEPRI(x)
 101:Middlewares/Third_Party/FreeRTOS/Source/portable/GCC/ARM_CM4F/portmacro.h **** #define portDISABLE_INTERRUPTS()				vPortRaiseBASEPRI()
 102:Middlewares/Third_Party/FreeRTOS/Source/portable/GCC/ARM_CM4F/portmacro.h **** #define portENABLE_INTERRUPTS()					vPortSetBASEPRI(0)
 103:Middlewares/Third_Party/FreeRTOS/Source/portable/GCC/ARM_CM4F/portmacro.h **** #define portENTER_CRITICAL()					vPortEnterCritical()
 104:Middlewares/Third_Party/FreeRTOS/Source/portable/GCC/ARM_CM4F/portmacro.h **** #define portEXIT_CRITICAL()						vPortExitCritical()
 105:Middlewares/Third_Party/FreeRTOS/Source/portable/GCC/ARM_CM4F/portmacro.h **** 
 106:Middlewares/Third_Party/FreeRTOS/Source/portable/GCC/ARM_CM4F/portmacro.h **** /*-----------------------------------------------------------*/
 107:Middlewares/Third_Party/FreeRTOS/Source/portable/GCC/ARM_CM4F/portmacro.h **** 
 108:Middlewares/Third_Party/FreeRTOS/Source/portable/GCC/ARM_CM4F/portmacro.h **** /* Task function macros as described on the FreeRTOS.org WEB site.  These are
 109:Middlewares/Third_Party/FreeRTOS/Source/portable/GCC/ARM_CM4F/portmacro.h **** not necessary for to use this port.  They are defined so the common demo files
 110:Middlewares/Third_Party/FreeRTOS/Source/portable/GCC/ARM_CM4F/portmacro.h **** (which build with all the ports) will build. */
 111:Middlewares/Third_Party/FreeRTOS/Source/portable/GCC/ARM_CM4F/portmacro.h **** #define portTASK_FUNCTION_PROTO( vFunction, pvParameters ) void vFunction( void *pvParameters )
 112:Middlewares/Third_Party/FreeRTOS/Source/portable/GCC/ARM_CM4F/portmacro.h **** #define portTASK_FUNCTION( vFunction, pvParameters ) void vFunction( void *pvParameters )
 113:Middlewares/Third_Party/FreeRTOS/Source/portable/GCC/ARM_CM4F/portmacro.h **** /*-----------------------------------------------------------*/
 114:Middlewares/Third_Party/FreeRTOS/Source/portable/GCC/ARM_CM4F/portmacro.h **** 
 115:Middlewares/Third_Party/FreeRTOS/Source/portable/GCC/ARM_CM4F/portmacro.h **** /* Tickless idle/low power functionality. */
 116:Middlewares/Third_Party/FreeRTOS/Source/portable/GCC/ARM_CM4F/portmacro.h **** #ifndef portSUPPRESS_TICKS_AND_SLEEP
 117:Middlewares/Third_Party/FreeRTOS/Source/portable/GCC/ARM_CM4F/portmacro.h **** 	extern void vPortSuppressTicksAndSleep( TickType_t xExpectedIdleTime );
 118:Middlewares/Third_Party/FreeRTOS/Source/portable/GCC/ARM_CM4F/portmacro.h **** 	#define portSUPPRESS_TICKS_AND_SLEEP( xExpectedIdleTime ) vPortSuppressTicksAndSleep( xExpectedIdl
 119:Middlewares/Third_Party/FreeRTOS/Source/portable/GCC/ARM_CM4F/portmacro.h **** #endif
ARM GAS  /tmp/cc0dnhIO.s 			page 6


 120:Middlewares/Third_Party/FreeRTOS/Source/portable/GCC/ARM_CM4F/portmacro.h **** /*-----------------------------------------------------------*/
 121:Middlewares/Third_Party/FreeRTOS/Source/portable/GCC/ARM_CM4F/portmacro.h **** 
 122:Middlewares/Third_Party/FreeRTOS/Source/portable/GCC/ARM_CM4F/portmacro.h **** /* Architecture specific optimisations. */
 123:Middlewares/Third_Party/FreeRTOS/Source/portable/GCC/ARM_CM4F/portmacro.h **** #ifndef configUSE_PORT_OPTIMISED_TASK_SELECTION
 124:Middlewares/Third_Party/FreeRTOS/Source/portable/GCC/ARM_CM4F/portmacro.h **** 	#define configUSE_PORT_OPTIMISED_TASK_SELECTION 1
 125:Middlewares/Third_Party/FreeRTOS/Source/portable/GCC/ARM_CM4F/portmacro.h **** #endif
 126:Middlewares/Third_Party/FreeRTOS/Source/portable/GCC/ARM_CM4F/portmacro.h **** 
 127:Middlewares/Third_Party/FreeRTOS/Source/portable/GCC/ARM_CM4F/portmacro.h **** #if configUSE_PORT_OPTIMISED_TASK_SELECTION == 1
 128:Middlewares/Third_Party/FreeRTOS/Source/portable/GCC/ARM_CM4F/portmacro.h **** 
 129:Middlewares/Third_Party/FreeRTOS/Source/portable/GCC/ARM_CM4F/portmacro.h **** 	/* Generic helper function. */
 130:Middlewares/Third_Party/FreeRTOS/Source/portable/GCC/ARM_CM4F/portmacro.h **** 	__attribute__( ( always_inline ) ) static inline uint8_t ucPortCountLeadingZeros( uint32_t ulBitma
 131:Middlewares/Third_Party/FreeRTOS/Source/portable/GCC/ARM_CM4F/portmacro.h **** 	{
 132:Middlewares/Third_Party/FreeRTOS/Source/portable/GCC/ARM_CM4F/portmacro.h **** 	uint8_t ucReturn;
 133:Middlewares/Third_Party/FreeRTOS/Source/portable/GCC/ARM_CM4F/portmacro.h **** 
 134:Middlewares/Third_Party/FreeRTOS/Source/portable/GCC/ARM_CM4F/portmacro.h **** 		__asm volatile ( "clz %0, %1" : "=r" ( ucReturn ) : "r" ( ulBitmap ) : "memory" );
 135:Middlewares/Third_Party/FreeRTOS/Source/portable/GCC/ARM_CM4F/portmacro.h **** 		return ucReturn;
 136:Middlewares/Third_Party/FreeRTOS/Source/portable/GCC/ARM_CM4F/portmacro.h **** 	}
 137:Middlewares/Third_Party/FreeRTOS/Source/portable/GCC/ARM_CM4F/portmacro.h **** 
 138:Middlewares/Third_Party/FreeRTOS/Source/portable/GCC/ARM_CM4F/portmacro.h **** 	/* Check the configuration. */
 139:Middlewares/Third_Party/FreeRTOS/Source/portable/GCC/ARM_CM4F/portmacro.h **** 	#if( configMAX_PRIORITIES > 32 )
 140:Middlewares/Third_Party/FreeRTOS/Source/portable/GCC/ARM_CM4F/portmacro.h **** 		#error configUSE_PORT_OPTIMISED_TASK_SELECTION can only be set to 1 when configMAX_PRIORITIES is 
 141:Middlewares/Third_Party/FreeRTOS/Source/portable/GCC/ARM_CM4F/portmacro.h **** 	#endif
 142:Middlewares/Third_Party/FreeRTOS/Source/portable/GCC/ARM_CM4F/portmacro.h **** 
 143:Middlewares/Third_Party/FreeRTOS/Source/portable/GCC/ARM_CM4F/portmacro.h **** 	/* Store/clear the ready priorities in a bit map. */
 144:Middlewares/Third_Party/FreeRTOS/Source/portable/GCC/ARM_CM4F/portmacro.h **** 	#define portRECORD_READY_PRIORITY( uxPriority, uxReadyPriorities ) ( uxReadyPriorities ) |= ( 1UL 
 145:Middlewares/Third_Party/FreeRTOS/Source/portable/GCC/ARM_CM4F/portmacro.h **** 	#define portRESET_READY_PRIORITY( uxPriority, uxReadyPriorities ) ( uxReadyPriorities ) &= ~( 1UL 
 146:Middlewares/Third_Party/FreeRTOS/Source/portable/GCC/ARM_CM4F/portmacro.h **** 
 147:Middlewares/Third_Party/FreeRTOS/Source/portable/GCC/ARM_CM4F/portmacro.h **** 	/*-----------------------------------------------------------*/
 148:Middlewares/Third_Party/FreeRTOS/Source/portable/GCC/ARM_CM4F/portmacro.h **** 
 149:Middlewares/Third_Party/FreeRTOS/Source/portable/GCC/ARM_CM4F/portmacro.h **** 	#define portGET_HIGHEST_PRIORITY( uxTopPriority, uxReadyPriorities ) uxTopPriority = ( 31UL - ( ui
 150:Middlewares/Third_Party/FreeRTOS/Source/portable/GCC/ARM_CM4F/portmacro.h **** 
 151:Middlewares/Third_Party/FreeRTOS/Source/portable/GCC/ARM_CM4F/portmacro.h **** #endif /* configUSE_PORT_OPTIMISED_TASK_SELECTION */
 152:Middlewares/Third_Party/FreeRTOS/Source/portable/GCC/ARM_CM4F/portmacro.h **** 
 153:Middlewares/Third_Party/FreeRTOS/Source/portable/GCC/ARM_CM4F/portmacro.h **** /*-----------------------------------------------------------*/
 154:Middlewares/Third_Party/FreeRTOS/Source/portable/GCC/ARM_CM4F/portmacro.h **** 
 155:Middlewares/Third_Party/FreeRTOS/Source/portable/GCC/ARM_CM4F/portmacro.h **** #ifdef configASSERT
 156:Middlewares/Third_Party/FreeRTOS/Source/portable/GCC/ARM_CM4F/portmacro.h **** 	void vPortValidateInterruptPriority( void );
 157:Middlewares/Third_Party/FreeRTOS/Source/portable/GCC/ARM_CM4F/portmacro.h **** 	#define portASSERT_IF_INTERRUPT_PRIORITY_INVALID() 	vPortValidateInterruptPriority()
 158:Middlewares/Third_Party/FreeRTOS/Source/portable/GCC/ARM_CM4F/portmacro.h **** #endif
 159:Middlewares/Third_Party/FreeRTOS/Source/portable/GCC/ARM_CM4F/portmacro.h **** 
 160:Middlewares/Third_Party/FreeRTOS/Source/portable/GCC/ARM_CM4F/portmacro.h **** /* portNOP() is not required by this port. */
 161:Middlewares/Third_Party/FreeRTOS/Source/portable/GCC/ARM_CM4F/portmacro.h **** #define portNOP()
 162:Middlewares/Third_Party/FreeRTOS/Source/portable/GCC/ARM_CM4F/portmacro.h **** 
 163:Middlewares/Third_Party/FreeRTOS/Source/portable/GCC/ARM_CM4F/portmacro.h **** #define portINLINE	__inline
 164:Middlewares/Third_Party/FreeRTOS/Source/portable/GCC/ARM_CM4F/portmacro.h **** 
 165:Middlewares/Third_Party/FreeRTOS/Source/portable/GCC/ARM_CM4F/portmacro.h **** #ifndef portFORCE_INLINE
 166:Middlewares/Third_Party/FreeRTOS/Source/portable/GCC/ARM_CM4F/portmacro.h **** 	#define portFORCE_INLINE inline __attribute__(( always_inline))
 167:Middlewares/Third_Party/FreeRTOS/Source/portable/GCC/ARM_CM4F/portmacro.h **** #endif
 168:Middlewares/Third_Party/FreeRTOS/Source/portable/GCC/ARM_CM4F/portmacro.h **** 
 169:Middlewares/Third_Party/FreeRTOS/Source/portable/GCC/ARM_CM4F/portmacro.h **** portFORCE_INLINE static BaseType_t xPortIsInsideInterrupt( void )
 170:Middlewares/Third_Party/FreeRTOS/Source/portable/GCC/ARM_CM4F/portmacro.h **** {
 171:Middlewares/Third_Party/FreeRTOS/Source/portable/GCC/ARM_CM4F/portmacro.h **** uint32_t ulCurrentInterrupt;
 172:Middlewares/Third_Party/FreeRTOS/Source/portable/GCC/ARM_CM4F/portmacro.h **** BaseType_t xReturn;
 173:Middlewares/Third_Party/FreeRTOS/Source/portable/GCC/ARM_CM4F/portmacro.h **** 
 174:Middlewares/Third_Party/FreeRTOS/Source/portable/GCC/ARM_CM4F/portmacro.h **** 	/* Obtain the number of the currently executing interrupt. */
 175:Middlewares/Third_Party/FreeRTOS/Source/portable/GCC/ARM_CM4F/portmacro.h **** 	__asm volatile( "mrs %0, ipsr" : "=r"( ulCurrentInterrupt ) :: "memory" );
 176:Middlewares/Third_Party/FreeRTOS/Source/portable/GCC/ARM_CM4F/portmacro.h **** 
ARM GAS  /tmp/cc0dnhIO.s 			page 7


 177:Middlewares/Third_Party/FreeRTOS/Source/portable/GCC/ARM_CM4F/portmacro.h **** 	if( ulCurrentInterrupt == 0 )
 178:Middlewares/Third_Party/FreeRTOS/Source/portable/GCC/ARM_CM4F/portmacro.h **** 	{
 179:Middlewares/Third_Party/FreeRTOS/Source/portable/GCC/ARM_CM4F/portmacro.h **** 		xReturn = pdFALSE;
 180:Middlewares/Third_Party/FreeRTOS/Source/portable/GCC/ARM_CM4F/portmacro.h **** 	}
 181:Middlewares/Third_Party/FreeRTOS/Source/portable/GCC/ARM_CM4F/portmacro.h **** 	else
 182:Middlewares/Third_Party/FreeRTOS/Source/portable/GCC/ARM_CM4F/portmacro.h **** 	{
 183:Middlewares/Third_Party/FreeRTOS/Source/portable/GCC/ARM_CM4F/portmacro.h **** 		xReturn = pdTRUE;
 184:Middlewares/Third_Party/FreeRTOS/Source/portable/GCC/ARM_CM4F/portmacro.h **** 	}
 185:Middlewares/Third_Party/FreeRTOS/Source/portable/GCC/ARM_CM4F/portmacro.h **** 
 186:Middlewares/Third_Party/FreeRTOS/Source/portable/GCC/ARM_CM4F/portmacro.h **** 	return xReturn;
 187:Middlewares/Third_Party/FreeRTOS/Source/portable/GCC/ARM_CM4F/portmacro.h **** }
 188:Middlewares/Third_Party/FreeRTOS/Source/portable/GCC/ARM_CM4F/portmacro.h **** 
 189:Middlewares/Third_Party/FreeRTOS/Source/portable/GCC/ARM_CM4F/portmacro.h **** /*-----------------------------------------------------------*/
 190:Middlewares/Third_Party/FreeRTOS/Source/portable/GCC/ARM_CM4F/portmacro.h **** 
 191:Middlewares/Third_Party/FreeRTOS/Source/portable/GCC/ARM_CM4F/portmacro.h **** portFORCE_INLINE static void vPortRaiseBASEPRI( void )
  61              		.loc 2 191 30 view .LVU9
  62              	.LBB59:
 192:Middlewares/Third_Party/FreeRTOS/Source/portable/GCC/ARM_CM4F/portmacro.h **** {
 193:Middlewares/Third_Party/FreeRTOS/Source/portable/GCC/ARM_CM4F/portmacro.h **** uint32_t ulNewBASEPRI;
  63              		.loc 2 193 1 view .LVU10
 194:Middlewares/Third_Party/FreeRTOS/Source/portable/GCC/ARM_CM4F/portmacro.h **** 
 195:Middlewares/Third_Party/FreeRTOS/Source/portable/GCC/ARM_CM4F/portmacro.h **** 	__asm volatile
  64              		.loc 2 195 2 view .LVU11
  65              		.syntax unified
  66              	@ 195 "Middlewares/Third_Party/FreeRTOS/Source/portable/GCC/ARM_CM4F/portmacro.h" 1
  67 0010 4FF05003 			mov r3, #80												
  68 0014 83F31188 		msr basepri, r3											
  69 0018 BFF36F8F 		isb														
  70 001c BFF34F8F 		dsb														
  71              	
  72              	@ 0 "" 2
  73              	.LVL1:
  74              		.thumb
  75              		.syntax unified
  76              	.L5:
  77              		.loc 2 195 2 is_stmt 0 view .LVU12
  78              	.LBE59:
  79              	.LBE58:
  80              		.loc 1 106 4 is_stmt 1 discriminator 2 view .LVU13
  81              		.loc 1 106 4 discriminator 2 view .LVU14
  82              		.loc 1 106 4 discriminator 2 view .LVU15
  83              		.loc 1 106 4 discriminator 2 view .LVU16
  84              		.loc 1 106 4 discriminator 2 view .LVU17
  85              		.loc 1 106 4 discriminator 2 view .LVU18
  86 0020 FEE7     		b	.L5
  87              	.L9:
  88              		.cfi_def_cfa_offset 0
  89              		.cfi_restore 4
  90              		.cfi_restore 14
  91              	.LBE60:
  98:Middlewares/Third_Party/FreeRTOS/Source/event_groups.c **** 
  92              		.loc 1 98 3 view .LVU19
  93              	.LBB61:
  94              	.LBI61:
 191:Middlewares/Third_Party/FreeRTOS/Source/portable/GCC/ARM_CM4F/portmacro.h **** {
  95              		.loc 2 191 30 view .LVU20
  96              	.LBB62:
ARM GAS  /tmp/cc0dnhIO.s 			page 8


 193:Middlewares/Third_Party/FreeRTOS/Source/portable/GCC/ARM_CM4F/portmacro.h **** 
  97              		.loc 2 193 1 view .LVU21
  98              		.loc 2 195 2 view .LVU22
  99              		.syntax unified
 100              	@ 195 "Middlewares/Third_Party/FreeRTOS/Source/portable/GCC/ARM_CM4F/portmacro.h" 1
 101 0022 4FF05003 			mov r3, #80												
 102 0026 83F31188 		msr basepri, r3											
 103 002a BFF36F8F 		isb														
 104 002e BFF34F8F 		dsb														
 105              	
 106              	@ 0 "" 2
 107              	.LVL2:
 108              		.thumb
 109              		.syntax unified
 110              	.L3:
 111              		.loc 2 195 2 is_stmt 0 view .LVU23
 112              	.LBE62:
 113              	.LBE61:
  98:Middlewares/Third_Party/FreeRTOS/Source/event_groups.c **** 
 114              		.loc 1 98 3 is_stmt 1 discriminator 1 view .LVU24
  98:Middlewares/Third_Party/FreeRTOS/Source/event_groups.c **** 
 115              		.loc 1 98 3 discriminator 1 view .LVU25
  98:Middlewares/Third_Party/FreeRTOS/Source/event_groups.c **** 
 116              		.loc 1 98 3 discriminator 1 view .LVU26
  98:Middlewares/Third_Party/FreeRTOS/Source/event_groups.c **** 
 117              		.loc 1 98 3 discriminator 1 view .LVU27
  98:Middlewares/Third_Party/FreeRTOS/Source/event_groups.c **** 
 118              		.loc 1 98 3 discriminator 1 view .LVU28
  98:Middlewares/Third_Party/FreeRTOS/Source/event_groups.c **** 
 119              		.loc 1 98 3 discriminator 1 view .LVU29
 120 0032 FEE7     		b	.L3
 121              	.L4:
 122              		.cfi_def_cfa_offset 16
 123              		.cfi_offset 4, -8
 124              		.cfi_offset 14, -4
 107:Middlewares/Third_Party/FreeRTOS/Source/event_groups.c **** 		} /*lint !e529 xSize is referenced if configASSERT() is defined. */
 108:Middlewares/Third_Party/FreeRTOS/Source/event_groups.c **** 		#endif /* configASSERT_DEFINED */
 109:Middlewares/Third_Party/FreeRTOS/Source/event_groups.c **** 
 110:Middlewares/Third_Party/FreeRTOS/Source/event_groups.c **** 		/* The user has provided a statically allocated event group - use it. */
 111:Middlewares/Third_Party/FreeRTOS/Source/event_groups.c **** 		pxEventBits = ( EventGroup_t * ) pxEventGroupBuffer; /*lint !e740 !e9087 EventGroup_t and StaticE
 112:Middlewares/Third_Party/FreeRTOS/Source/event_groups.c **** 
 113:Middlewares/Third_Party/FreeRTOS/Source/event_groups.c **** 		if( pxEventBits != NULL )
 114:Middlewares/Third_Party/FreeRTOS/Source/event_groups.c **** 		{
 115:Middlewares/Third_Party/FreeRTOS/Source/event_groups.c **** 			pxEventBits->uxEventBits = 0;
 125              		.loc 1 115 29 is_stmt 0 view .LVU30
 126 0034 0023     		movs	r3, #0
 127 0036 0446     		mov	r4, r0
 128              	.LBB63:
 106:Middlewares/Third_Party/FreeRTOS/Source/event_groups.c **** 		} /*lint !e529 xSize is referenced if configASSERT() is defined. */
 129              		.loc 1 106 51 is_stmt 1 view .LVU31
 130              	.LBE63:
 111:Middlewares/Third_Party/FreeRTOS/Source/event_groups.c **** 
 131              		.loc 1 111 3 view .LVU32
 132              	.LVL3:
 113:Middlewares/Third_Party/FreeRTOS/Source/event_groups.c **** 		{
 133              		.loc 1 113 3 view .LVU33
 134              		.loc 1 115 4 view .LVU34
ARM GAS  /tmp/cc0dnhIO.s 			page 9


 135              		.loc 1 115 29 is_stmt 0 view .LVU35
 136 0038 40F8043B 		str	r3, [r0], #4
 137              	.LVL4:
 116:Middlewares/Third_Party/FreeRTOS/Source/event_groups.c **** 			vListInitialise( &( pxEventBits->xTasksWaitingForBits ) );
 138              		.loc 1 116 4 is_stmt 1 view .LVU36
 139 003c FFF7FEFF 		bl	vListInitialise
 140              	.LVL5:
 117:Middlewares/Third_Party/FreeRTOS/Source/event_groups.c **** 
 118:Middlewares/Third_Party/FreeRTOS/Source/event_groups.c **** 			#if( configSUPPORT_DYNAMIC_ALLOCATION == 1 )
 119:Middlewares/Third_Party/FreeRTOS/Source/event_groups.c **** 			{
 120:Middlewares/Third_Party/FreeRTOS/Source/event_groups.c **** 				/* Both static and dynamic allocation can be used, so note that
 121:Middlewares/Third_Party/FreeRTOS/Source/event_groups.c **** 				this event group was created statically in case the event group
 122:Middlewares/Third_Party/FreeRTOS/Source/event_groups.c **** 				is later deleted. */
 123:Middlewares/Third_Party/FreeRTOS/Source/event_groups.c **** 				pxEventBits->ucStaticallyAllocated = pdTRUE;
 141              		.loc 1 123 5 view .LVU37
 142              		.loc 1 123 40 is_stmt 0 view .LVU38
 143 0040 0123     		movs	r3, #1
 124:Middlewares/Third_Party/FreeRTOS/Source/event_groups.c **** 			}
 125:Middlewares/Third_Party/FreeRTOS/Source/event_groups.c **** 			#endif /* configSUPPORT_DYNAMIC_ALLOCATION */
 126:Middlewares/Third_Party/FreeRTOS/Source/event_groups.c **** 
 127:Middlewares/Third_Party/FreeRTOS/Source/event_groups.c **** 			traceEVENT_GROUP_CREATE( pxEventBits );
 128:Middlewares/Third_Party/FreeRTOS/Source/event_groups.c **** 		}
 129:Middlewares/Third_Party/FreeRTOS/Source/event_groups.c **** 		else
 130:Middlewares/Third_Party/FreeRTOS/Source/event_groups.c **** 		{
 131:Middlewares/Third_Party/FreeRTOS/Source/event_groups.c **** 			/* xEventGroupCreateStatic should only ever be called with
 132:Middlewares/Third_Party/FreeRTOS/Source/event_groups.c **** 			pxEventGroupBuffer pointing to a pre-allocated (compile time
 133:Middlewares/Third_Party/FreeRTOS/Source/event_groups.c **** 			allocated) StaticEventGroup_t variable. */
 134:Middlewares/Third_Party/FreeRTOS/Source/event_groups.c **** 			traceEVENT_GROUP_CREATE_FAILED();
 135:Middlewares/Third_Party/FreeRTOS/Source/event_groups.c **** 		}
 136:Middlewares/Third_Party/FreeRTOS/Source/event_groups.c **** 
 137:Middlewares/Third_Party/FreeRTOS/Source/event_groups.c **** 		return pxEventBits;
 138:Middlewares/Third_Party/FreeRTOS/Source/event_groups.c **** 	}
 144              		.loc 1 138 2 view .LVU39
 145 0042 2046     		mov	r0, r4
 123:Middlewares/Third_Party/FreeRTOS/Source/event_groups.c **** 			}
 146              		.loc 1 123 40 view .LVU40
 147 0044 2376     		strb	r3, [r4, #24]
 127:Middlewares/Third_Party/FreeRTOS/Source/event_groups.c **** 		}
 148              		.loc 1 127 42 is_stmt 1 view .LVU41
 134:Middlewares/Third_Party/FreeRTOS/Source/event_groups.c **** 		}
 149              		.loc 1 134 36 view .LVU42
 137:Middlewares/Third_Party/FreeRTOS/Source/event_groups.c **** 	}
 150              		.loc 1 137 3 view .LVU43
 151              		.loc 1 138 2 is_stmt 0 view .LVU44
 152 0046 02B0     		add	sp, sp, #8
 153              		.cfi_def_cfa_offset 8
 154              		@ sp needed
 155 0048 10BD     		pop	{r4, pc}
 156              		.loc 1 138 2 view .LVU45
 157              		.cfi_endproc
 158              	.LFE5:
 160 004a 00BF     		.section	.text.xEventGroupCreate,"ax",%progbits
 161              		.align	1
 162              		.p2align 2,,3
 163              		.global	xEventGroupCreate
 164              		.syntax unified
 165              		.thumb
ARM GAS  /tmp/cc0dnhIO.s 			page 10


 166              		.thumb_func
 168              	xEventGroupCreate:
 169              	.LFB6:
 139:Middlewares/Third_Party/FreeRTOS/Source/event_groups.c **** 
 140:Middlewares/Third_Party/FreeRTOS/Source/event_groups.c **** #endif /* configSUPPORT_STATIC_ALLOCATION */
 141:Middlewares/Third_Party/FreeRTOS/Source/event_groups.c **** /*-----------------------------------------------------------*/
 142:Middlewares/Third_Party/FreeRTOS/Source/event_groups.c **** 
 143:Middlewares/Third_Party/FreeRTOS/Source/event_groups.c **** #if( configSUPPORT_DYNAMIC_ALLOCATION == 1 )
 144:Middlewares/Third_Party/FreeRTOS/Source/event_groups.c **** 
 145:Middlewares/Third_Party/FreeRTOS/Source/event_groups.c **** 	EventGroupHandle_t xEventGroupCreate( void )
 146:Middlewares/Third_Party/FreeRTOS/Source/event_groups.c **** 	{
 170              		.loc 1 146 2 is_stmt 1 view -0
 171              		.cfi_startproc
 172              		@ args = 0, pretend = 0, frame = 0
 173              		@ frame_needed = 0, uses_anonymous_args = 0
 147:Middlewares/Third_Party/FreeRTOS/Source/event_groups.c **** 	EventGroup_t *pxEventBits;
 174              		.loc 1 147 2 view .LVU47
 148:Middlewares/Third_Party/FreeRTOS/Source/event_groups.c **** 
 149:Middlewares/Third_Party/FreeRTOS/Source/event_groups.c **** 		/* Allocate the event group.  Justification for MISRA deviation as
 150:Middlewares/Third_Party/FreeRTOS/Source/event_groups.c **** 		follows:  pvPortMalloc() always ensures returned memory blocks are
 151:Middlewares/Third_Party/FreeRTOS/Source/event_groups.c **** 		aligned per the requirements of the MCU stack.  In this case
 152:Middlewares/Third_Party/FreeRTOS/Source/event_groups.c **** 		pvPortMalloc() must return a pointer that is guaranteed to meet the
 153:Middlewares/Third_Party/FreeRTOS/Source/event_groups.c **** 		alignment requirements of the EventGroup_t structure - which (if you
 154:Middlewares/Third_Party/FreeRTOS/Source/event_groups.c **** 		follow it through) is the alignment requirements of the TickType_t type
 155:Middlewares/Third_Party/FreeRTOS/Source/event_groups.c **** 		(EventBits_t being of TickType_t itself).  Therefore, whenever the
 156:Middlewares/Third_Party/FreeRTOS/Source/event_groups.c **** 		stack alignment requirements are greater than or equal to the
 157:Middlewares/Third_Party/FreeRTOS/Source/event_groups.c **** 		TickType_t alignment requirements the cast is safe.  In other cases,
 158:Middlewares/Third_Party/FreeRTOS/Source/event_groups.c **** 		where the natural word size of the architecture is less than
 159:Middlewares/Third_Party/FreeRTOS/Source/event_groups.c **** 		sizeof( TickType_t ), the TickType_t variables will be accessed in two
 160:Middlewares/Third_Party/FreeRTOS/Source/event_groups.c **** 		or more reads operations, and the alignment requirements is only that
 161:Middlewares/Third_Party/FreeRTOS/Source/event_groups.c **** 		of each individual read. */
 162:Middlewares/Third_Party/FreeRTOS/Source/event_groups.c **** 		pxEventBits = ( EventGroup_t * ) pvPortMalloc( sizeof( EventGroup_t ) ); /*lint !e9087 !e9079 see
 175              		.loc 1 162 3 view .LVU48
 146:Middlewares/Third_Party/FreeRTOS/Source/event_groups.c **** 	EventGroup_t *pxEventBits;
 176              		.loc 1 146 2 is_stmt 0 view .LVU49
 177 0000 38B5     		push	{r3, r4, r5, lr}
 178              		.cfi_def_cfa_offset 16
 179              		.cfi_offset 3, -16
 180              		.cfi_offset 4, -12
 181              		.cfi_offset 5, -8
 182              		.cfi_offset 14, -4
 183              		.loc 1 162 36 view .LVU50
 184 0002 1C20     		movs	r0, #28
 185 0004 FFF7FEFF 		bl	pvPortMalloc
 186              	.LVL6:
 163:Middlewares/Third_Party/FreeRTOS/Source/event_groups.c **** 
 164:Middlewares/Third_Party/FreeRTOS/Source/event_groups.c **** 		if( pxEventBits != NULL )
 187              		.loc 1 164 3 is_stmt 1 view .LVU51
 188              		.loc 1 164 5 is_stmt 0 view .LVU52
 189 0008 0446     		mov	r4, r0
 190 000a 28B1     		cbz	r0, .L10
 165:Middlewares/Third_Party/FreeRTOS/Source/event_groups.c **** 		{
 166:Middlewares/Third_Party/FreeRTOS/Source/event_groups.c **** 			pxEventBits->uxEventBits = 0;
 191              		.loc 1 166 4 is_stmt 1 view .LVU53
 192              		.loc 1 166 29 is_stmt 0 view .LVU54
 193 000c 0025     		movs	r5, #0
 194 000e 40F8045B 		str	r5, [r0], #4
ARM GAS  /tmp/cc0dnhIO.s 			page 11


 195              	.LVL7:
 167:Middlewares/Third_Party/FreeRTOS/Source/event_groups.c **** 			vListInitialise( &( pxEventBits->xTasksWaitingForBits ) );
 196              		.loc 1 167 4 is_stmt 1 view .LVU55
 197 0012 FFF7FEFF 		bl	vListInitialise
 198              	.LVL8:
 168:Middlewares/Third_Party/FreeRTOS/Source/event_groups.c **** 
 169:Middlewares/Third_Party/FreeRTOS/Source/event_groups.c **** 			#if( configSUPPORT_STATIC_ALLOCATION == 1 )
 170:Middlewares/Third_Party/FreeRTOS/Source/event_groups.c **** 			{
 171:Middlewares/Third_Party/FreeRTOS/Source/event_groups.c **** 				/* Both static and dynamic allocation can be used, so note this
 172:Middlewares/Third_Party/FreeRTOS/Source/event_groups.c **** 				event group was allocated statically in case the event group is
 173:Middlewares/Third_Party/FreeRTOS/Source/event_groups.c **** 				later deleted. */
 174:Middlewares/Third_Party/FreeRTOS/Source/event_groups.c **** 				pxEventBits->ucStaticallyAllocated = pdFALSE;
 199              		.loc 1 174 5 view .LVU56
 200              		.loc 1 174 40 is_stmt 0 view .LVU57
 201 0016 2576     		strb	r5, [r4, #24]
 175:Middlewares/Third_Party/FreeRTOS/Source/event_groups.c **** 			}
 176:Middlewares/Third_Party/FreeRTOS/Source/event_groups.c **** 			#endif /* configSUPPORT_STATIC_ALLOCATION */
 177:Middlewares/Third_Party/FreeRTOS/Source/event_groups.c **** 
 178:Middlewares/Third_Party/FreeRTOS/Source/event_groups.c **** 			traceEVENT_GROUP_CREATE( pxEventBits );
 202              		.loc 1 178 42 is_stmt 1 view .LVU58
 179:Middlewares/Third_Party/FreeRTOS/Source/event_groups.c **** 		}
 180:Middlewares/Third_Party/FreeRTOS/Source/event_groups.c **** 		else
 181:Middlewares/Third_Party/FreeRTOS/Source/event_groups.c **** 		{
 182:Middlewares/Third_Party/FreeRTOS/Source/event_groups.c **** 			traceEVENT_GROUP_CREATE_FAILED(); /*lint !e9063 Else branch only exists to allow tracing and doe
 203              		.loc 1 182 36 view .LVU59
 183:Middlewares/Third_Party/FreeRTOS/Source/event_groups.c **** 		}
 184:Middlewares/Third_Party/FreeRTOS/Source/event_groups.c **** 
 185:Middlewares/Third_Party/FreeRTOS/Source/event_groups.c **** 		return pxEventBits;
 204              		.loc 1 185 3 view .LVU60
 205              	.L10:
 186:Middlewares/Third_Party/FreeRTOS/Source/event_groups.c **** 	}
 206              		.loc 1 186 2 is_stmt 0 view .LVU61
 207 0018 2046     		mov	r0, r4
 208 001a 38BD     		pop	{r3, r4, r5, pc}
 209              		.loc 1 186 2 view .LVU62
 210              		.cfi_endproc
 211              	.LFE6:
 213              		.section	.text.xEventGroupWaitBits,"ax",%progbits
 214              		.align	1
 215              		.p2align 2,,3
 216              		.global	xEventGroupWaitBits
 217              		.syntax unified
 218              		.thumb
 219              		.thumb_func
 221              	xEventGroupWaitBits:
 222              	.LVL9:
 223              	.LFB8:
 187:Middlewares/Third_Party/FreeRTOS/Source/event_groups.c **** 
 188:Middlewares/Third_Party/FreeRTOS/Source/event_groups.c **** #endif /* configSUPPORT_DYNAMIC_ALLOCATION */
 189:Middlewares/Third_Party/FreeRTOS/Source/event_groups.c **** /*-----------------------------------------------------------*/
 190:Middlewares/Third_Party/FreeRTOS/Source/event_groups.c **** 
 191:Middlewares/Third_Party/FreeRTOS/Source/event_groups.c **** EventBits_t xEventGroupSync( EventGroupHandle_t xEventGroup, const EventBits_t uxBitsToSet, const E
 192:Middlewares/Third_Party/FreeRTOS/Source/event_groups.c **** {
 193:Middlewares/Third_Party/FreeRTOS/Source/event_groups.c **** EventBits_t uxOriginalBitValue, uxReturn;
 194:Middlewares/Third_Party/FreeRTOS/Source/event_groups.c **** EventGroup_t *pxEventBits = xEventGroup;
 195:Middlewares/Third_Party/FreeRTOS/Source/event_groups.c **** BaseType_t xAlreadyYielded;
 196:Middlewares/Third_Party/FreeRTOS/Source/event_groups.c **** BaseType_t xTimeoutOccurred = pdFALSE;
ARM GAS  /tmp/cc0dnhIO.s 			page 12


 197:Middlewares/Third_Party/FreeRTOS/Source/event_groups.c **** 
 198:Middlewares/Third_Party/FreeRTOS/Source/event_groups.c **** 	configASSERT( ( uxBitsToWaitFor & eventEVENT_BITS_CONTROL_BYTES ) == 0 );
 199:Middlewares/Third_Party/FreeRTOS/Source/event_groups.c **** 	configASSERT( uxBitsToWaitFor != 0 );
 200:Middlewares/Third_Party/FreeRTOS/Source/event_groups.c **** 	#if ( ( INCLUDE_xTaskGetSchedulerState == 1 ) || ( configUSE_TIMERS == 1 ) )
 201:Middlewares/Third_Party/FreeRTOS/Source/event_groups.c **** 	{
 202:Middlewares/Third_Party/FreeRTOS/Source/event_groups.c **** 		configASSERT( !( ( xTaskGetSchedulerState() == taskSCHEDULER_SUSPENDED ) && ( xTicksToWait != 0 )
 203:Middlewares/Third_Party/FreeRTOS/Source/event_groups.c **** 	}
 204:Middlewares/Third_Party/FreeRTOS/Source/event_groups.c **** 	#endif
 205:Middlewares/Third_Party/FreeRTOS/Source/event_groups.c **** 
 206:Middlewares/Third_Party/FreeRTOS/Source/event_groups.c **** 	vTaskSuspendAll();
 207:Middlewares/Third_Party/FreeRTOS/Source/event_groups.c **** 	{
 208:Middlewares/Third_Party/FreeRTOS/Source/event_groups.c **** 		uxOriginalBitValue = pxEventBits->uxEventBits;
 209:Middlewares/Third_Party/FreeRTOS/Source/event_groups.c **** 
 210:Middlewares/Third_Party/FreeRTOS/Source/event_groups.c **** 		( void ) xEventGroupSetBits( xEventGroup, uxBitsToSet );
 211:Middlewares/Third_Party/FreeRTOS/Source/event_groups.c **** 
 212:Middlewares/Third_Party/FreeRTOS/Source/event_groups.c **** 		if( ( ( uxOriginalBitValue | uxBitsToSet ) & uxBitsToWaitFor ) == uxBitsToWaitFor )
 213:Middlewares/Third_Party/FreeRTOS/Source/event_groups.c **** 		{
 214:Middlewares/Third_Party/FreeRTOS/Source/event_groups.c **** 			/* All the rendezvous bits are now set - no need to block. */
 215:Middlewares/Third_Party/FreeRTOS/Source/event_groups.c **** 			uxReturn = ( uxOriginalBitValue | uxBitsToSet );
 216:Middlewares/Third_Party/FreeRTOS/Source/event_groups.c **** 
 217:Middlewares/Third_Party/FreeRTOS/Source/event_groups.c **** 			/* Rendezvous always clear the bits.  They will have been cleared
 218:Middlewares/Third_Party/FreeRTOS/Source/event_groups.c **** 			already unless this is the only task in the rendezvous. */
 219:Middlewares/Third_Party/FreeRTOS/Source/event_groups.c **** 			pxEventBits->uxEventBits &= ~uxBitsToWaitFor;
 220:Middlewares/Third_Party/FreeRTOS/Source/event_groups.c **** 
 221:Middlewares/Third_Party/FreeRTOS/Source/event_groups.c **** 			xTicksToWait = 0;
 222:Middlewares/Third_Party/FreeRTOS/Source/event_groups.c **** 		}
 223:Middlewares/Third_Party/FreeRTOS/Source/event_groups.c **** 		else
 224:Middlewares/Third_Party/FreeRTOS/Source/event_groups.c **** 		{
 225:Middlewares/Third_Party/FreeRTOS/Source/event_groups.c **** 			if( xTicksToWait != ( TickType_t ) 0 )
 226:Middlewares/Third_Party/FreeRTOS/Source/event_groups.c **** 			{
 227:Middlewares/Third_Party/FreeRTOS/Source/event_groups.c **** 				traceEVENT_GROUP_SYNC_BLOCK( xEventGroup, uxBitsToSet, uxBitsToWaitFor );
 228:Middlewares/Third_Party/FreeRTOS/Source/event_groups.c **** 
 229:Middlewares/Third_Party/FreeRTOS/Source/event_groups.c **** 				/* Store the bits that the calling task is waiting for in the
 230:Middlewares/Third_Party/FreeRTOS/Source/event_groups.c **** 				task's event list item so the kernel knows when a match is
 231:Middlewares/Third_Party/FreeRTOS/Source/event_groups.c **** 				found.  Then enter the blocked state. */
 232:Middlewares/Third_Party/FreeRTOS/Source/event_groups.c **** 				vTaskPlaceOnUnorderedEventList( &( pxEventBits->xTasksWaitingForBits ), ( uxBitsToWaitFor | eve
 233:Middlewares/Third_Party/FreeRTOS/Source/event_groups.c **** 
 234:Middlewares/Third_Party/FreeRTOS/Source/event_groups.c **** 				/* This assignment is obsolete as uxReturn will get set after
 235:Middlewares/Third_Party/FreeRTOS/Source/event_groups.c **** 				the task unblocks, but some compilers mistakenly generate a
 236:Middlewares/Third_Party/FreeRTOS/Source/event_groups.c **** 				warning about uxReturn being returned without being set if the
 237:Middlewares/Third_Party/FreeRTOS/Source/event_groups.c **** 				assignment is omitted. */
 238:Middlewares/Third_Party/FreeRTOS/Source/event_groups.c **** 				uxReturn = 0;
 239:Middlewares/Third_Party/FreeRTOS/Source/event_groups.c **** 			}
 240:Middlewares/Third_Party/FreeRTOS/Source/event_groups.c **** 			else
 241:Middlewares/Third_Party/FreeRTOS/Source/event_groups.c **** 			{
 242:Middlewares/Third_Party/FreeRTOS/Source/event_groups.c **** 				/* The rendezvous bits were not set, but no block time was
 243:Middlewares/Third_Party/FreeRTOS/Source/event_groups.c **** 				specified - just return the current event bit value. */
 244:Middlewares/Third_Party/FreeRTOS/Source/event_groups.c **** 				uxReturn = pxEventBits->uxEventBits;
 245:Middlewares/Third_Party/FreeRTOS/Source/event_groups.c **** 				xTimeoutOccurred = pdTRUE;
 246:Middlewares/Third_Party/FreeRTOS/Source/event_groups.c **** 			}
 247:Middlewares/Third_Party/FreeRTOS/Source/event_groups.c **** 		}
 248:Middlewares/Third_Party/FreeRTOS/Source/event_groups.c **** 	}
 249:Middlewares/Third_Party/FreeRTOS/Source/event_groups.c **** 	xAlreadyYielded = xTaskResumeAll();
 250:Middlewares/Third_Party/FreeRTOS/Source/event_groups.c **** 
 251:Middlewares/Third_Party/FreeRTOS/Source/event_groups.c **** 	if( xTicksToWait != ( TickType_t ) 0 )
 252:Middlewares/Third_Party/FreeRTOS/Source/event_groups.c **** 	{
 253:Middlewares/Third_Party/FreeRTOS/Source/event_groups.c **** 		if( xAlreadyYielded == pdFALSE )
ARM GAS  /tmp/cc0dnhIO.s 			page 13


 254:Middlewares/Third_Party/FreeRTOS/Source/event_groups.c **** 		{
 255:Middlewares/Third_Party/FreeRTOS/Source/event_groups.c **** 			portYIELD_WITHIN_API();
 256:Middlewares/Third_Party/FreeRTOS/Source/event_groups.c **** 		}
 257:Middlewares/Third_Party/FreeRTOS/Source/event_groups.c **** 		else
 258:Middlewares/Third_Party/FreeRTOS/Source/event_groups.c **** 		{
 259:Middlewares/Third_Party/FreeRTOS/Source/event_groups.c **** 			mtCOVERAGE_TEST_MARKER();
 260:Middlewares/Third_Party/FreeRTOS/Source/event_groups.c **** 		}
 261:Middlewares/Third_Party/FreeRTOS/Source/event_groups.c **** 
 262:Middlewares/Third_Party/FreeRTOS/Source/event_groups.c **** 		/* The task blocked to wait for its required bits to be set - at this
 263:Middlewares/Third_Party/FreeRTOS/Source/event_groups.c **** 		point either the required bits were set or the block time expired.  If
 264:Middlewares/Third_Party/FreeRTOS/Source/event_groups.c **** 		the required bits were set they will have been stored in the task's
 265:Middlewares/Third_Party/FreeRTOS/Source/event_groups.c **** 		event list item, and they should now be retrieved then cleared. */
 266:Middlewares/Third_Party/FreeRTOS/Source/event_groups.c **** 		uxReturn = uxTaskResetEventItemValue();
 267:Middlewares/Third_Party/FreeRTOS/Source/event_groups.c **** 
 268:Middlewares/Third_Party/FreeRTOS/Source/event_groups.c **** 		if( ( uxReturn & eventUNBLOCKED_DUE_TO_BIT_SET ) == ( EventBits_t ) 0 )
 269:Middlewares/Third_Party/FreeRTOS/Source/event_groups.c **** 		{
 270:Middlewares/Third_Party/FreeRTOS/Source/event_groups.c **** 			/* The task timed out, just return the current event bit value. */
 271:Middlewares/Third_Party/FreeRTOS/Source/event_groups.c **** 			taskENTER_CRITICAL();
 272:Middlewares/Third_Party/FreeRTOS/Source/event_groups.c **** 			{
 273:Middlewares/Third_Party/FreeRTOS/Source/event_groups.c **** 				uxReturn = pxEventBits->uxEventBits;
 274:Middlewares/Third_Party/FreeRTOS/Source/event_groups.c **** 
 275:Middlewares/Third_Party/FreeRTOS/Source/event_groups.c **** 				/* Although the task got here because it timed out before the
 276:Middlewares/Third_Party/FreeRTOS/Source/event_groups.c **** 				bits it was waiting for were set, it is possible that since it
 277:Middlewares/Third_Party/FreeRTOS/Source/event_groups.c **** 				unblocked another task has set the bits.  If this is the case
 278:Middlewares/Third_Party/FreeRTOS/Source/event_groups.c **** 				then it needs to clear the bits before exiting. */
 279:Middlewares/Third_Party/FreeRTOS/Source/event_groups.c **** 				if( ( uxReturn & uxBitsToWaitFor ) == uxBitsToWaitFor )
 280:Middlewares/Third_Party/FreeRTOS/Source/event_groups.c **** 				{
 281:Middlewares/Third_Party/FreeRTOS/Source/event_groups.c **** 					pxEventBits->uxEventBits &= ~uxBitsToWaitFor;
 282:Middlewares/Third_Party/FreeRTOS/Source/event_groups.c **** 				}
 283:Middlewares/Third_Party/FreeRTOS/Source/event_groups.c **** 				else
 284:Middlewares/Third_Party/FreeRTOS/Source/event_groups.c **** 				{
 285:Middlewares/Third_Party/FreeRTOS/Source/event_groups.c **** 					mtCOVERAGE_TEST_MARKER();
 286:Middlewares/Third_Party/FreeRTOS/Source/event_groups.c **** 				}
 287:Middlewares/Third_Party/FreeRTOS/Source/event_groups.c **** 			}
 288:Middlewares/Third_Party/FreeRTOS/Source/event_groups.c **** 			taskEXIT_CRITICAL();
 289:Middlewares/Third_Party/FreeRTOS/Source/event_groups.c **** 
 290:Middlewares/Third_Party/FreeRTOS/Source/event_groups.c **** 			xTimeoutOccurred = pdTRUE;
 291:Middlewares/Third_Party/FreeRTOS/Source/event_groups.c **** 		}
 292:Middlewares/Third_Party/FreeRTOS/Source/event_groups.c **** 		else
 293:Middlewares/Third_Party/FreeRTOS/Source/event_groups.c **** 		{
 294:Middlewares/Third_Party/FreeRTOS/Source/event_groups.c **** 			/* The task unblocked because the bits were set. */
 295:Middlewares/Third_Party/FreeRTOS/Source/event_groups.c **** 		}
 296:Middlewares/Third_Party/FreeRTOS/Source/event_groups.c **** 
 297:Middlewares/Third_Party/FreeRTOS/Source/event_groups.c **** 		/* Control bits might be set as the task had blocked should not be
 298:Middlewares/Third_Party/FreeRTOS/Source/event_groups.c **** 		returned. */
 299:Middlewares/Third_Party/FreeRTOS/Source/event_groups.c **** 		uxReturn &= ~eventEVENT_BITS_CONTROL_BYTES;
 300:Middlewares/Third_Party/FreeRTOS/Source/event_groups.c **** 	}
 301:Middlewares/Third_Party/FreeRTOS/Source/event_groups.c **** 
 302:Middlewares/Third_Party/FreeRTOS/Source/event_groups.c **** 	traceEVENT_GROUP_SYNC_END( xEventGroup, uxBitsToSet, uxBitsToWaitFor, xTimeoutOccurred );
 303:Middlewares/Third_Party/FreeRTOS/Source/event_groups.c **** 
 304:Middlewares/Third_Party/FreeRTOS/Source/event_groups.c **** 	/* Prevent compiler warnings when trace macros are not used. */
 305:Middlewares/Third_Party/FreeRTOS/Source/event_groups.c **** 	( void ) xTimeoutOccurred;
 306:Middlewares/Third_Party/FreeRTOS/Source/event_groups.c **** 
 307:Middlewares/Third_Party/FreeRTOS/Source/event_groups.c **** 	return uxReturn;
 308:Middlewares/Third_Party/FreeRTOS/Source/event_groups.c **** }
 309:Middlewares/Third_Party/FreeRTOS/Source/event_groups.c **** /*-----------------------------------------------------------*/
 310:Middlewares/Third_Party/FreeRTOS/Source/event_groups.c **** 
ARM GAS  /tmp/cc0dnhIO.s 			page 14


 311:Middlewares/Third_Party/FreeRTOS/Source/event_groups.c **** EventBits_t xEventGroupWaitBits( EventGroupHandle_t xEventGroup, const EventBits_t uxBitsToWaitFor,
 312:Middlewares/Third_Party/FreeRTOS/Source/event_groups.c **** {
 224              		.loc 1 312 1 is_stmt 1 view -0
 225              		.cfi_startproc
 226              		@ args = 4, pretend = 0, frame = 0
 227              		@ frame_needed = 0, uses_anonymous_args = 0
 228              		.loc 1 312 1 is_stmt 0 view .LVU64
 229 0000 2DE9F843 		push	{r3, r4, r5, r6, r7, r8, r9, lr}
 230              		.cfi_def_cfa_offset 32
 231              		.cfi_offset 3, -32
 232              		.cfi_offset 4, -28
 233              		.cfi_offset 5, -24
 234              		.cfi_offset 6, -20
 235              		.cfi_offset 7, -16
 236              		.cfi_offset 8, -12
 237              		.cfi_offset 9, -8
 238              		.cfi_offset 14, -4
 313:Middlewares/Third_Party/FreeRTOS/Source/event_groups.c **** EventGroup_t *pxEventBits = xEventGroup;
 239              		.loc 1 313 1 is_stmt 1 view .LVU65
 240              	.LVL10:
 314:Middlewares/Third_Party/FreeRTOS/Source/event_groups.c **** EventBits_t uxReturn, uxControlBits = 0;
 241              		.loc 1 314 1 view .LVU66
 315:Middlewares/Third_Party/FreeRTOS/Source/event_groups.c **** BaseType_t xWaitConditionMet, xAlreadyYielded;
 242              		.loc 1 315 1 view .LVU67
 316:Middlewares/Third_Party/FreeRTOS/Source/event_groups.c **** BaseType_t xTimeoutOccurred = pdFALSE;
 243              		.loc 1 316 1 view .LVU68
 317:Middlewares/Third_Party/FreeRTOS/Source/event_groups.c **** 
 318:Middlewares/Third_Party/FreeRTOS/Source/event_groups.c **** 	/* Check the user is not attempting to wait on the bits used by the kernel
 319:Middlewares/Third_Party/FreeRTOS/Source/event_groups.c **** 	itself, and that at least one bit is being requested. */
 320:Middlewares/Third_Party/FreeRTOS/Source/event_groups.c **** 	configASSERT( xEventGroup );
 244              		.loc 1 320 2 view .LVU69
 245 0004 B0B1     		cbz	r0, .L50
 246              		.loc 1 320 29 discriminator 2 view .LVU70
 321:Middlewares/Third_Party/FreeRTOS/Source/event_groups.c **** 	configASSERT( ( uxBitsToWaitFor & eventEVENT_BITS_CONTROL_BYTES ) == 0 );
 247              		.loc 1 321 2 discriminator 2 view .LVU71
 248 0006 11F07F48 		ands	r8, r1, #-16777216
 249 000a 0C46     		mov	r4, r1
 250 000c 09D1     		bne	.L51
 251              		.loc 1 321 74 discriminator 2 view .LVU72
 322:Middlewares/Third_Party/FreeRTOS/Source/event_groups.c **** 	configASSERT( uxBitsToWaitFor != 0 );
 252              		.loc 1 322 2 discriminator 2 view .LVU73
 253 000e D1B9     		cbnz	r1, .L21
 254              		.loc 1 322 2 view .LVU74
 255              	.LBB64:
 256              	.LBI64:
 191:Middlewares/Third_Party/FreeRTOS/Source/portable/GCC/ARM_CM4F/portmacro.h **** {
 257              		.loc 2 191 30 view .LVU75
 258              	.LBB65:
 193:Middlewares/Third_Party/FreeRTOS/Source/portable/GCC/ARM_CM4F/portmacro.h **** 
 259              		.loc 2 193 1 view .LVU76
 260              		.loc 2 195 2 view .LVU77
 261              		.syntax unified
 262              	@ 195 "Middlewares/Third_Party/FreeRTOS/Source/portable/GCC/ARM_CM4F/portmacro.h" 1
 263 0010 4FF05003 			mov r3, #80												
 264 0014 83F31188 		msr basepri, r3											
 265 0018 BFF36F8F 		isb														
 266 001c BFF34F8F 		dsb														
ARM GAS  /tmp/cc0dnhIO.s 			page 15


 267              	
 268              	@ 0 "" 2
 269              	.LVL11:
 270              		.thumb
 271              		.syntax unified
 272              	.L22:
 273              		.loc 2 195 2 is_stmt 0 view .LVU78
 274              	.LBE65:
 275              	.LBE64:
 276              		.loc 1 322 2 is_stmt 1 discriminator 3 view .LVU79
 277              		.loc 1 322 2 discriminator 3 view .LVU80
 278              		.loc 1 322 2 discriminator 3 view .LVU81
 279              		.loc 1 322 2 discriminator 3 view .LVU82
 280              		.loc 1 322 2 discriminator 3 view .LVU83
 281              		.loc 1 322 2 discriminator 3 view .LVU84
 282 0020 FEE7     		b	.L22
 283              	.LVL12:
 284              	.L51:
 321:Middlewares/Third_Party/FreeRTOS/Source/event_groups.c **** 	configASSERT( uxBitsToWaitFor != 0 );
 285              		.loc 1 321 2 view .LVU85
 286              	.LBB66:
 287              	.LBI66:
 191:Middlewares/Third_Party/FreeRTOS/Source/portable/GCC/ARM_CM4F/portmacro.h **** {
 288              		.loc 2 191 30 view .LVU86
 289              	.LBB67:
 193:Middlewares/Third_Party/FreeRTOS/Source/portable/GCC/ARM_CM4F/portmacro.h **** 
 290              		.loc 2 193 1 view .LVU87
 291              		.loc 2 195 2 view .LVU88
 292              		.syntax unified
 293              	@ 195 "Middlewares/Third_Party/FreeRTOS/Source/portable/GCC/ARM_CM4F/portmacro.h" 1
 294 0022 4FF05003 			mov r3, #80												
 295 0026 83F31188 		msr basepri, r3											
 296 002a BFF36F8F 		isb														
 297 002e BFF34F8F 		dsb														
 298              	
 299              	@ 0 "" 2
 300              	.LVL13:
 301              		.thumb
 302              		.syntax unified
 303              	.L20:
 304              		.loc 2 195 2 is_stmt 0 view .LVU89
 305              	.LBE67:
 306              	.LBE66:
 321:Middlewares/Third_Party/FreeRTOS/Source/event_groups.c **** 	configASSERT( uxBitsToWaitFor != 0 );
 307              		.loc 1 321 2 is_stmt 1 discriminator 2 view .LVU90
 321:Middlewares/Third_Party/FreeRTOS/Source/event_groups.c **** 	configASSERT( uxBitsToWaitFor != 0 );
 308              		.loc 1 321 2 discriminator 2 view .LVU91
 321:Middlewares/Third_Party/FreeRTOS/Source/event_groups.c **** 	configASSERT( uxBitsToWaitFor != 0 );
 309              		.loc 1 321 2 discriminator 2 view .LVU92
 321:Middlewares/Third_Party/FreeRTOS/Source/event_groups.c **** 	configASSERT( uxBitsToWaitFor != 0 );
 310              		.loc 1 321 2 discriminator 2 view .LVU93
 321:Middlewares/Third_Party/FreeRTOS/Source/event_groups.c **** 	configASSERT( uxBitsToWaitFor != 0 );
 311              		.loc 1 321 2 discriminator 2 view .LVU94
 321:Middlewares/Third_Party/FreeRTOS/Source/event_groups.c **** 	configASSERT( uxBitsToWaitFor != 0 );
 312              		.loc 1 321 2 discriminator 2 view .LVU95
 313 0032 FEE7     		b	.L20
 314              	.LVL14:
ARM GAS  /tmp/cc0dnhIO.s 			page 16


 315              	.L50:
 320:Middlewares/Third_Party/FreeRTOS/Source/event_groups.c **** 	configASSERT( ( uxBitsToWaitFor & eventEVENT_BITS_CONTROL_BYTES ) == 0 );
 316              		.loc 1 320 2 view .LVU96
 317              	.LBB68:
 318              	.LBI68:
 191:Middlewares/Third_Party/FreeRTOS/Source/portable/GCC/ARM_CM4F/portmacro.h **** {
 319              		.loc 2 191 30 view .LVU97
 320              	.LBB69:
 193:Middlewares/Third_Party/FreeRTOS/Source/portable/GCC/ARM_CM4F/portmacro.h **** 
 321              		.loc 2 193 1 view .LVU98
 322              		.loc 2 195 2 view .LVU99
 323              		.syntax unified
 324              	@ 195 "Middlewares/Third_Party/FreeRTOS/Source/portable/GCC/ARM_CM4F/portmacro.h" 1
 325 0034 4FF05003 			mov r3, #80												
 326 0038 83F31188 		msr basepri, r3											
 327 003c BFF36F8F 		isb														
 328 0040 BFF34F8F 		dsb														
 329              	
 330              	@ 0 "" 2
 331              	.LVL15:
 332              		.thumb
 333              		.syntax unified
 334              	.L18:
 335              		.loc 2 195 2 is_stmt 0 view .LVU100
 336              	.LBE69:
 337              	.LBE68:
 320:Middlewares/Third_Party/FreeRTOS/Source/event_groups.c **** 	configASSERT( ( uxBitsToWaitFor & eventEVENT_BITS_CONTROL_BYTES ) == 0 );
 338              		.loc 1 320 2 is_stmt 1 discriminator 1 view .LVU101
 320:Middlewares/Third_Party/FreeRTOS/Source/event_groups.c **** 	configASSERT( ( uxBitsToWaitFor & eventEVENT_BITS_CONTROL_BYTES ) == 0 );
 339              		.loc 1 320 2 discriminator 1 view .LVU102
 320:Middlewares/Third_Party/FreeRTOS/Source/event_groups.c **** 	configASSERT( ( uxBitsToWaitFor & eventEVENT_BITS_CONTROL_BYTES ) == 0 );
 340              		.loc 1 320 2 discriminator 1 view .LVU103
 320:Middlewares/Third_Party/FreeRTOS/Source/event_groups.c **** 	configASSERT( ( uxBitsToWaitFor & eventEVENT_BITS_CONTROL_BYTES ) == 0 );
 341              		.loc 1 320 2 discriminator 1 view .LVU104
 320:Middlewares/Third_Party/FreeRTOS/Source/event_groups.c **** 	configASSERT( ( uxBitsToWaitFor & eventEVENT_BITS_CONTROL_BYTES ) == 0 );
 342              		.loc 1 320 2 discriminator 1 view .LVU105
 320:Middlewares/Third_Party/FreeRTOS/Source/event_groups.c **** 	configASSERT( ( uxBitsToWaitFor & eventEVENT_BITS_CONTROL_BYTES ) == 0 );
 343              		.loc 1 320 2 discriminator 1 view .LVU106
 344 0044 FEE7     		b	.L18
 345              	.LVL16:
 346              	.L21:
 347              		.loc 1 322 38 discriminator 2 view .LVU107
 323:Middlewares/Third_Party/FreeRTOS/Source/event_groups.c **** 	#if ( ( INCLUDE_xTaskGetSchedulerState == 1 ) || ( configUSE_TIMERS == 1 ) )
 324:Middlewares/Third_Party/FreeRTOS/Source/event_groups.c **** 	{
 325:Middlewares/Third_Party/FreeRTOS/Source/event_groups.c **** 		configASSERT( !( ( xTaskGetSchedulerState() == taskSCHEDULER_SUSPENDED ) && ( xTicksToWait != 0 )
 348              		.loc 1 325 3 discriminator 2 view .LVU108
 349 0046 1746     		mov	r7, r2
 350 0048 1E46     		mov	r6, r3
 351 004a 0546     		mov	r5, r0
 352 004c FFF7FEFF 		bl	xTaskGetSchedulerState
 353              	.LVL17:
 354              		.loc 1 325 3 is_stmt 0 discriminator 2 view .LVU109
 355 0050 08B9     		cbnz	r0, .L23
 356              		.loc 1 325 3 discriminator 2 view .LVU110
 357 0052 089B     		ldr	r3, [sp, #32]
 358 0054 C3BB     		cbnz	r3, .L52
 359              	.L23:
ARM GAS  /tmp/cc0dnhIO.s 			page 17


 360              		.loc 1 325 104 is_stmt 1 discriminator 8 view .LVU111
 326:Middlewares/Third_Party/FreeRTOS/Source/event_groups.c **** 	}
 327:Middlewares/Third_Party/FreeRTOS/Source/event_groups.c **** 	#endif
 328:Middlewares/Third_Party/FreeRTOS/Source/event_groups.c **** 
 329:Middlewares/Third_Party/FreeRTOS/Source/event_groups.c **** 	vTaskSuspendAll();
 361              		.loc 1 329 2 discriminator 8 view .LVU112
 362 0056 FFF7FEFF 		bl	vTaskSuspendAll
 363              	.LVL18:
 364              	.LBB70:
 330:Middlewares/Third_Party/FreeRTOS/Source/event_groups.c **** 	{
 331:Middlewares/Third_Party/FreeRTOS/Source/event_groups.c **** 		const EventBits_t uxCurrentEventBits = pxEventBits->uxEventBits;
 365              		.loc 1 331 3 discriminator 8 view .LVU113
 366              		.loc 1 331 21 is_stmt 0 discriminator 8 view .LVU114
 367 005a D5F80090 		ldr	r9, [r5]
 368              	.LVL19:
 332:Middlewares/Third_Party/FreeRTOS/Source/event_groups.c **** 
 333:Middlewares/Third_Party/FreeRTOS/Source/event_groups.c **** 		/* Check to see if the wait condition is already met or not. */
 334:Middlewares/Third_Party/FreeRTOS/Source/event_groups.c **** 		xWaitConditionMet = prvTestWaitCondition( uxCurrentEventBits, uxBitsToWaitFor, xWaitForAllBits );
 369              		.loc 1 334 3 is_stmt 1 discriminator 8 view .LVU115
 370              	.LBB71:
 371              	.LBI71:
 335:Middlewares/Third_Party/FreeRTOS/Source/event_groups.c **** 
 336:Middlewares/Third_Party/FreeRTOS/Source/event_groups.c **** 		if( xWaitConditionMet != pdFALSE )
 337:Middlewares/Third_Party/FreeRTOS/Source/event_groups.c **** 		{
 338:Middlewares/Third_Party/FreeRTOS/Source/event_groups.c **** 			/* The wait condition has already been met so there is no need to
 339:Middlewares/Third_Party/FreeRTOS/Source/event_groups.c **** 			block. */
 340:Middlewares/Third_Party/FreeRTOS/Source/event_groups.c **** 			uxReturn = uxCurrentEventBits;
 341:Middlewares/Third_Party/FreeRTOS/Source/event_groups.c **** 			xTicksToWait = ( TickType_t ) 0;
 342:Middlewares/Third_Party/FreeRTOS/Source/event_groups.c **** 
 343:Middlewares/Third_Party/FreeRTOS/Source/event_groups.c **** 			/* Clear the wait bits if requested to do so. */
 344:Middlewares/Third_Party/FreeRTOS/Source/event_groups.c **** 			if( xClearOnExit != pdFALSE )
 345:Middlewares/Third_Party/FreeRTOS/Source/event_groups.c **** 			{
 346:Middlewares/Third_Party/FreeRTOS/Source/event_groups.c **** 				pxEventBits->uxEventBits &= ~uxBitsToWaitFor;
 347:Middlewares/Third_Party/FreeRTOS/Source/event_groups.c **** 			}
 348:Middlewares/Third_Party/FreeRTOS/Source/event_groups.c **** 			else
 349:Middlewares/Third_Party/FreeRTOS/Source/event_groups.c **** 			{
 350:Middlewares/Third_Party/FreeRTOS/Source/event_groups.c **** 				mtCOVERAGE_TEST_MARKER();
 351:Middlewares/Third_Party/FreeRTOS/Source/event_groups.c **** 			}
 352:Middlewares/Third_Party/FreeRTOS/Source/event_groups.c **** 		}
 353:Middlewares/Third_Party/FreeRTOS/Source/event_groups.c **** 		else if( xTicksToWait == ( TickType_t ) 0 )
 354:Middlewares/Third_Party/FreeRTOS/Source/event_groups.c **** 		{
 355:Middlewares/Third_Party/FreeRTOS/Source/event_groups.c **** 			/* The wait condition has not been met, but no block time was
 356:Middlewares/Third_Party/FreeRTOS/Source/event_groups.c **** 			specified, so just return the current value. */
 357:Middlewares/Third_Party/FreeRTOS/Source/event_groups.c **** 			uxReturn = uxCurrentEventBits;
 358:Middlewares/Third_Party/FreeRTOS/Source/event_groups.c **** 			xTimeoutOccurred = pdTRUE;
 359:Middlewares/Third_Party/FreeRTOS/Source/event_groups.c **** 		}
 360:Middlewares/Third_Party/FreeRTOS/Source/event_groups.c **** 		else
 361:Middlewares/Third_Party/FreeRTOS/Source/event_groups.c **** 		{
 362:Middlewares/Third_Party/FreeRTOS/Source/event_groups.c **** 			/* The task is going to block to wait for its required bits to be
 363:Middlewares/Third_Party/FreeRTOS/Source/event_groups.c **** 			set.  uxControlBits are used to remember the specified behaviour of
 364:Middlewares/Third_Party/FreeRTOS/Source/event_groups.c **** 			this call to xEventGroupWaitBits() - for use when the event bits
 365:Middlewares/Third_Party/FreeRTOS/Source/event_groups.c **** 			unblock the task. */
 366:Middlewares/Third_Party/FreeRTOS/Source/event_groups.c **** 			if( xClearOnExit != pdFALSE )
 367:Middlewares/Third_Party/FreeRTOS/Source/event_groups.c **** 			{
 368:Middlewares/Third_Party/FreeRTOS/Source/event_groups.c **** 				uxControlBits |= eventCLEAR_EVENTS_ON_EXIT_BIT;
 369:Middlewares/Third_Party/FreeRTOS/Source/event_groups.c **** 			}
 370:Middlewares/Third_Party/FreeRTOS/Source/event_groups.c **** 			else
ARM GAS  /tmp/cc0dnhIO.s 			page 18


 371:Middlewares/Third_Party/FreeRTOS/Source/event_groups.c **** 			{
 372:Middlewares/Third_Party/FreeRTOS/Source/event_groups.c **** 				mtCOVERAGE_TEST_MARKER();
 373:Middlewares/Third_Party/FreeRTOS/Source/event_groups.c **** 			}
 374:Middlewares/Third_Party/FreeRTOS/Source/event_groups.c **** 
 375:Middlewares/Third_Party/FreeRTOS/Source/event_groups.c **** 			if( xWaitForAllBits != pdFALSE )
 376:Middlewares/Third_Party/FreeRTOS/Source/event_groups.c **** 			{
 377:Middlewares/Third_Party/FreeRTOS/Source/event_groups.c **** 				uxControlBits |= eventWAIT_FOR_ALL_BITS;
 378:Middlewares/Third_Party/FreeRTOS/Source/event_groups.c **** 			}
 379:Middlewares/Third_Party/FreeRTOS/Source/event_groups.c **** 			else
 380:Middlewares/Third_Party/FreeRTOS/Source/event_groups.c **** 			{
 381:Middlewares/Third_Party/FreeRTOS/Source/event_groups.c **** 				mtCOVERAGE_TEST_MARKER();
 382:Middlewares/Third_Party/FreeRTOS/Source/event_groups.c **** 			}
 383:Middlewares/Third_Party/FreeRTOS/Source/event_groups.c **** 
 384:Middlewares/Third_Party/FreeRTOS/Source/event_groups.c **** 			/* Store the bits that the calling task is waiting for in the
 385:Middlewares/Third_Party/FreeRTOS/Source/event_groups.c **** 			task's event list item so the kernel knows when a match is
 386:Middlewares/Third_Party/FreeRTOS/Source/event_groups.c **** 			found.  Then enter the blocked state. */
 387:Middlewares/Third_Party/FreeRTOS/Source/event_groups.c **** 			vTaskPlaceOnUnorderedEventList( &( pxEventBits->xTasksWaitingForBits ), ( uxBitsToWaitFor | uxCo
 388:Middlewares/Third_Party/FreeRTOS/Source/event_groups.c **** 
 389:Middlewares/Third_Party/FreeRTOS/Source/event_groups.c **** 			/* This is obsolete as it will get set after the task unblocks, but
 390:Middlewares/Third_Party/FreeRTOS/Source/event_groups.c **** 			some compilers mistakenly generate a warning about the variable
 391:Middlewares/Third_Party/FreeRTOS/Source/event_groups.c **** 			being returned without being set if it is not done. */
 392:Middlewares/Third_Party/FreeRTOS/Source/event_groups.c **** 			uxReturn = 0;
 393:Middlewares/Third_Party/FreeRTOS/Source/event_groups.c **** 
 394:Middlewares/Third_Party/FreeRTOS/Source/event_groups.c **** 			traceEVENT_GROUP_WAIT_BITS_BLOCK( xEventGroup, uxBitsToWaitFor );
 395:Middlewares/Third_Party/FreeRTOS/Source/event_groups.c **** 		}
 396:Middlewares/Third_Party/FreeRTOS/Source/event_groups.c **** 	}
 397:Middlewares/Third_Party/FreeRTOS/Source/event_groups.c **** 	xAlreadyYielded = xTaskResumeAll();
 398:Middlewares/Third_Party/FreeRTOS/Source/event_groups.c **** 
 399:Middlewares/Third_Party/FreeRTOS/Source/event_groups.c **** 	if( xTicksToWait != ( TickType_t ) 0 )
 400:Middlewares/Third_Party/FreeRTOS/Source/event_groups.c **** 	{
 401:Middlewares/Third_Party/FreeRTOS/Source/event_groups.c **** 		if( xAlreadyYielded == pdFALSE )
 402:Middlewares/Third_Party/FreeRTOS/Source/event_groups.c **** 		{
 403:Middlewares/Third_Party/FreeRTOS/Source/event_groups.c **** 			portYIELD_WITHIN_API();
 404:Middlewares/Third_Party/FreeRTOS/Source/event_groups.c **** 		}
 405:Middlewares/Third_Party/FreeRTOS/Source/event_groups.c **** 		else
 406:Middlewares/Third_Party/FreeRTOS/Source/event_groups.c **** 		{
 407:Middlewares/Third_Party/FreeRTOS/Source/event_groups.c **** 			mtCOVERAGE_TEST_MARKER();
 408:Middlewares/Third_Party/FreeRTOS/Source/event_groups.c **** 		}
 409:Middlewares/Third_Party/FreeRTOS/Source/event_groups.c **** 
 410:Middlewares/Third_Party/FreeRTOS/Source/event_groups.c **** 		/* The task blocked to wait for its required bits to be set - at this
 411:Middlewares/Third_Party/FreeRTOS/Source/event_groups.c **** 		point either the required bits were set or the block time expired.  If
 412:Middlewares/Third_Party/FreeRTOS/Source/event_groups.c **** 		the required bits were set they will have been stored in the task's
 413:Middlewares/Third_Party/FreeRTOS/Source/event_groups.c **** 		event list item, and they should now be retrieved then cleared. */
 414:Middlewares/Third_Party/FreeRTOS/Source/event_groups.c **** 		uxReturn = uxTaskResetEventItemValue();
 415:Middlewares/Third_Party/FreeRTOS/Source/event_groups.c **** 
 416:Middlewares/Third_Party/FreeRTOS/Source/event_groups.c **** 		if( ( uxReturn & eventUNBLOCKED_DUE_TO_BIT_SET ) == ( EventBits_t ) 0 )
 417:Middlewares/Third_Party/FreeRTOS/Source/event_groups.c **** 		{
 418:Middlewares/Third_Party/FreeRTOS/Source/event_groups.c **** 			taskENTER_CRITICAL();
 419:Middlewares/Third_Party/FreeRTOS/Source/event_groups.c **** 			{
 420:Middlewares/Third_Party/FreeRTOS/Source/event_groups.c **** 				/* The task timed out, just return the current event bit value. */
 421:Middlewares/Third_Party/FreeRTOS/Source/event_groups.c **** 				uxReturn = pxEventBits->uxEventBits;
 422:Middlewares/Third_Party/FreeRTOS/Source/event_groups.c **** 
 423:Middlewares/Third_Party/FreeRTOS/Source/event_groups.c **** 				/* It is possible that the event bits were updated between this
 424:Middlewares/Third_Party/FreeRTOS/Source/event_groups.c **** 				task leaving the Blocked state and running again. */
 425:Middlewares/Third_Party/FreeRTOS/Source/event_groups.c **** 				if( prvTestWaitCondition( uxReturn, uxBitsToWaitFor, xWaitForAllBits ) != pdFALSE )
 426:Middlewares/Third_Party/FreeRTOS/Source/event_groups.c **** 				{
 427:Middlewares/Third_Party/FreeRTOS/Source/event_groups.c **** 					if( xClearOnExit != pdFALSE )
ARM GAS  /tmp/cc0dnhIO.s 			page 19


 428:Middlewares/Third_Party/FreeRTOS/Source/event_groups.c **** 					{
 429:Middlewares/Third_Party/FreeRTOS/Source/event_groups.c **** 						pxEventBits->uxEventBits &= ~uxBitsToWaitFor;
 430:Middlewares/Third_Party/FreeRTOS/Source/event_groups.c **** 					}
 431:Middlewares/Third_Party/FreeRTOS/Source/event_groups.c **** 					else
 432:Middlewares/Third_Party/FreeRTOS/Source/event_groups.c **** 					{
 433:Middlewares/Third_Party/FreeRTOS/Source/event_groups.c **** 						mtCOVERAGE_TEST_MARKER();
 434:Middlewares/Third_Party/FreeRTOS/Source/event_groups.c **** 					}
 435:Middlewares/Third_Party/FreeRTOS/Source/event_groups.c **** 				}
 436:Middlewares/Third_Party/FreeRTOS/Source/event_groups.c **** 				else
 437:Middlewares/Third_Party/FreeRTOS/Source/event_groups.c **** 				{
 438:Middlewares/Third_Party/FreeRTOS/Source/event_groups.c **** 					mtCOVERAGE_TEST_MARKER();
 439:Middlewares/Third_Party/FreeRTOS/Source/event_groups.c **** 				}
 440:Middlewares/Third_Party/FreeRTOS/Source/event_groups.c **** 				xTimeoutOccurred = pdTRUE;
 441:Middlewares/Third_Party/FreeRTOS/Source/event_groups.c **** 			}
 442:Middlewares/Third_Party/FreeRTOS/Source/event_groups.c **** 			taskEXIT_CRITICAL();
 443:Middlewares/Third_Party/FreeRTOS/Source/event_groups.c **** 		}
 444:Middlewares/Third_Party/FreeRTOS/Source/event_groups.c **** 		else
 445:Middlewares/Third_Party/FreeRTOS/Source/event_groups.c **** 		{
 446:Middlewares/Third_Party/FreeRTOS/Source/event_groups.c **** 			/* The task unblocked because the bits were set. */
 447:Middlewares/Third_Party/FreeRTOS/Source/event_groups.c **** 		}
 448:Middlewares/Third_Party/FreeRTOS/Source/event_groups.c **** 
 449:Middlewares/Third_Party/FreeRTOS/Source/event_groups.c **** 		/* The task blocked so control bits may have been set. */
 450:Middlewares/Third_Party/FreeRTOS/Source/event_groups.c **** 		uxReturn &= ~eventEVENT_BITS_CONTROL_BYTES;
 451:Middlewares/Third_Party/FreeRTOS/Source/event_groups.c **** 	}
 452:Middlewares/Third_Party/FreeRTOS/Source/event_groups.c **** 	traceEVENT_GROUP_WAIT_BITS_END( xEventGroup, uxBitsToWaitFor, xTimeoutOccurred );
 453:Middlewares/Third_Party/FreeRTOS/Source/event_groups.c **** 
 454:Middlewares/Third_Party/FreeRTOS/Source/event_groups.c **** 	/* Prevent compiler warnings when trace macros are not used. */
 455:Middlewares/Third_Party/FreeRTOS/Source/event_groups.c **** 	( void ) xTimeoutOccurred;
 456:Middlewares/Third_Party/FreeRTOS/Source/event_groups.c **** 
 457:Middlewares/Third_Party/FreeRTOS/Source/event_groups.c **** 	return uxReturn;
 458:Middlewares/Third_Party/FreeRTOS/Source/event_groups.c **** }
 459:Middlewares/Third_Party/FreeRTOS/Source/event_groups.c **** /*-----------------------------------------------------------*/
 460:Middlewares/Third_Party/FreeRTOS/Source/event_groups.c **** 
 461:Middlewares/Third_Party/FreeRTOS/Source/event_groups.c **** EventBits_t xEventGroupClearBits( EventGroupHandle_t xEventGroup, const EventBits_t uxBitsToClear )
 462:Middlewares/Third_Party/FreeRTOS/Source/event_groups.c **** {
 463:Middlewares/Third_Party/FreeRTOS/Source/event_groups.c **** EventGroup_t *pxEventBits = xEventGroup;
 464:Middlewares/Third_Party/FreeRTOS/Source/event_groups.c **** EventBits_t uxReturn;
 465:Middlewares/Third_Party/FreeRTOS/Source/event_groups.c **** 
 466:Middlewares/Third_Party/FreeRTOS/Source/event_groups.c **** 	/* Check the user is not attempting to clear the bits used by the kernel
 467:Middlewares/Third_Party/FreeRTOS/Source/event_groups.c **** 	itself. */
 468:Middlewares/Third_Party/FreeRTOS/Source/event_groups.c **** 	configASSERT( xEventGroup );
 469:Middlewares/Third_Party/FreeRTOS/Source/event_groups.c **** 	configASSERT( ( uxBitsToClear & eventEVENT_BITS_CONTROL_BYTES ) == 0 );
 470:Middlewares/Third_Party/FreeRTOS/Source/event_groups.c **** 
 471:Middlewares/Third_Party/FreeRTOS/Source/event_groups.c **** 	taskENTER_CRITICAL();
 472:Middlewares/Third_Party/FreeRTOS/Source/event_groups.c **** 	{
 473:Middlewares/Third_Party/FreeRTOS/Source/event_groups.c **** 		traceEVENT_GROUP_CLEAR_BITS( xEventGroup, uxBitsToClear );
 474:Middlewares/Third_Party/FreeRTOS/Source/event_groups.c **** 
 475:Middlewares/Third_Party/FreeRTOS/Source/event_groups.c **** 		/* The value returned is the event group value prior to the bits being
 476:Middlewares/Third_Party/FreeRTOS/Source/event_groups.c **** 		cleared. */
 477:Middlewares/Third_Party/FreeRTOS/Source/event_groups.c **** 		uxReturn = pxEventBits->uxEventBits;
 478:Middlewares/Third_Party/FreeRTOS/Source/event_groups.c **** 
 479:Middlewares/Third_Party/FreeRTOS/Source/event_groups.c **** 		/* Clear the bits. */
 480:Middlewares/Third_Party/FreeRTOS/Source/event_groups.c **** 		pxEventBits->uxEventBits &= ~uxBitsToClear;
 481:Middlewares/Third_Party/FreeRTOS/Source/event_groups.c **** 	}
 482:Middlewares/Third_Party/FreeRTOS/Source/event_groups.c **** 	taskEXIT_CRITICAL();
 483:Middlewares/Third_Party/FreeRTOS/Source/event_groups.c **** 
 484:Middlewares/Third_Party/FreeRTOS/Source/event_groups.c **** 	return uxReturn;
ARM GAS  /tmp/cc0dnhIO.s 			page 20


 485:Middlewares/Third_Party/FreeRTOS/Source/event_groups.c **** }
 486:Middlewares/Third_Party/FreeRTOS/Source/event_groups.c **** /*-----------------------------------------------------------*/
 487:Middlewares/Third_Party/FreeRTOS/Source/event_groups.c **** 
 488:Middlewares/Third_Party/FreeRTOS/Source/event_groups.c **** #if ( ( configUSE_TRACE_FACILITY == 1 ) && ( INCLUDE_xTimerPendFunctionCall == 1 ) && ( configUSE_T
 489:Middlewares/Third_Party/FreeRTOS/Source/event_groups.c **** 
 490:Middlewares/Third_Party/FreeRTOS/Source/event_groups.c **** 	BaseType_t xEventGroupClearBitsFromISR( EventGroupHandle_t xEventGroup, const EventBits_t uxBitsTo
 491:Middlewares/Third_Party/FreeRTOS/Source/event_groups.c **** 	{
 492:Middlewares/Third_Party/FreeRTOS/Source/event_groups.c **** 		BaseType_t xReturn;
 493:Middlewares/Third_Party/FreeRTOS/Source/event_groups.c **** 
 494:Middlewares/Third_Party/FreeRTOS/Source/event_groups.c **** 		traceEVENT_GROUP_CLEAR_BITS_FROM_ISR( xEventGroup, uxBitsToClear );
 495:Middlewares/Third_Party/FreeRTOS/Source/event_groups.c **** 		xReturn = xTimerPendFunctionCallFromISR( vEventGroupClearBitsCallback, ( void * ) xEventGroup, ( 
 496:Middlewares/Third_Party/FreeRTOS/Source/event_groups.c **** 
 497:Middlewares/Third_Party/FreeRTOS/Source/event_groups.c **** 		return xReturn;
 498:Middlewares/Third_Party/FreeRTOS/Source/event_groups.c **** 	}
 499:Middlewares/Third_Party/FreeRTOS/Source/event_groups.c **** 
 500:Middlewares/Third_Party/FreeRTOS/Source/event_groups.c **** #endif
 501:Middlewares/Third_Party/FreeRTOS/Source/event_groups.c **** /*-----------------------------------------------------------*/
 502:Middlewares/Third_Party/FreeRTOS/Source/event_groups.c **** 
 503:Middlewares/Third_Party/FreeRTOS/Source/event_groups.c **** EventBits_t xEventGroupGetBitsFromISR( EventGroupHandle_t xEventGroup )
 504:Middlewares/Third_Party/FreeRTOS/Source/event_groups.c **** {
 505:Middlewares/Third_Party/FreeRTOS/Source/event_groups.c **** UBaseType_t uxSavedInterruptStatus;
 506:Middlewares/Third_Party/FreeRTOS/Source/event_groups.c **** EventGroup_t const * const pxEventBits = xEventGroup;
 507:Middlewares/Third_Party/FreeRTOS/Source/event_groups.c **** EventBits_t uxReturn;
 508:Middlewares/Third_Party/FreeRTOS/Source/event_groups.c **** 
 509:Middlewares/Third_Party/FreeRTOS/Source/event_groups.c **** 	uxSavedInterruptStatus = portSET_INTERRUPT_MASK_FROM_ISR();
 510:Middlewares/Third_Party/FreeRTOS/Source/event_groups.c **** 	{
 511:Middlewares/Third_Party/FreeRTOS/Source/event_groups.c **** 		uxReturn = pxEventBits->uxEventBits;
 512:Middlewares/Third_Party/FreeRTOS/Source/event_groups.c **** 	}
 513:Middlewares/Third_Party/FreeRTOS/Source/event_groups.c **** 	portCLEAR_INTERRUPT_MASK_FROM_ISR( uxSavedInterruptStatus );
 514:Middlewares/Third_Party/FreeRTOS/Source/event_groups.c **** 
 515:Middlewares/Third_Party/FreeRTOS/Source/event_groups.c **** 	return uxReturn;
 516:Middlewares/Third_Party/FreeRTOS/Source/event_groups.c **** } /*lint !e818 EventGroupHandle_t is a typedef used in other functions to so can't be pointer to co
 517:Middlewares/Third_Party/FreeRTOS/Source/event_groups.c **** /*-----------------------------------------------------------*/
 518:Middlewares/Third_Party/FreeRTOS/Source/event_groups.c **** 
 519:Middlewares/Third_Party/FreeRTOS/Source/event_groups.c **** EventBits_t xEventGroupSetBits( EventGroupHandle_t xEventGroup, const EventBits_t uxBitsToSet )
 520:Middlewares/Third_Party/FreeRTOS/Source/event_groups.c **** {
 521:Middlewares/Third_Party/FreeRTOS/Source/event_groups.c **** ListItem_t *pxListItem, *pxNext;
 522:Middlewares/Third_Party/FreeRTOS/Source/event_groups.c **** ListItem_t const *pxListEnd;
 523:Middlewares/Third_Party/FreeRTOS/Source/event_groups.c **** List_t const * pxList;
 524:Middlewares/Third_Party/FreeRTOS/Source/event_groups.c **** EventBits_t uxBitsToClear = 0, uxBitsWaitedFor, uxControlBits;
 525:Middlewares/Third_Party/FreeRTOS/Source/event_groups.c **** EventGroup_t *pxEventBits = xEventGroup;
 526:Middlewares/Third_Party/FreeRTOS/Source/event_groups.c **** BaseType_t xMatchFound = pdFALSE;
 527:Middlewares/Third_Party/FreeRTOS/Source/event_groups.c **** 
 528:Middlewares/Third_Party/FreeRTOS/Source/event_groups.c **** 	/* Check the user is not attempting to set the bits used by the kernel
 529:Middlewares/Third_Party/FreeRTOS/Source/event_groups.c **** 	itself. */
 530:Middlewares/Third_Party/FreeRTOS/Source/event_groups.c **** 	configASSERT( xEventGroup );
 531:Middlewares/Third_Party/FreeRTOS/Source/event_groups.c **** 	configASSERT( ( uxBitsToSet & eventEVENT_BITS_CONTROL_BYTES ) == 0 );
 532:Middlewares/Third_Party/FreeRTOS/Source/event_groups.c **** 
 533:Middlewares/Third_Party/FreeRTOS/Source/event_groups.c **** 	pxList = &( pxEventBits->xTasksWaitingForBits );
 534:Middlewares/Third_Party/FreeRTOS/Source/event_groups.c **** 	pxListEnd = listGET_END_MARKER( pxList ); /*lint !e826 !e740 !e9087 The mini list structure is use
 535:Middlewares/Third_Party/FreeRTOS/Source/event_groups.c **** 	vTaskSuspendAll();
 536:Middlewares/Third_Party/FreeRTOS/Source/event_groups.c **** 	{
 537:Middlewares/Third_Party/FreeRTOS/Source/event_groups.c **** 		traceEVENT_GROUP_SET_BITS( xEventGroup, uxBitsToSet );
 538:Middlewares/Third_Party/FreeRTOS/Source/event_groups.c **** 
 539:Middlewares/Third_Party/FreeRTOS/Source/event_groups.c **** 		pxListItem = listGET_HEAD_ENTRY( pxList );
 540:Middlewares/Third_Party/FreeRTOS/Source/event_groups.c **** 
 541:Middlewares/Third_Party/FreeRTOS/Source/event_groups.c **** 		/* Set the bits. */
ARM GAS  /tmp/cc0dnhIO.s 			page 21


 542:Middlewares/Third_Party/FreeRTOS/Source/event_groups.c **** 		pxEventBits->uxEventBits |= uxBitsToSet;
 543:Middlewares/Third_Party/FreeRTOS/Source/event_groups.c **** 
 544:Middlewares/Third_Party/FreeRTOS/Source/event_groups.c **** 		/* See if the new bit value should unblock any tasks. */
 545:Middlewares/Third_Party/FreeRTOS/Source/event_groups.c **** 		while( pxListItem != pxListEnd )
 546:Middlewares/Third_Party/FreeRTOS/Source/event_groups.c **** 		{
 547:Middlewares/Third_Party/FreeRTOS/Source/event_groups.c **** 			pxNext = listGET_NEXT( pxListItem );
 548:Middlewares/Third_Party/FreeRTOS/Source/event_groups.c **** 			uxBitsWaitedFor = listGET_LIST_ITEM_VALUE( pxListItem );
 549:Middlewares/Third_Party/FreeRTOS/Source/event_groups.c **** 			xMatchFound = pdFALSE;
 550:Middlewares/Third_Party/FreeRTOS/Source/event_groups.c **** 
 551:Middlewares/Third_Party/FreeRTOS/Source/event_groups.c **** 			/* Split the bits waited for from the control bits. */
 552:Middlewares/Third_Party/FreeRTOS/Source/event_groups.c **** 			uxControlBits = uxBitsWaitedFor & eventEVENT_BITS_CONTROL_BYTES;
 553:Middlewares/Third_Party/FreeRTOS/Source/event_groups.c **** 			uxBitsWaitedFor &= ~eventEVENT_BITS_CONTROL_BYTES;
 554:Middlewares/Third_Party/FreeRTOS/Source/event_groups.c **** 
 555:Middlewares/Third_Party/FreeRTOS/Source/event_groups.c **** 			if( ( uxControlBits & eventWAIT_FOR_ALL_BITS ) == ( EventBits_t ) 0 )
 556:Middlewares/Third_Party/FreeRTOS/Source/event_groups.c **** 			{
 557:Middlewares/Third_Party/FreeRTOS/Source/event_groups.c **** 				/* Just looking for single bit being set. */
 558:Middlewares/Third_Party/FreeRTOS/Source/event_groups.c **** 				if( ( uxBitsWaitedFor & pxEventBits->uxEventBits ) != ( EventBits_t ) 0 )
 559:Middlewares/Third_Party/FreeRTOS/Source/event_groups.c **** 				{
 560:Middlewares/Third_Party/FreeRTOS/Source/event_groups.c **** 					xMatchFound = pdTRUE;
 561:Middlewares/Third_Party/FreeRTOS/Source/event_groups.c **** 				}
 562:Middlewares/Third_Party/FreeRTOS/Source/event_groups.c **** 				else
 563:Middlewares/Third_Party/FreeRTOS/Source/event_groups.c **** 				{
 564:Middlewares/Third_Party/FreeRTOS/Source/event_groups.c **** 					mtCOVERAGE_TEST_MARKER();
 565:Middlewares/Third_Party/FreeRTOS/Source/event_groups.c **** 				}
 566:Middlewares/Third_Party/FreeRTOS/Source/event_groups.c **** 			}
 567:Middlewares/Third_Party/FreeRTOS/Source/event_groups.c **** 			else if( ( uxBitsWaitedFor & pxEventBits->uxEventBits ) == uxBitsWaitedFor )
 568:Middlewares/Third_Party/FreeRTOS/Source/event_groups.c **** 			{
 569:Middlewares/Third_Party/FreeRTOS/Source/event_groups.c **** 				/* All bits are set. */
 570:Middlewares/Third_Party/FreeRTOS/Source/event_groups.c **** 				xMatchFound = pdTRUE;
 571:Middlewares/Third_Party/FreeRTOS/Source/event_groups.c **** 			}
 572:Middlewares/Third_Party/FreeRTOS/Source/event_groups.c **** 			else
 573:Middlewares/Third_Party/FreeRTOS/Source/event_groups.c **** 			{
 574:Middlewares/Third_Party/FreeRTOS/Source/event_groups.c **** 				/* Need all bits to be set, but not all the bits were set. */
 575:Middlewares/Third_Party/FreeRTOS/Source/event_groups.c **** 			}
 576:Middlewares/Third_Party/FreeRTOS/Source/event_groups.c **** 
 577:Middlewares/Third_Party/FreeRTOS/Source/event_groups.c **** 			if( xMatchFound != pdFALSE )
 578:Middlewares/Third_Party/FreeRTOS/Source/event_groups.c **** 			{
 579:Middlewares/Third_Party/FreeRTOS/Source/event_groups.c **** 				/* The bits match.  Should the bits be cleared on exit? */
 580:Middlewares/Third_Party/FreeRTOS/Source/event_groups.c **** 				if( ( uxControlBits & eventCLEAR_EVENTS_ON_EXIT_BIT ) != ( EventBits_t ) 0 )
 581:Middlewares/Third_Party/FreeRTOS/Source/event_groups.c **** 				{
 582:Middlewares/Third_Party/FreeRTOS/Source/event_groups.c **** 					uxBitsToClear |= uxBitsWaitedFor;
 583:Middlewares/Third_Party/FreeRTOS/Source/event_groups.c **** 				}
 584:Middlewares/Third_Party/FreeRTOS/Source/event_groups.c **** 				else
 585:Middlewares/Third_Party/FreeRTOS/Source/event_groups.c **** 				{
 586:Middlewares/Third_Party/FreeRTOS/Source/event_groups.c **** 					mtCOVERAGE_TEST_MARKER();
 587:Middlewares/Third_Party/FreeRTOS/Source/event_groups.c **** 				}
 588:Middlewares/Third_Party/FreeRTOS/Source/event_groups.c **** 
 589:Middlewares/Third_Party/FreeRTOS/Source/event_groups.c **** 				/* Store the actual event flag value in the task's event list
 590:Middlewares/Third_Party/FreeRTOS/Source/event_groups.c **** 				item before removing the task from the event list.  The
 591:Middlewares/Third_Party/FreeRTOS/Source/event_groups.c **** 				eventUNBLOCKED_DUE_TO_BIT_SET bit is set so the task knows
 592:Middlewares/Third_Party/FreeRTOS/Source/event_groups.c **** 				that is was unblocked due to its required bits matching, rather
 593:Middlewares/Third_Party/FreeRTOS/Source/event_groups.c **** 				than because it timed out. */
 594:Middlewares/Third_Party/FreeRTOS/Source/event_groups.c **** 				vTaskRemoveFromUnorderedEventList( pxListItem, pxEventBits->uxEventBits | eventUNBLOCKED_DUE_TO
 595:Middlewares/Third_Party/FreeRTOS/Source/event_groups.c **** 			}
 596:Middlewares/Third_Party/FreeRTOS/Source/event_groups.c **** 
 597:Middlewares/Third_Party/FreeRTOS/Source/event_groups.c **** 			/* Move onto the next list item.  Note pxListItem->pxNext is not
 598:Middlewares/Third_Party/FreeRTOS/Source/event_groups.c **** 			used here as the list item may have been removed from the event list
ARM GAS  /tmp/cc0dnhIO.s 			page 22


 599:Middlewares/Third_Party/FreeRTOS/Source/event_groups.c **** 			and inserted into the ready/pending reading list. */
 600:Middlewares/Third_Party/FreeRTOS/Source/event_groups.c **** 			pxListItem = pxNext;
 601:Middlewares/Third_Party/FreeRTOS/Source/event_groups.c **** 		}
 602:Middlewares/Third_Party/FreeRTOS/Source/event_groups.c **** 
 603:Middlewares/Third_Party/FreeRTOS/Source/event_groups.c **** 		/* Clear any bits that matched when the eventCLEAR_EVENTS_ON_EXIT_BIT
 604:Middlewares/Third_Party/FreeRTOS/Source/event_groups.c **** 		bit was set in the control word. */
 605:Middlewares/Third_Party/FreeRTOS/Source/event_groups.c **** 		pxEventBits->uxEventBits &= ~uxBitsToClear;
 606:Middlewares/Third_Party/FreeRTOS/Source/event_groups.c **** 	}
 607:Middlewares/Third_Party/FreeRTOS/Source/event_groups.c **** 	( void ) xTaskResumeAll();
 608:Middlewares/Third_Party/FreeRTOS/Source/event_groups.c **** 
 609:Middlewares/Third_Party/FreeRTOS/Source/event_groups.c **** 	return pxEventBits->uxEventBits;
 610:Middlewares/Third_Party/FreeRTOS/Source/event_groups.c **** }
 611:Middlewares/Third_Party/FreeRTOS/Source/event_groups.c **** /*-----------------------------------------------------------*/
 612:Middlewares/Third_Party/FreeRTOS/Source/event_groups.c **** 
 613:Middlewares/Third_Party/FreeRTOS/Source/event_groups.c **** void vEventGroupDelete( EventGroupHandle_t xEventGroup )
 614:Middlewares/Third_Party/FreeRTOS/Source/event_groups.c **** {
 615:Middlewares/Third_Party/FreeRTOS/Source/event_groups.c **** EventGroup_t *pxEventBits = xEventGroup;
 616:Middlewares/Third_Party/FreeRTOS/Source/event_groups.c **** const List_t *pxTasksWaitingForBits = &( pxEventBits->xTasksWaitingForBits );
 617:Middlewares/Third_Party/FreeRTOS/Source/event_groups.c **** 
 618:Middlewares/Third_Party/FreeRTOS/Source/event_groups.c **** 	vTaskSuspendAll();
 619:Middlewares/Third_Party/FreeRTOS/Source/event_groups.c **** 	{
 620:Middlewares/Third_Party/FreeRTOS/Source/event_groups.c **** 		traceEVENT_GROUP_DELETE( xEventGroup );
 621:Middlewares/Third_Party/FreeRTOS/Source/event_groups.c **** 
 622:Middlewares/Third_Party/FreeRTOS/Source/event_groups.c **** 		while( listCURRENT_LIST_LENGTH( pxTasksWaitingForBits ) > ( UBaseType_t ) 0 )
 623:Middlewares/Third_Party/FreeRTOS/Source/event_groups.c **** 		{
 624:Middlewares/Third_Party/FreeRTOS/Source/event_groups.c **** 			/* Unblock the task, returning 0 as the event list is being deleted
 625:Middlewares/Third_Party/FreeRTOS/Source/event_groups.c **** 			and cannot therefore have any bits set. */
 626:Middlewares/Third_Party/FreeRTOS/Source/event_groups.c **** 			configASSERT( pxTasksWaitingForBits->xListEnd.pxNext != ( const ListItem_t * ) &( pxTasksWaiting
 627:Middlewares/Third_Party/FreeRTOS/Source/event_groups.c **** 			vTaskRemoveFromUnorderedEventList( pxTasksWaitingForBits->xListEnd.pxNext, eventUNBLOCKED_DUE_TO
 628:Middlewares/Third_Party/FreeRTOS/Source/event_groups.c **** 		}
 629:Middlewares/Third_Party/FreeRTOS/Source/event_groups.c **** 
 630:Middlewares/Third_Party/FreeRTOS/Source/event_groups.c **** 		#if( ( configSUPPORT_DYNAMIC_ALLOCATION == 1 ) && ( configSUPPORT_STATIC_ALLOCATION == 0 ) )
 631:Middlewares/Third_Party/FreeRTOS/Source/event_groups.c **** 		{
 632:Middlewares/Third_Party/FreeRTOS/Source/event_groups.c **** 			/* The event group can only have been allocated dynamically - free
 633:Middlewares/Third_Party/FreeRTOS/Source/event_groups.c **** 			it again. */
 634:Middlewares/Third_Party/FreeRTOS/Source/event_groups.c **** 			vPortFree( pxEventBits );
 635:Middlewares/Third_Party/FreeRTOS/Source/event_groups.c **** 		}
 636:Middlewares/Third_Party/FreeRTOS/Source/event_groups.c **** 		#elif( ( configSUPPORT_DYNAMIC_ALLOCATION == 1 ) && ( configSUPPORT_STATIC_ALLOCATION == 1 ) )
 637:Middlewares/Third_Party/FreeRTOS/Source/event_groups.c **** 		{
 638:Middlewares/Third_Party/FreeRTOS/Source/event_groups.c **** 			/* The event group could have been allocated statically or
 639:Middlewares/Third_Party/FreeRTOS/Source/event_groups.c **** 			dynamically, so check before attempting to free the memory. */
 640:Middlewares/Third_Party/FreeRTOS/Source/event_groups.c **** 			if( pxEventBits->ucStaticallyAllocated == ( uint8_t ) pdFALSE )
 641:Middlewares/Third_Party/FreeRTOS/Source/event_groups.c **** 			{
 642:Middlewares/Third_Party/FreeRTOS/Source/event_groups.c **** 				vPortFree( pxEventBits );
 643:Middlewares/Third_Party/FreeRTOS/Source/event_groups.c **** 			}
 644:Middlewares/Third_Party/FreeRTOS/Source/event_groups.c **** 			else
 645:Middlewares/Third_Party/FreeRTOS/Source/event_groups.c **** 			{
 646:Middlewares/Third_Party/FreeRTOS/Source/event_groups.c **** 				mtCOVERAGE_TEST_MARKER();
 647:Middlewares/Third_Party/FreeRTOS/Source/event_groups.c **** 			}
 648:Middlewares/Third_Party/FreeRTOS/Source/event_groups.c **** 		}
 649:Middlewares/Third_Party/FreeRTOS/Source/event_groups.c **** 		#endif /* configSUPPORT_DYNAMIC_ALLOCATION */
 650:Middlewares/Third_Party/FreeRTOS/Source/event_groups.c **** 	}
 651:Middlewares/Third_Party/FreeRTOS/Source/event_groups.c **** 	( void ) xTaskResumeAll();
 652:Middlewares/Third_Party/FreeRTOS/Source/event_groups.c **** }
 653:Middlewares/Third_Party/FreeRTOS/Source/event_groups.c **** /*-----------------------------------------------------------*/
 654:Middlewares/Third_Party/FreeRTOS/Source/event_groups.c **** 
 655:Middlewares/Third_Party/FreeRTOS/Source/event_groups.c **** /* For internal use only - execute a 'set bits' command that was pended from
ARM GAS  /tmp/cc0dnhIO.s 			page 23


 656:Middlewares/Third_Party/FreeRTOS/Source/event_groups.c **** an interrupt. */
 657:Middlewares/Third_Party/FreeRTOS/Source/event_groups.c **** void vEventGroupSetBitsCallback( void *pvEventGroup, const uint32_t ulBitsToSet )
 658:Middlewares/Third_Party/FreeRTOS/Source/event_groups.c **** {
 659:Middlewares/Third_Party/FreeRTOS/Source/event_groups.c **** 	( void ) xEventGroupSetBits( pvEventGroup, ( EventBits_t ) ulBitsToSet ); /*lint !e9079 Can't avoi
 660:Middlewares/Third_Party/FreeRTOS/Source/event_groups.c **** }
 661:Middlewares/Third_Party/FreeRTOS/Source/event_groups.c **** /*-----------------------------------------------------------*/
 662:Middlewares/Third_Party/FreeRTOS/Source/event_groups.c **** 
 663:Middlewares/Third_Party/FreeRTOS/Source/event_groups.c **** /* For internal use only - execute a 'clear bits' command that was pended from
 664:Middlewares/Third_Party/FreeRTOS/Source/event_groups.c **** an interrupt. */
 665:Middlewares/Third_Party/FreeRTOS/Source/event_groups.c **** void vEventGroupClearBitsCallback( void *pvEventGroup, const uint32_t ulBitsToClear )
 666:Middlewares/Third_Party/FreeRTOS/Source/event_groups.c **** {
 667:Middlewares/Third_Party/FreeRTOS/Source/event_groups.c **** 	( void ) xEventGroupClearBits( pvEventGroup, ( EventBits_t ) ulBitsToClear ); /*lint !e9079 Can't 
 668:Middlewares/Third_Party/FreeRTOS/Source/event_groups.c **** }
 669:Middlewares/Third_Party/FreeRTOS/Source/event_groups.c **** /*-----------------------------------------------------------*/
 670:Middlewares/Third_Party/FreeRTOS/Source/event_groups.c **** 
 671:Middlewares/Third_Party/FreeRTOS/Source/event_groups.c **** static BaseType_t prvTestWaitCondition( const EventBits_t uxCurrentEventBits, const EventBits_t uxB
 372              		.loc 1 671 19 discriminator 8 view .LVU116
 373              	.LBB72:
 672:Middlewares/Third_Party/FreeRTOS/Source/event_groups.c **** {
 673:Middlewares/Third_Party/FreeRTOS/Source/event_groups.c **** BaseType_t xWaitConditionMet = pdFALSE;
 374              		.loc 1 673 1 discriminator 8 view .LVU117
 674:Middlewares/Third_Party/FreeRTOS/Source/event_groups.c **** 
 675:Middlewares/Third_Party/FreeRTOS/Source/event_groups.c **** 	if( xWaitForAllBits == pdFALSE )
 375              		.loc 1 675 2 discriminator 8 view .LVU118
 376              		.loc 1 675 4 is_stmt 0 discriminator 8 view .LVU119
 377 005e 4EB3     		cbz	r6, .L53
 676:Middlewares/Third_Party/FreeRTOS/Source/event_groups.c **** 	{
 677:Middlewares/Third_Party/FreeRTOS/Source/event_groups.c **** 		/* Task only has to wait for one bit within uxBitsToWaitFor to be
 678:Middlewares/Third_Party/FreeRTOS/Source/event_groups.c **** 		set.  Is one already set? */
 679:Middlewares/Third_Party/FreeRTOS/Source/event_groups.c **** 		if( ( uxCurrentEventBits & uxBitsToWaitFor ) != ( EventBits_t ) 0 )
 680:Middlewares/Third_Party/FreeRTOS/Source/event_groups.c **** 		{
 681:Middlewares/Third_Party/FreeRTOS/Source/event_groups.c **** 			xWaitConditionMet = pdTRUE;
 682:Middlewares/Third_Party/FreeRTOS/Source/event_groups.c **** 		}
 683:Middlewares/Third_Party/FreeRTOS/Source/event_groups.c **** 		else
 684:Middlewares/Third_Party/FreeRTOS/Source/event_groups.c **** 		{
 685:Middlewares/Third_Party/FreeRTOS/Source/event_groups.c **** 			mtCOVERAGE_TEST_MARKER();
 686:Middlewares/Third_Party/FreeRTOS/Source/event_groups.c **** 		}
 687:Middlewares/Third_Party/FreeRTOS/Source/event_groups.c **** 	}
 688:Middlewares/Third_Party/FreeRTOS/Source/event_groups.c **** 	else
 689:Middlewares/Third_Party/FreeRTOS/Source/event_groups.c **** 	{
 690:Middlewares/Third_Party/FreeRTOS/Source/event_groups.c **** 		/* Task has to wait for all the bits in uxBitsToWaitFor to be set.
 691:Middlewares/Third_Party/FreeRTOS/Source/event_groups.c **** 		Are they set already? */
 692:Middlewares/Third_Party/FreeRTOS/Source/event_groups.c **** 		if( ( uxCurrentEventBits & uxBitsToWaitFor ) == uxBitsToWaitFor )
 378              		.loc 1 692 3 is_stmt 1 view .LVU120
 379              		.loc 1 692 5 is_stmt 0 view .LVU121
 380 0060 34EA0903 		bics	r3, r4, r9
 381 0064 29D0     		beq	.L26
 382              	.L27:
 383              	.LVL20:
 384              		.loc 1 692 5 view .LVU122
 385              	.LBE72:
 386              	.LBE71:
 353:Middlewares/Third_Party/FreeRTOS/Source/event_groups.c **** 		{
 387              		.loc 1 353 8 is_stmt 1 view .LVU123
 353:Middlewares/Third_Party/FreeRTOS/Source/event_groups.c **** 		{
 388              		.loc 1 353 10 is_stmt 0 view .LVU124
 389 0066 089B     		ldr	r3, [sp, #32]
ARM GAS  /tmp/cc0dnhIO.s 			page 24


 390 0068 BBB3     		cbz	r3, .L30
 366:Middlewares/Third_Party/FreeRTOS/Source/event_groups.c **** 			{
 391              		.loc 1 366 4 is_stmt 1 view .LVU125
 368:Middlewares/Third_Party/FreeRTOS/Source/event_groups.c **** 			}
 392              		.loc 1 368 19 is_stmt 0 view .LVU126
 393 006a 002F     		cmp	r7, #0
 394 006c 18BF     		it	ne
 395 006e 4FF08078 		movne	r8, #16777216
 396              	.LVL21:
 372:Middlewares/Third_Party/FreeRTOS/Source/event_groups.c **** 			}
 397              		.loc 1 372 29 is_stmt 1 view .LVU127
 375:Middlewares/Third_Party/FreeRTOS/Source/event_groups.c **** 			{
 398              		.loc 1 375 4 view .LVU128
 375:Middlewares/Third_Party/FreeRTOS/Source/event_groups.c **** 			{
 399              		.loc 1 375 6 is_stmt 0 view .LVU129
 400 0072 0EB1     		cbz	r6, .L32
 377:Middlewares/Third_Party/FreeRTOS/Source/event_groups.c **** 			}
 401              		.loc 1 377 5 is_stmt 1 view .LVU130
 377:Middlewares/Third_Party/FreeRTOS/Source/event_groups.c **** 			}
 402              		.loc 1 377 19 is_stmt 0 view .LVU131
 403 0074 48F08068 		orr	r8, r8, #67108864
 404              	.LVL22:
 405              	.L32:
 381:Middlewares/Third_Party/FreeRTOS/Source/event_groups.c **** 			}
 406              		.loc 1 381 29 is_stmt 1 view .LVU132
 387:Middlewares/Third_Party/FreeRTOS/Source/event_groups.c **** 
 407              		.loc 1 387 4 view .LVU133
 408 0078 089A     		ldr	r2, [sp, #32]
 409 007a 48EA0401 		orr	r1, r8, r4
 410 007e 281D     		adds	r0, r5, #4
 411 0080 FFF7FEFF 		bl	vTaskPlaceOnUnorderedEventList
 412              	.LVL23:
 392:Middlewares/Third_Party/FreeRTOS/Source/event_groups.c **** 
 413              		.loc 1 392 4 view .LVU134
 394:Middlewares/Third_Party/FreeRTOS/Source/event_groups.c **** 		}
 414              		.loc 1 394 68 view .LVU135
 415              	.LBE70:
 397:Middlewares/Third_Party/FreeRTOS/Source/event_groups.c **** 
 416              		.loc 1 397 2 view .LVU136
 397:Middlewares/Third_Party/FreeRTOS/Source/event_groups.c **** 
 417              		.loc 1 397 20 is_stmt 0 view .LVU137
 418 0084 FFF7FEFF 		bl	xTaskResumeAll
 419              	.LVL24:
 399:Middlewares/Third_Party/FreeRTOS/Source/event_groups.c **** 	{
 420              		.loc 1 399 2 is_stmt 1 view .LVU138
 401:Middlewares/Third_Party/FreeRTOS/Source/event_groups.c **** 		{
 421              		.loc 1 401 3 view .LVU139
 401:Middlewares/Third_Party/FreeRTOS/Source/event_groups.c **** 		{
 422              		.loc 1 401 5 is_stmt 0 view .LVU140
 423 0088 48B9     		cbnz	r0, .L33
 403:Middlewares/Third_Party/FreeRTOS/Source/event_groups.c **** 		}
 424              		.loc 1 403 4 is_stmt 1 view .LVU141
 425 008a 4FF0E023 		mov	r3, #-536813568
 426 008e 4FF08052 		mov	r2, #268435456
 427 0092 C3F8042D 		str	r2, [r3, #3332]
 428              	.LVL25:
 403:Middlewares/Third_Party/FreeRTOS/Source/event_groups.c **** 		}
ARM GAS  /tmp/cc0dnhIO.s 			page 25


 429              		.loc 1 403 4 view .LVU142
 430              		.syntax unified
 431              	@ 403 "Middlewares/Third_Party/FreeRTOS/Source/event_groups.c" 1
 432 0096 BFF34F8F 		dsb
 433              	@ 0 "" 2
 403:Middlewares/Third_Party/FreeRTOS/Source/event_groups.c **** 		}
 434              		.loc 1 403 4 view .LVU143
 435              	@ 403 "Middlewares/Third_Party/FreeRTOS/Source/event_groups.c" 1
 436 009a BFF36F8F 		isb
 437              	@ 0 "" 2
 403:Middlewares/Third_Party/FreeRTOS/Source/event_groups.c **** 		}
 438              		.loc 1 403 26 view .LVU144
 439              		.thumb
 440              		.syntax unified
 441              	.L33:
 407:Middlewares/Third_Party/FreeRTOS/Source/event_groups.c **** 		}
 442              		.loc 1 407 28 view .LVU145
 414:Middlewares/Third_Party/FreeRTOS/Source/event_groups.c **** 
 443              		.loc 1 414 3 view .LVU146
 414:Middlewares/Third_Party/FreeRTOS/Source/event_groups.c **** 
 444              		.loc 1 414 14 is_stmt 0 view .LVU147
 445 009e FFF7FEFF 		bl	uxTaskResetEventItemValue
 446              	.LVL26:
 416:Middlewares/Third_Party/FreeRTOS/Source/event_groups.c **** 		{
 447              		.loc 1 416 5 view .LVU148
 448 00a2 10F0007F 		tst	r0, #33554432
 414:Middlewares/Third_Party/FreeRTOS/Source/event_groups.c **** 
 449              		.loc 1 414 14 view .LVU149
 450 00a6 8146     		mov	r9, r0
 451              	.LVL27:
 416:Middlewares/Third_Party/FreeRTOS/Source/event_groups.c **** 		{
 452              		.loc 1 416 3 is_stmt 1 view .LVU150
 416:Middlewares/Third_Party/FreeRTOS/Source/event_groups.c **** 		{
 453              		.loc 1 416 5 is_stmt 0 view .LVU151
 454 00a8 1AD0     		beq	.L54
 455              	.LVL28:
 456              	.L34:
 447:Middlewares/Third_Party/FreeRTOS/Source/event_groups.c **** 
 457              		.loc 1 447 3 is_stmt 1 view .LVU152
 450:Middlewares/Third_Party/FreeRTOS/Source/event_groups.c **** 	}
 458              		.loc 1 450 3 view .LVU153
 450:Middlewares/Third_Party/FreeRTOS/Source/event_groups.c **** 	}
 459              		.loc 1 450 12 is_stmt 0 view .LVU154
 460 00aa 29F07F49 		bic	r9, r9, #-16777216
 461              	.LVL29:
 452:Middlewares/Third_Party/FreeRTOS/Source/event_groups.c **** 
 462              		.loc 1 452 2 is_stmt 1 view .LVU155
 455:Middlewares/Third_Party/FreeRTOS/Source/event_groups.c **** 
 463              		.loc 1 455 2 view .LVU156
 457:Middlewares/Third_Party/FreeRTOS/Source/event_groups.c **** }
 464              		.loc 1 457 2 view .LVU157
 465              	.L16:
 458:Middlewares/Third_Party/FreeRTOS/Source/event_groups.c **** /*-----------------------------------------------------------*/
 466              		.loc 1 458 1 is_stmt 0 view .LVU158
 467 00ae 4846     		mov	r0, r9
 468 00b0 BDE8F883 		pop	{r3, r4, r5, r6, r7, r8, r9, pc}
 469              	.LVL30:
ARM GAS  /tmp/cc0dnhIO.s 			page 26


 470              	.L53:
 471              	.LBB75:
 472              	.LBB74:
 473              	.LBB73:
 679:Middlewares/Third_Party/FreeRTOS/Source/event_groups.c **** 		{
 474              		.loc 1 679 3 is_stmt 1 view .LVU159
 679:Middlewares/Third_Party/FreeRTOS/Source/event_groups.c **** 		{
 475              		.loc 1 679 5 is_stmt 0 view .LVU160
 476 00b4 14EA090F 		tst	r4, r9
 477 00b8 D5D0     		beq	.L27
 478              	.L26:
 479              	.LVL31:
 679:Middlewares/Third_Party/FreeRTOS/Source/event_groups.c **** 		{
 480              		.loc 1 679 5 view .LVU161
 481              	.LBE73:
 482              	.LBE74:
 340:Middlewares/Third_Party/FreeRTOS/Source/event_groups.c **** 			xTicksToWait = ( TickType_t ) 0;
 483              		.loc 1 340 4 is_stmt 1 view .LVU162
 341:Middlewares/Third_Party/FreeRTOS/Source/event_groups.c **** 
 484              		.loc 1 341 4 view .LVU163
 344:Middlewares/Third_Party/FreeRTOS/Source/event_groups.c **** 			{
 485              		.loc 1 344 4 view .LVU164
 344:Middlewares/Third_Party/FreeRTOS/Source/event_groups.c **** 			{
 486              		.loc 1 344 6 is_stmt 0 view .LVU165
 487 00ba 77B1     		cbz	r7, .L30
 346:Middlewares/Third_Party/FreeRTOS/Source/event_groups.c **** 			}
 488              		.loc 1 346 5 is_stmt 1 view .LVU166
 346:Middlewares/Third_Party/FreeRTOS/Source/event_groups.c **** 			}
 489              		.loc 1 346 30 is_stmt 0 view .LVU167
 490 00bc 29EA0404 		bic	r4, r9, r4
 491              	.LVL32:
 346:Middlewares/Third_Party/FreeRTOS/Source/event_groups.c **** 			}
 492              		.loc 1 346 30 view .LVU168
 493 00c0 2C60     		str	r4, [r5]
 494              	.LVL33:
 394:Middlewares/Third_Party/FreeRTOS/Source/event_groups.c **** 		}
 495              		.loc 1 394 68 is_stmt 1 view .LVU169
 496              	.LBE75:
 397:Middlewares/Third_Party/FreeRTOS/Source/event_groups.c **** 
 497              		.loc 1 397 2 view .LVU170
 397:Middlewares/Third_Party/FreeRTOS/Source/event_groups.c **** 
 498              		.loc 1 397 20 is_stmt 0 view .LVU171
 499 00c2 FFF7FEFF 		bl	xTaskResumeAll
 500              	.LVL34:
 399:Middlewares/Third_Party/FreeRTOS/Source/event_groups.c **** 	{
 501              		.loc 1 399 2 is_stmt 1 view .LVU172
 502 00c6 F2E7     		b	.L16
 503              	.LVL35:
 504              	.L52:
 325:Middlewares/Third_Party/FreeRTOS/Source/event_groups.c **** 	}
 505              		.loc 1 325 3 view .LVU173
 506              	.LBB76:
 507              	.LBI76:
 191:Middlewares/Third_Party/FreeRTOS/Source/portable/GCC/ARM_CM4F/portmacro.h **** {
 508              		.loc 2 191 30 view .LVU174
 509              	.LBB77:
 193:Middlewares/Third_Party/FreeRTOS/Source/portable/GCC/ARM_CM4F/portmacro.h **** 
ARM GAS  /tmp/cc0dnhIO.s 			page 27


 510              		.loc 2 193 1 view .LVU175
 511              		.loc 2 195 2 view .LVU176
 512              		.syntax unified
 513              	@ 195 "Middlewares/Third_Party/FreeRTOS/Source/portable/GCC/ARM_CM4F/portmacro.h" 1
 514 00c8 4FF05003 			mov r3, #80												
 515 00cc 83F31188 		msr basepri, r3											
 516 00d0 BFF36F8F 		isb														
 517 00d4 BFF34F8F 		dsb														
 518              	
 519              	@ 0 "" 2
 520              	.LVL36:
 521              		.thumb
 522              		.syntax unified
 523              	.L24:
 524              		.loc 2 195 2 is_stmt 0 view .LVU177
 525              	.LBE77:
 526              	.LBE76:
 325:Middlewares/Third_Party/FreeRTOS/Source/event_groups.c **** 	}
 527              		.loc 1 325 3 is_stmt 1 discriminator 4 view .LVU178
 325:Middlewares/Third_Party/FreeRTOS/Source/event_groups.c **** 	}
 528              		.loc 1 325 3 discriminator 4 view .LVU179
 325:Middlewares/Third_Party/FreeRTOS/Source/event_groups.c **** 	}
 529              		.loc 1 325 3 discriminator 4 view .LVU180
 325:Middlewares/Third_Party/FreeRTOS/Source/event_groups.c **** 	}
 530              		.loc 1 325 3 discriminator 4 view .LVU181
 325:Middlewares/Third_Party/FreeRTOS/Source/event_groups.c **** 	}
 531              		.loc 1 325 3 discriminator 4 view .LVU182
 325:Middlewares/Third_Party/FreeRTOS/Source/event_groups.c **** 	}
 532              		.loc 1 325 3 discriminator 4 view .LVU183
 533 00d8 FEE7     		b	.L24
 534              	.LVL37:
 535              	.L30:
 536              	.LBB78:
 394:Middlewares/Third_Party/FreeRTOS/Source/event_groups.c **** 		}
 537              		.loc 1 394 68 view .LVU184
 538              	.LBE78:
 397:Middlewares/Third_Party/FreeRTOS/Source/event_groups.c **** 
 539              		.loc 1 397 2 view .LVU185
 397:Middlewares/Third_Party/FreeRTOS/Source/event_groups.c **** 
 540              		.loc 1 397 20 is_stmt 0 view .LVU186
 541 00da FFF7FEFF 		bl	xTaskResumeAll
 542              	.LVL38:
 399:Middlewares/Third_Party/FreeRTOS/Source/event_groups.c **** 	{
 543              		.loc 1 399 2 is_stmt 1 view .LVU187
 544 00de E6E7     		b	.L16
 545              	.LVL39:
 546              	.L54:
 418:Middlewares/Third_Party/FreeRTOS/Source/event_groups.c **** 			{
 547              		.loc 1 418 4 view .LVU188
 548 00e0 FFF7FEFF 		bl	vPortEnterCritical
 549              	.LVL40:
 421:Middlewares/Third_Party/FreeRTOS/Source/event_groups.c **** 
 550              		.loc 1 421 5 view .LVU189
 421:Middlewares/Third_Party/FreeRTOS/Source/event_groups.c **** 
 551              		.loc 1 421 14 is_stmt 0 view .LVU190
 552 00e4 D5F80090 		ldr	r9, [r5]
 553              	.LVL41:
ARM GAS  /tmp/cc0dnhIO.s 			page 28


 425:Middlewares/Third_Party/FreeRTOS/Source/event_groups.c **** 				{
 554              		.loc 1 425 5 is_stmt 1 view .LVU191
 555              	.LBB79:
 556              	.LBI79:
 671:Middlewares/Third_Party/FreeRTOS/Source/event_groups.c **** {
 557              		.loc 1 671 19 view .LVU192
 558              	.LBB80:
 673:Middlewares/Third_Party/FreeRTOS/Source/event_groups.c **** 
 559              		.loc 1 673 1 view .LVU193
 675:Middlewares/Third_Party/FreeRTOS/Source/event_groups.c **** 	{
 560              		.loc 1 675 2 view .LVU194
 675:Middlewares/Third_Party/FreeRTOS/Source/event_groups.c **** 	{
 561              		.loc 1 675 4 is_stmt 0 view .LVU195
 562 00e8 4EB9     		cbnz	r6, .L35
 679:Middlewares/Third_Party/FreeRTOS/Source/event_groups.c **** 		{
 563              		.loc 1 679 3 is_stmt 1 view .LVU196
 679:Middlewares/Third_Party/FreeRTOS/Source/event_groups.c **** 		{
 564              		.loc 1 679 5 is_stmt 0 view .LVU197
 565 00ea 14EA090F 		tst	r4, r9
 566 00ee 03D0     		beq	.L37
 567              	.L36:
 568              	.LVL42:
 679:Middlewares/Third_Party/FreeRTOS/Source/event_groups.c **** 		{
 569              		.loc 1 679 5 view .LVU198
 570              	.LBE80:
 571              	.LBE79:
 427:Middlewares/Third_Party/FreeRTOS/Source/event_groups.c **** 					{
 572              		.loc 1 427 6 is_stmt 1 view .LVU199
 427:Middlewares/Third_Party/FreeRTOS/Source/event_groups.c **** 					{
 573              		.loc 1 427 8 is_stmt 0 view .LVU200
 574 00f0 17B1     		cbz	r7, .L37
 429:Middlewares/Third_Party/FreeRTOS/Source/event_groups.c **** 					}
 575              		.loc 1 429 7 is_stmt 1 view .LVU201
 429:Middlewares/Third_Party/FreeRTOS/Source/event_groups.c **** 					}
 576              		.loc 1 429 32 is_stmt 0 view .LVU202
 577 00f2 29EA0404 		bic	r4, r9, r4
 578              	.LVL43:
 429:Middlewares/Third_Party/FreeRTOS/Source/event_groups.c **** 					}
 579              		.loc 1 429 32 view .LVU203
 580 00f6 2C60     		str	r4, [r5]
 581              	.L37:
 438:Middlewares/Third_Party/FreeRTOS/Source/event_groups.c **** 				}
 582              		.loc 1 438 30 is_stmt 1 view .LVU204
 440:Middlewares/Third_Party/FreeRTOS/Source/event_groups.c **** 			}
 583              		.loc 1 440 5 view .LVU205
 584              	.LVL44:
 442:Middlewares/Third_Party/FreeRTOS/Source/event_groups.c **** 		}
 585              		.loc 1 442 4 view .LVU206
 586 00f8 FFF7FEFF 		bl	vPortExitCritical
 587              	.LVL45:
 588 00fc D5E7     		b	.L34
 589              	.LVL46:
 590              	.L35:
 591              	.LBB82:
 592              	.LBB81:
 593              		.loc 1 692 3 view .LVU207
 594              		.loc 1 692 5 is_stmt 0 view .LVU208
ARM GAS  /tmp/cc0dnhIO.s 			page 29


 595 00fe 34EA0903 		bics	r3, r4, r9
 596 0102 F9D1     		bne	.L37
 597 0104 F4E7     		b	.L36
 598              	.LBE81:
 599              	.LBE82:
 600              		.cfi_endproc
 601              	.LFE8:
 603 0106 00BF     		.section	.text.xEventGroupClearBits,"ax",%progbits
 604              		.align	1
 605              		.p2align 2,,3
 606              		.global	xEventGroupClearBits
 607              		.syntax unified
 608              		.thumb
 609              		.thumb_func
 611              	xEventGroupClearBits:
 612              	.LVL47:
 613              	.LFB9:
 462:Middlewares/Third_Party/FreeRTOS/Source/event_groups.c **** EventGroup_t *pxEventBits = xEventGroup;
 614              		.loc 1 462 1 is_stmt 1 view -0
 615              		.cfi_startproc
 616              		@ args = 0, pretend = 0, frame = 0
 617              		@ frame_needed = 0, uses_anonymous_args = 0
 463:Middlewares/Third_Party/FreeRTOS/Source/event_groups.c **** EventBits_t uxReturn;
 618              		.loc 1 463 1 view .LVU210
 464:Middlewares/Third_Party/FreeRTOS/Source/event_groups.c **** 
 619              		.loc 1 464 1 view .LVU211
 468:Middlewares/Third_Party/FreeRTOS/Source/event_groups.c **** 	configASSERT( ( uxBitsToClear & eventEVENT_BITS_CONTROL_BYTES ) == 0 );
 620              		.loc 1 468 2 view .LVU212
 621 0000 C0B1     		cbz	r0, .L62
 468:Middlewares/Third_Party/FreeRTOS/Source/event_groups.c **** 	configASSERT( ( uxBitsToClear & eventEVENT_BITS_CONTROL_BYTES ) == 0 );
 622              		.loc 1 468 29 discriminator 2 view .LVU213
 469:Middlewares/Third_Party/FreeRTOS/Source/event_groups.c **** 
 623              		.loc 1 469 2 discriminator 2 view .LVU214
 624 0002 11F07F4F 		tst	r1, #-16777216
 462:Middlewares/Third_Party/FreeRTOS/Source/event_groups.c **** EventGroup_t *pxEventBits = xEventGroup;
 625              		.loc 1 462 1 is_stmt 0 discriminator 2 view .LVU215
 626 0006 70B5     		push	{r4, r5, r6, lr}
 627              		.cfi_def_cfa_offset 16
 628              		.cfi_offset 4, -16
 629              		.cfi_offset 5, -12
 630              		.cfi_offset 6, -8
 631              		.cfi_offset 14, -4
 632 0008 0C46     		mov	r4, r1
 469:Middlewares/Third_Party/FreeRTOS/Source/event_groups.c **** 
 633              		.loc 1 469 2 discriminator 2 view .LVU216
 634 000a 08D0     		beq	.L58
 469:Middlewares/Third_Party/FreeRTOS/Source/event_groups.c **** 
 635              		.loc 1 469 2 is_stmt 1 view .LVU217
 636              	.LBB97:
 637              	.LBI97:
 191:Middlewares/Third_Party/FreeRTOS/Source/portable/GCC/ARM_CM4F/portmacro.h **** {
 638              		.loc 2 191 30 view .LVU218
 639              	.LBB98:
 193:Middlewares/Third_Party/FreeRTOS/Source/portable/GCC/ARM_CM4F/portmacro.h **** 
 640              		.loc 2 193 1 view .LVU219
 641              		.loc 2 195 2 view .LVU220
 642              		.syntax unified
ARM GAS  /tmp/cc0dnhIO.s 			page 30


 643              	@ 195 "Middlewares/Third_Party/FreeRTOS/Source/portable/GCC/ARM_CM4F/portmacro.h" 1
 644 000c 4FF05003 			mov r3, #80												
 645 0010 83F31188 		msr basepri, r3											
 646 0014 BFF36F8F 		isb														
 647 0018 BFF34F8F 		dsb														
 648              	
 649              	@ 0 "" 2
 650              	.LVL48:
 651              		.thumb
 652              		.syntax unified
 653              	.L59:
 654              		.loc 2 195 2 is_stmt 0 view .LVU221
 655              	.LBE98:
 656              	.LBE97:
 469:Middlewares/Third_Party/FreeRTOS/Source/event_groups.c **** 
 657              		.loc 1 469 2 is_stmt 1 discriminator 2 view .LVU222
 469:Middlewares/Third_Party/FreeRTOS/Source/event_groups.c **** 
 658              		.loc 1 469 2 discriminator 2 view .LVU223
 469:Middlewares/Third_Party/FreeRTOS/Source/event_groups.c **** 
 659              		.loc 1 469 2 discriminator 2 view .LVU224
 469:Middlewares/Third_Party/FreeRTOS/Source/event_groups.c **** 
 660              		.loc 1 469 2 discriminator 2 view .LVU225
 469:Middlewares/Third_Party/FreeRTOS/Source/event_groups.c **** 
 661              		.loc 1 469 2 discriminator 2 view .LVU226
 469:Middlewares/Third_Party/FreeRTOS/Source/event_groups.c **** 
 662              		.loc 1 469 2 discriminator 2 view .LVU227
 663 001c FEE7     		b	.L59
 664              	.L58:
 665 001e 0646     		mov	r6, r0
 666              	.LVL49:
 667              	.LBB99:
 668              	.LBI99:
 461:Middlewares/Third_Party/FreeRTOS/Source/event_groups.c **** {
 669              		.loc 1 461 13 view .LVU228
 670              	.LBB100:
 469:Middlewares/Third_Party/FreeRTOS/Source/event_groups.c **** 
 671              		.loc 1 469 72 view .LVU229
 471:Middlewares/Third_Party/FreeRTOS/Source/event_groups.c **** 	{
 672              		.loc 1 471 2 view .LVU230
 673 0020 FFF7FEFF 		bl	vPortEnterCritical
 674              	.LVL50:
 473:Middlewares/Third_Party/FreeRTOS/Source/event_groups.c **** 
 675              		.loc 1 473 60 view .LVU231
 477:Middlewares/Third_Party/FreeRTOS/Source/event_groups.c **** 
 676              		.loc 1 477 3 view .LVU232
 477:Middlewares/Third_Party/FreeRTOS/Source/event_groups.c **** 
 677              		.loc 1 477 12 is_stmt 0 view .LVU233
 678 0024 3568     		ldr	r5, [r6]
 679              	.LVL51:
 480:Middlewares/Third_Party/FreeRTOS/Source/event_groups.c **** 	}
 680              		.loc 1 480 3 is_stmt 1 view .LVU234
 480:Middlewares/Third_Party/FreeRTOS/Source/event_groups.c **** 	}
 681              		.loc 1 480 28 is_stmt 0 view .LVU235
 682 0026 25EA0404 		bic	r4, r5, r4
 683              	.LVL52:
 480:Middlewares/Third_Party/FreeRTOS/Source/event_groups.c **** 	}
 684              		.loc 1 480 28 view .LVU236
ARM GAS  /tmp/cc0dnhIO.s 			page 31


 685 002a 3460     		str	r4, [r6]
 482:Middlewares/Third_Party/FreeRTOS/Source/event_groups.c **** 
 686              		.loc 1 482 2 is_stmt 1 view .LVU237
 687 002c FFF7FEFF 		bl	vPortExitCritical
 688              	.LVL53:
 484:Middlewares/Third_Party/FreeRTOS/Source/event_groups.c **** }
 689              		.loc 1 484 2 view .LVU238
 484:Middlewares/Third_Party/FreeRTOS/Source/event_groups.c **** }
 690              		.loc 1 484 2 is_stmt 0 view .LVU239
 691              	.LBE100:
 692              	.LBE99:
 485:Middlewares/Third_Party/FreeRTOS/Source/event_groups.c **** /*-----------------------------------------------------------*/
 693              		.loc 1 485 1 view .LVU240
 694 0030 2846     		mov	r0, r5
 695 0032 70BD     		pop	{r4, r5, r6, pc}
 696              	.LVL54:
 697              	.L62:
 698              		.cfi_def_cfa_offset 0
 699              		.cfi_restore 4
 700              		.cfi_restore 5
 701              		.cfi_restore 6
 702              		.cfi_restore 14
 468:Middlewares/Third_Party/FreeRTOS/Source/event_groups.c **** 	configASSERT( ( uxBitsToClear & eventEVENT_BITS_CONTROL_BYTES ) == 0 );
 703              		.loc 1 468 2 is_stmt 1 view .LVU241
 704              	.LBB101:
 705              	.LBI101:
 191:Middlewares/Third_Party/FreeRTOS/Source/portable/GCC/ARM_CM4F/portmacro.h **** {
 706              		.loc 2 191 30 view .LVU242
 707              	.LBB102:
 193:Middlewares/Third_Party/FreeRTOS/Source/portable/GCC/ARM_CM4F/portmacro.h **** 
 708              		.loc 2 193 1 view .LVU243
 709              		.loc 2 195 2 view .LVU244
 710              		.syntax unified
 711              	@ 195 "Middlewares/Third_Party/FreeRTOS/Source/portable/GCC/ARM_CM4F/portmacro.h" 1
 712 0034 4FF05003 			mov r3, #80												
 713 0038 83F31188 		msr basepri, r3											
 714 003c BFF36F8F 		isb														
 715 0040 BFF34F8F 		dsb														
 716              	
 717              	@ 0 "" 2
 718              	.LVL55:
 719              		.thumb
 720              		.syntax unified
 721              	.L57:
 722              		.loc 2 195 2 is_stmt 0 view .LVU245
 723              	.LBE102:
 724              	.LBE101:
 468:Middlewares/Third_Party/FreeRTOS/Source/event_groups.c **** 	configASSERT( ( uxBitsToClear & eventEVENT_BITS_CONTROL_BYTES ) == 0 );
 725              		.loc 1 468 2 is_stmt 1 discriminator 1 view .LVU246
 468:Middlewares/Third_Party/FreeRTOS/Source/event_groups.c **** 	configASSERT( ( uxBitsToClear & eventEVENT_BITS_CONTROL_BYTES ) == 0 );
 726              		.loc 1 468 2 discriminator 1 view .LVU247
 468:Middlewares/Third_Party/FreeRTOS/Source/event_groups.c **** 	configASSERT( ( uxBitsToClear & eventEVENT_BITS_CONTROL_BYTES ) == 0 );
 727              		.loc 1 468 2 discriminator 1 view .LVU248
 468:Middlewares/Third_Party/FreeRTOS/Source/event_groups.c **** 	configASSERT( ( uxBitsToClear & eventEVENT_BITS_CONTROL_BYTES ) == 0 );
 728              		.loc 1 468 2 discriminator 1 view .LVU249
 468:Middlewares/Third_Party/FreeRTOS/Source/event_groups.c **** 	configASSERT( ( uxBitsToClear & eventEVENT_BITS_CONTROL_BYTES ) == 0 );
 729              		.loc 1 468 2 discriminator 1 view .LVU250
ARM GAS  /tmp/cc0dnhIO.s 			page 32


 468:Middlewares/Third_Party/FreeRTOS/Source/event_groups.c **** 	configASSERT( ( uxBitsToClear & eventEVENT_BITS_CONTROL_BYTES ) == 0 );
 730              		.loc 1 468 2 discriminator 1 view .LVU251
 731 0044 FEE7     		b	.L57
 732              		.cfi_endproc
 733              	.LFE9:
 735 0046 00BF     		.section	.text.xEventGroupGetBitsFromISR,"ax",%progbits
 736              		.align	1
 737              		.p2align 2,,3
 738              		.global	xEventGroupGetBitsFromISR
 739              		.syntax unified
 740              		.thumb
 741              		.thumb_func
 743              	xEventGroupGetBitsFromISR:
 744              	.LVL56:
 745              	.LFB10:
 504:Middlewares/Third_Party/FreeRTOS/Source/event_groups.c **** UBaseType_t uxSavedInterruptStatus;
 746              		.loc 1 504 1 view -0
 747              		.cfi_startproc
 748              		@ args = 0, pretend = 0, frame = 0
 749              		@ frame_needed = 0, uses_anonymous_args = 0
 750              		@ link register save eliminated.
 505:Middlewares/Third_Party/FreeRTOS/Source/event_groups.c **** EventGroup_t const * const pxEventBits = xEventGroup;
 751              		.loc 1 505 1 view .LVU253
 506:Middlewares/Third_Party/FreeRTOS/Source/event_groups.c **** EventBits_t uxReturn;
 752              		.loc 1 506 1 view .LVU254
 507:Middlewares/Third_Party/FreeRTOS/Source/event_groups.c **** 
 753              		.loc 1 507 1 view .LVU255
 509:Middlewares/Third_Party/FreeRTOS/Source/event_groups.c **** 	{
 754              		.loc 1 509 2 view .LVU256
 755              	.LBB103:
 756              	.LBI103:
 196:Middlewares/Third_Party/FreeRTOS/Source/portable/GCC/ARM_CM4F/portmacro.h **** 	(
 197:Middlewares/Third_Party/FreeRTOS/Source/portable/GCC/ARM_CM4F/portmacro.h **** 		"	mov %0, %1												\n"	\
 198:Middlewares/Third_Party/FreeRTOS/Source/portable/GCC/ARM_CM4F/portmacro.h **** 		"	msr basepri, %0											\n" \
 199:Middlewares/Third_Party/FreeRTOS/Source/portable/GCC/ARM_CM4F/portmacro.h **** 		"	isb														\n" \
 200:Middlewares/Third_Party/FreeRTOS/Source/portable/GCC/ARM_CM4F/portmacro.h **** 		"	dsb														\n" \
 201:Middlewares/Third_Party/FreeRTOS/Source/portable/GCC/ARM_CM4F/portmacro.h **** 		:"=r" (ulNewBASEPRI) : "i" ( configMAX_SYSCALL_INTERRUPT_PRIORITY ) : "memory"
 202:Middlewares/Third_Party/FreeRTOS/Source/portable/GCC/ARM_CM4F/portmacro.h **** 	);
 203:Middlewares/Third_Party/FreeRTOS/Source/portable/GCC/ARM_CM4F/portmacro.h **** }
 204:Middlewares/Third_Party/FreeRTOS/Source/portable/GCC/ARM_CM4F/portmacro.h **** 
 205:Middlewares/Third_Party/FreeRTOS/Source/portable/GCC/ARM_CM4F/portmacro.h **** /*-----------------------------------------------------------*/
 206:Middlewares/Third_Party/FreeRTOS/Source/portable/GCC/ARM_CM4F/portmacro.h **** 
 207:Middlewares/Third_Party/FreeRTOS/Source/portable/GCC/ARM_CM4F/portmacro.h **** portFORCE_INLINE static uint32_t ulPortRaiseBASEPRI( void )
 757              		.loc 2 207 34 view .LVU257
 758              	.LBB104:
 208:Middlewares/Third_Party/FreeRTOS/Source/portable/GCC/ARM_CM4F/portmacro.h **** {
 209:Middlewares/Third_Party/FreeRTOS/Source/portable/GCC/ARM_CM4F/portmacro.h **** uint32_t ulOriginalBASEPRI, ulNewBASEPRI;
 759              		.loc 2 209 1 view .LVU258
 210:Middlewares/Third_Party/FreeRTOS/Source/portable/GCC/ARM_CM4F/portmacro.h **** 
 211:Middlewares/Third_Party/FreeRTOS/Source/portable/GCC/ARM_CM4F/portmacro.h **** 	__asm volatile
 760              		.loc 2 211 2 view .LVU259
 761              		.syntax unified
 762              	@ 211 "Middlewares/Third_Party/FreeRTOS/Source/portable/GCC/ARM_CM4F/portmacro.h" 1
 763 0000 EFF31183 			mrs r3, basepri											
 764 0004 4FF05002 		mov r2, #80												
 765 0008 82F31188 		msr basepri, r2											
 766 000c BFF36F8F 		isb														
ARM GAS  /tmp/cc0dnhIO.s 			page 33


 767 0010 BFF34F8F 		dsb														
 768              	
 769              	@ 0 "" 2
 770              	.LVL57:
 212:Middlewares/Third_Party/FreeRTOS/Source/portable/GCC/ARM_CM4F/portmacro.h **** 	(
 213:Middlewares/Third_Party/FreeRTOS/Source/portable/GCC/ARM_CM4F/portmacro.h **** 		"	mrs %0, basepri											\n" \
 214:Middlewares/Third_Party/FreeRTOS/Source/portable/GCC/ARM_CM4F/portmacro.h **** 		"	mov %1, %2												\n"	\
 215:Middlewares/Third_Party/FreeRTOS/Source/portable/GCC/ARM_CM4F/portmacro.h **** 		"	msr basepri, %1											\n" \
 216:Middlewares/Third_Party/FreeRTOS/Source/portable/GCC/ARM_CM4F/portmacro.h **** 		"	isb														\n" \
 217:Middlewares/Third_Party/FreeRTOS/Source/portable/GCC/ARM_CM4F/portmacro.h **** 		"	dsb														\n" \
 218:Middlewares/Third_Party/FreeRTOS/Source/portable/GCC/ARM_CM4F/portmacro.h **** 		:"=r" (ulOriginalBASEPRI), "=r" (ulNewBASEPRI) : "i" ( configMAX_SYSCALL_INTERRUPT_PRIORITY ) : "
 219:Middlewares/Third_Party/FreeRTOS/Source/portable/GCC/ARM_CM4F/portmacro.h **** 	);
 220:Middlewares/Third_Party/FreeRTOS/Source/portable/GCC/ARM_CM4F/portmacro.h **** 
 221:Middlewares/Third_Party/FreeRTOS/Source/portable/GCC/ARM_CM4F/portmacro.h **** 	/* This return will not be reached but is necessary to prevent compiler
 222:Middlewares/Third_Party/FreeRTOS/Source/portable/GCC/ARM_CM4F/portmacro.h **** 	warnings. */
 223:Middlewares/Third_Party/FreeRTOS/Source/portable/GCC/ARM_CM4F/portmacro.h **** 	return ulOriginalBASEPRI;
 771              		.loc 2 223 2 view .LVU260
 772              		.loc 2 223 2 is_stmt 0 view .LVU261
 773              		.thumb
 774              		.syntax unified
 775              	.LBE104:
 776              	.LBE103:
 511:Middlewares/Third_Party/FreeRTOS/Source/event_groups.c **** 	}
 777              		.loc 1 511 3 is_stmt 1 view .LVU262
 511:Middlewares/Third_Party/FreeRTOS/Source/event_groups.c **** 	}
 778              		.loc 1 511 12 is_stmt 0 view .LVU263
 779 0014 0068     		ldr	r0, [r0]
 780              	.LVL58:
 513:Middlewares/Third_Party/FreeRTOS/Source/event_groups.c **** 
 781              		.loc 1 513 2 is_stmt 1 view .LVU264
 782              	.LBB105:
 783              	.LBI105:
 224:Middlewares/Third_Party/FreeRTOS/Source/portable/GCC/ARM_CM4F/portmacro.h **** }
 225:Middlewares/Third_Party/FreeRTOS/Source/portable/GCC/ARM_CM4F/portmacro.h **** /*-----------------------------------------------------------*/
 226:Middlewares/Third_Party/FreeRTOS/Source/portable/GCC/ARM_CM4F/portmacro.h **** 
 227:Middlewares/Third_Party/FreeRTOS/Source/portable/GCC/ARM_CM4F/portmacro.h **** portFORCE_INLINE static void vPortSetBASEPRI( uint32_t ulNewMaskValue )
 784              		.loc 2 227 30 view .LVU265
 785              	.LBB106:
 228:Middlewares/Third_Party/FreeRTOS/Source/portable/GCC/ARM_CM4F/portmacro.h **** {
 229:Middlewares/Third_Party/FreeRTOS/Source/portable/GCC/ARM_CM4F/portmacro.h **** 	__asm volatile
 786              		.loc 2 229 2 view .LVU266
 787              		.syntax unified
 788              	@ 229 "Middlewares/Third_Party/FreeRTOS/Source/portable/GCC/ARM_CM4F/portmacro.h" 1
 789 0016 83F31188 			msr basepri, r3	
 790              	@ 0 "" 2
 791              	.LVL59:
 792              		.loc 2 229 2 is_stmt 0 view .LVU267
 793              		.thumb
 794              		.syntax unified
 795              	.LBE106:
 796              	.LBE105:
 515:Middlewares/Third_Party/FreeRTOS/Source/event_groups.c **** } /*lint !e818 EventGroupHandle_t is a typedef used in other functions to so can't be pointer to co
 797              		.loc 1 515 2 is_stmt 1 view .LVU268
 516:Middlewares/Third_Party/FreeRTOS/Source/event_groups.c **** /*-----------------------------------------------------------*/
 798              		.loc 1 516 1 is_stmt 0 view .LVU269
 799 001a 7047     		bx	lr
 800              		.cfi_endproc
ARM GAS  /tmp/cc0dnhIO.s 			page 34


 801              	.LFE10:
 803              		.section	.text.xEventGroupSetBits,"ax",%progbits
 804              		.align	1
 805              		.p2align 2,,3
 806              		.global	xEventGroupSetBits
 807              		.syntax unified
 808              		.thumb
 809              		.thumb_func
 811              	xEventGroupSetBits:
 812              	.LVL60:
 813              	.LFB11:
 520:Middlewares/Third_Party/FreeRTOS/Source/event_groups.c **** ListItem_t *pxListItem, *pxNext;
 814              		.loc 1 520 1 is_stmt 1 view -0
 815              		.cfi_startproc
 816              		@ args = 0, pretend = 0, frame = 0
 817              		@ frame_needed = 0, uses_anonymous_args = 0
 521:Middlewares/Third_Party/FreeRTOS/Source/event_groups.c **** ListItem_t const *pxListEnd;
 818              		.loc 1 521 1 view .LVU271
 522:Middlewares/Third_Party/FreeRTOS/Source/event_groups.c **** List_t const * pxList;
 819              		.loc 1 522 1 view .LVU272
 523:Middlewares/Third_Party/FreeRTOS/Source/event_groups.c **** EventBits_t uxBitsToClear = 0, uxBitsWaitedFor, uxControlBits;
 820              		.loc 1 523 1 view .LVU273
 524:Middlewares/Third_Party/FreeRTOS/Source/event_groups.c **** EventGroup_t *pxEventBits = xEventGroup;
 821              		.loc 1 524 1 view .LVU274
 525:Middlewares/Third_Party/FreeRTOS/Source/event_groups.c **** BaseType_t xMatchFound = pdFALSE;
 822              		.loc 1 525 1 view .LVU275
 526:Middlewares/Third_Party/FreeRTOS/Source/event_groups.c **** 
 823              		.loc 1 526 1 view .LVU276
 530:Middlewares/Third_Party/FreeRTOS/Source/event_groups.c **** 	configASSERT( ( uxBitsToSet & eventEVENT_BITS_CONTROL_BYTES ) == 0 );
 824              		.loc 1 530 2 view .LVU277
 825 0000 0028     		cmp	r0, #0
 826 0002 3ED0     		beq	.L82
 530:Middlewares/Third_Party/FreeRTOS/Source/event_groups.c **** 	configASSERT( ( uxBitsToSet & eventEVENT_BITS_CONTROL_BYTES ) == 0 );
 827              		.loc 1 530 29 discriminator 2 view .LVU278
 531:Middlewares/Third_Party/FreeRTOS/Source/event_groups.c **** 
 828              		.loc 1 531 2 discriminator 2 view .LVU279
 520:Middlewares/Third_Party/FreeRTOS/Source/event_groups.c **** ListItem_t *pxListItem, *pxNext;
 829              		.loc 1 520 1 is_stmt 0 discriminator 2 view .LVU280
 830 0004 2DE9F041 		push	{r4, r5, r6, r7, r8, lr}
 831              		.cfi_def_cfa_offset 24
 832              		.cfi_offset 4, -24
 833              		.cfi_offset 5, -20
 834              		.cfi_offset 6, -16
 835              		.cfi_offset 7, -12
 836              		.cfi_offset 8, -8
 837              		.cfi_offset 14, -4
 531:Middlewares/Third_Party/FreeRTOS/Source/event_groups.c **** 
 838              		.loc 1 531 2 discriminator 2 view .LVU281
 839 0008 11F07F46 		ands	r6, r1, #-16777216
 840 000c 8846     		mov	r8, r1
 841 000e 08D0     		beq	.L67
 531:Middlewares/Third_Party/FreeRTOS/Source/event_groups.c **** 
 842              		.loc 1 531 2 is_stmt 1 view .LVU282
 843              	.LBB117:
 844              	.LBI117:
 191:Middlewares/Third_Party/FreeRTOS/Source/portable/GCC/ARM_CM4F/portmacro.h **** {
 845              		.loc 2 191 30 view .LVU283
ARM GAS  /tmp/cc0dnhIO.s 			page 35


 846              	.LBB118:
 193:Middlewares/Third_Party/FreeRTOS/Source/portable/GCC/ARM_CM4F/portmacro.h **** 
 847              		.loc 2 193 1 view .LVU284
 195:Middlewares/Third_Party/FreeRTOS/Source/portable/GCC/ARM_CM4F/portmacro.h **** 	(
 848              		.loc 2 195 2 view .LVU285
 849              		.syntax unified
 850              	@ 195 "Middlewares/Third_Party/FreeRTOS/Source/portable/GCC/ARM_CM4F/portmacro.h" 1
 851 0010 4FF05003 			mov r3, #80												
 852 0014 83F31188 		msr basepri, r3											
 853 0018 BFF36F8F 		isb														
 854 001c BFF34F8F 		dsb														
 855              	
 856              	@ 0 "" 2
 857              	.LVL61:
 858              		.thumb
 859              		.syntax unified
 860              	.L68:
 195:Middlewares/Third_Party/FreeRTOS/Source/portable/GCC/ARM_CM4F/portmacro.h **** 	(
 861              		.loc 2 195 2 is_stmt 0 view .LVU286
 862              	.LBE118:
 863              	.LBE117:
 531:Middlewares/Third_Party/FreeRTOS/Source/event_groups.c **** 
 864              		.loc 1 531 2 is_stmt 1 discriminator 2 view .LVU287
 531:Middlewares/Third_Party/FreeRTOS/Source/event_groups.c **** 
 865              		.loc 1 531 2 discriminator 2 view .LVU288
 531:Middlewares/Third_Party/FreeRTOS/Source/event_groups.c **** 
 866              		.loc 1 531 2 discriminator 2 view .LVU289
 531:Middlewares/Third_Party/FreeRTOS/Source/event_groups.c **** 
 867              		.loc 1 531 2 discriminator 2 view .LVU290
 531:Middlewares/Third_Party/FreeRTOS/Source/event_groups.c **** 
 868              		.loc 1 531 2 discriminator 2 view .LVU291
 531:Middlewares/Third_Party/FreeRTOS/Source/event_groups.c **** 
 869              		.loc 1 531 2 discriminator 2 view .LVU292
 870 0020 FEE7     		b	.L68
 871              	.L67:
 872 0022 0546     		mov	r5, r0
 873              	.LVL62:
 874              	.LBB119:
 875              	.LBI119:
 519:Middlewares/Third_Party/FreeRTOS/Source/event_groups.c **** {
 876              		.loc 1 519 13 view .LVU293
 877              	.LBB120:
 531:Middlewares/Third_Party/FreeRTOS/Source/event_groups.c **** 
 878              		.loc 1 531 70 view .LVU294
 533:Middlewares/Third_Party/FreeRTOS/Source/event_groups.c **** 	pxListEnd = listGET_END_MARKER( pxList ); /*lint !e826 !e740 !e9087 The mini list structure is use
 879              		.loc 1 533 2 view .LVU295
 534:Middlewares/Third_Party/FreeRTOS/Source/event_groups.c **** 	vTaskSuspendAll();
 880              		.loc 1 534 2 view .LVU296
 535:Middlewares/Third_Party/FreeRTOS/Source/event_groups.c **** 	{
 881              		.loc 1 535 2 is_stmt 0 view .LVU297
 882 0024 FFF7FEFF 		bl	vTaskSuspendAll
 883              	.LVL63:
 542:Middlewares/Third_Party/FreeRTOS/Source/event_groups.c **** 
 884              		.loc 1 542 28 view .LVU298
 885 0028 2B68     		ldr	r3, [r5]
 539:Middlewares/Third_Party/FreeRTOS/Source/event_groups.c **** 
 886              		.loc 1 539 14 view .LVU299
ARM GAS  /tmp/cc0dnhIO.s 			page 36


 887 002a 2C69     		ldr	r4, [r5, #16]
 534:Middlewares/Third_Party/FreeRTOS/Source/event_groups.c **** 	vTaskSuspendAll();
 888              		.loc 1 534 12 view .LVU300
 889 002c 05F10C07 		add	r7, r5, #12
 890              	.LVL64:
 535:Middlewares/Third_Party/FreeRTOS/Source/event_groups.c **** 	{
 891              		.loc 1 535 2 is_stmt 1 view .LVU301
 537:Middlewares/Third_Party/FreeRTOS/Source/event_groups.c **** 
 892              		.loc 1 537 56 view .LVU302
 539:Middlewares/Third_Party/FreeRTOS/Source/event_groups.c **** 
 893              		.loc 1 539 3 view .LVU303
 542:Middlewares/Third_Party/FreeRTOS/Source/event_groups.c **** 
 894              		.loc 1 542 3 view .LVU304
 542:Middlewares/Third_Party/FreeRTOS/Source/event_groups.c **** 
 895              		.loc 1 542 28 is_stmt 0 view .LVU305
 896 0030 48EA0303 		orr	r3, r8, r3
 545:Middlewares/Third_Party/FreeRTOS/Source/event_groups.c **** 		{
 897              		.loc 1 545 8 view .LVU306
 898 0034 A742     		cmp	r7, r4
 542:Middlewares/Third_Party/FreeRTOS/Source/event_groups.c **** 
 899              		.loc 1 542 28 view .LVU307
 900 0036 2B60     		str	r3, [r5]
 545:Middlewares/Third_Party/FreeRTOS/Source/event_groups.c **** 		{
 901              		.loc 1 545 3 is_stmt 1 view .LVU308
 902              	.LVL65:
 545:Middlewares/Third_Party/FreeRTOS/Source/event_groups.c **** 		{
 903              		.loc 1 545 8 view .LVU309
 904 0038 0CD1     		bne	.L74
 545:Middlewares/Third_Party/FreeRTOS/Source/event_groups.c **** 		{
 905              		.loc 1 545 8 is_stmt 0 view .LVU310
 906 003a 1CE0     		b	.L69
 907              	.LVL66:
 908              	.L84:
 558:Middlewares/Third_Party/FreeRTOS/Source/event_groups.c **** 				{
 909              		.loc 1 558 7 view .LVU311
 910 003c 13EA0C0F 		tst	r3, ip
 911 0040 06D0     		beq	.L72
 912              	.L71:
 582:Middlewares/Third_Party/FreeRTOS/Source/event_groups.c **** 				}
 913              		.loc 1 582 6 is_stmt 1 view .LVU312
 580:Middlewares/Third_Party/FreeRTOS/Source/event_groups.c **** 				{
 914              		.loc 1 580 7 is_stmt 0 view .LVU313
 915 0042 D301     		lsls	r3, r2, #7
 582:Middlewares/Third_Party/FreeRTOS/Source/event_groups.c **** 				}
 916              		.loc 1 582 20 view .LVU314
 917 0044 48BF     		it	mi
 918 0046 46EA0C06 		orrmi	r6, r6, ip
 919              	.LVL67:
 586:Middlewares/Third_Party/FreeRTOS/Source/event_groups.c **** 				}
 920              		.loc 1 586 30 is_stmt 1 view .LVU315
 594:Middlewares/Third_Party/FreeRTOS/Source/event_groups.c **** 			}
 921              		.loc 1 594 5 view .LVU316
 922 004a FFF7FEFF 		bl	vTaskRemoveFromUnorderedEventList
 923              	.LVL68:
 605:Middlewares/Third_Party/FreeRTOS/Source/event_groups.c **** 	}
 924              		.loc 1 605 28 is_stmt 0 view .LVU317
 925 004e 2B68     		ldr	r3, [r5]
ARM GAS  /tmp/cc0dnhIO.s 			page 37


 926              	.L72:
 927              	.LVL69:
 545:Middlewares/Third_Party/FreeRTOS/Source/event_groups.c **** 		{
 928              		.loc 1 545 8 is_stmt 1 view .LVU318
 929 0050 A742     		cmp	r7, r4
 930 0052 0ED0     		beq	.L83
 931              	.LVL70:
 932              	.L74:
 547:Middlewares/Third_Party/FreeRTOS/Source/event_groups.c **** 			uxBitsWaitedFor = listGET_LIST_ITEM_VALUE( pxListItem );
 933              		.loc 1 547 4 view .LVU319
 558:Middlewares/Third_Party/FreeRTOS/Source/event_groups.c **** 				{
 934              		.loc 1 558 5 view .LVU320
 567:Middlewares/Third_Party/FreeRTOS/Source/event_groups.c **** 			{
 935              		.loc 1 567 9 view .LVU321
 580:Middlewares/Third_Party/FreeRTOS/Source/event_groups.c **** 				{
 936              		.loc 1 580 5 view .LVU322
 937 0054 2046     		mov	r0, r4
 594:Middlewares/Third_Party/FreeRTOS/Source/event_groups.c **** 			}
 938              		.loc 1 594 5 is_stmt 0 view .LVU323
 939 0056 43F00071 		orr	r1, r3, #33554432
 548:Middlewares/Third_Party/FreeRTOS/Source/event_groups.c **** 			xMatchFound = pdFALSE;
 940              		.loc 1 548 20 view .LVU324
 941 005a 0268     		ldr	r2, [r0]
 547:Middlewares/Third_Party/FreeRTOS/Source/event_groups.c **** 			uxBitsWaitedFor = listGET_LIST_ITEM_VALUE( pxListItem );
 942              		.loc 1 547 11 view .LVU325
 943 005c 6468     		ldr	r4, [r4, #4]
 944              	.LVL71:
 548:Middlewares/Third_Party/FreeRTOS/Source/event_groups.c **** 			xMatchFound = pdFALSE;
 945              		.loc 1 548 4 is_stmt 1 view .LVU326
 549:Middlewares/Third_Party/FreeRTOS/Source/event_groups.c **** 
 946              		.loc 1 549 4 view .LVU327
 552:Middlewares/Third_Party/FreeRTOS/Source/event_groups.c **** 			uxBitsWaitedFor &= ~eventEVENT_BITS_CONTROL_BYTES;
 947              		.loc 1 552 4 view .LVU328
 553:Middlewares/Third_Party/FreeRTOS/Source/event_groups.c **** 
 948              		.loc 1 553 4 view .LVU329
 555:Middlewares/Third_Party/FreeRTOS/Source/event_groups.c **** 			{
 949              		.loc 1 555 6 is_stmt 0 view .LVU330
 950 005e 12F0806F 		tst	r2, #67108864
 553:Middlewares/Third_Party/FreeRTOS/Source/event_groups.c **** 
 951              		.loc 1 553 20 view .LVU331
 952 0062 22F07F4C 		bic	ip, r2, #-16777216
 953              	.LVL72:
 555:Middlewares/Third_Party/FreeRTOS/Source/event_groups.c **** 			{
 954              		.loc 1 555 4 is_stmt 1 view .LVU332
 555:Middlewares/Third_Party/FreeRTOS/Source/event_groups.c **** 			{
 955              		.loc 1 555 6 is_stmt 0 view .LVU333
 956 0066 E9D0     		beq	.L84
 567:Middlewares/Third_Party/FreeRTOS/Source/event_groups.c **** 			{
 957              		.loc 1 567 11 view .LVU334
 958 0068 3CEA030E 		bics	lr, ip, r3
 959 006c E9D0     		beq	.L71
 960              	.LVL73:
 545:Middlewares/Third_Party/FreeRTOS/Source/event_groups.c **** 		{
 961              		.loc 1 545 8 is_stmt 1 view .LVU335
 962 006e A742     		cmp	r7, r4
 963 0070 F0D1     		bne	.L74
 964              	.LVL74:
ARM GAS  /tmp/cc0dnhIO.s 			page 38


 965              	.L83:
 605:Middlewares/Third_Party/FreeRTOS/Source/event_groups.c **** 	}
 966              		.loc 1 605 28 is_stmt 0 view .LVU336
 967 0072 23EA0603 		bic	r3, r3, r6
 968              	.LVL75:
 969              	.L69:
 605:Middlewares/Third_Party/FreeRTOS/Source/event_groups.c **** 	}
 970              		.loc 1 605 3 is_stmt 1 view .LVU337
 605:Middlewares/Third_Party/FreeRTOS/Source/event_groups.c **** 	}
 971              		.loc 1 605 28 is_stmt 0 view .LVU338
 972 0076 2B60     		str	r3, [r5]
 607:Middlewares/Third_Party/FreeRTOS/Source/event_groups.c **** 
 973              		.loc 1 607 2 is_stmt 1 view .LVU339
 607:Middlewares/Third_Party/FreeRTOS/Source/event_groups.c **** 
 974              		.loc 1 607 11 is_stmt 0 view .LVU340
 975 0078 FFF7FEFF 		bl	xTaskResumeAll
 976              	.LVL76:
 609:Middlewares/Third_Party/FreeRTOS/Source/event_groups.c **** }
 977              		.loc 1 609 2 is_stmt 1 view .LVU341
 609:Middlewares/Third_Party/FreeRTOS/Source/event_groups.c **** }
 978              		.loc 1 609 2 is_stmt 0 view .LVU342
 979              	.LBE120:
 980              	.LBE119:
 610:Middlewares/Third_Party/FreeRTOS/Source/event_groups.c **** /*-----------------------------------------------------------*/
 981              		.loc 1 610 1 view .LVU343
 982 007c 2868     		ldr	r0, [r5]
 983 007e BDE8F081 		pop	{r4, r5, r6, r7, r8, pc}
 984              	.LVL77:
 985              	.L82:
 986              		.cfi_def_cfa_offset 0
 987              		.cfi_restore 4
 988              		.cfi_restore 5
 989              		.cfi_restore 6
 990              		.cfi_restore 7
 991              		.cfi_restore 8
 992              		.cfi_restore 14
 530:Middlewares/Third_Party/FreeRTOS/Source/event_groups.c **** 	configASSERT( ( uxBitsToSet & eventEVENT_BITS_CONTROL_BYTES ) == 0 );
 993              		.loc 1 530 2 is_stmt 1 view .LVU344
 994              	.LBB121:
 995              	.LBI121:
 191:Middlewares/Third_Party/FreeRTOS/Source/portable/GCC/ARM_CM4F/portmacro.h **** {
 996              		.loc 2 191 30 view .LVU345
 997              	.LBB122:
 193:Middlewares/Third_Party/FreeRTOS/Source/portable/GCC/ARM_CM4F/portmacro.h **** 
 998              		.loc 2 193 1 view .LVU346
 195:Middlewares/Third_Party/FreeRTOS/Source/portable/GCC/ARM_CM4F/portmacro.h **** 	(
 999              		.loc 2 195 2 view .LVU347
 1000              		.syntax unified
 1001              	@ 195 "Middlewares/Third_Party/FreeRTOS/Source/portable/GCC/ARM_CM4F/portmacro.h" 1
 1002 0082 4FF05003 			mov r3, #80												
 1003 0086 83F31188 		msr basepri, r3											
 1004 008a BFF36F8F 		isb														
 1005 008e BFF34F8F 		dsb														
 1006              	
 1007              	@ 0 "" 2
 1008              	.LVL78:
 1009              		.thumb
ARM GAS  /tmp/cc0dnhIO.s 			page 39


 1010              		.syntax unified
 1011              	.L66:
 195:Middlewares/Third_Party/FreeRTOS/Source/portable/GCC/ARM_CM4F/portmacro.h **** 	(
 1012              		.loc 2 195 2 is_stmt 0 view .LVU348
 1013              	.LBE122:
 1014              	.LBE121:
 530:Middlewares/Third_Party/FreeRTOS/Source/event_groups.c **** 	configASSERT( ( uxBitsToSet & eventEVENT_BITS_CONTROL_BYTES ) == 0 );
 1015              		.loc 1 530 2 is_stmt 1 discriminator 1 view .LVU349
 530:Middlewares/Third_Party/FreeRTOS/Source/event_groups.c **** 	configASSERT( ( uxBitsToSet & eventEVENT_BITS_CONTROL_BYTES ) == 0 );
 1016              		.loc 1 530 2 discriminator 1 view .LVU350
 530:Middlewares/Third_Party/FreeRTOS/Source/event_groups.c **** 	configASSERT( ( uxBitsToSet & eventEVENT_BITS_CONTROL_BYTES ) == 0 );
 1017              		.loc 1 530 2 discriminator 1 view .LVU351
 530:Middlewares/Third_Party/FreeRTOS/Source/event_groups.c **** 	configASSERT( ( uxBitsToSet & eventEVENT_BITS_CONTROL_BYTES ) == 0 );
 1018              		.loc 1 530 2 discriminator 1 view .LVU352
 530:Middlewares/Third_Party/FreeRTOS/Source/event_groups.c **** 	configASSERT( ( uxBitsToSet & eventEVENT_BITS_CONTROL_BYTES ) == 0 );
 1019              		.loc 1 530 2 discriminator 1 view .LVU353
 530:Middlewares/Third_Party/FreeRTOS/Source/event_groups.c **** 	configASSERT( ( uxBitsToSet & eventEVENT_BITS_CONTROL_BYTES ) == 0 );
 1020              		.loc 1 530 2 discriminator 1 view .LVU354
 1021 0092 FEE7     		b	.L66
 1022              		.cfi_endproc
 1023              	.LFE11:
 1025              		.section	.text.xEventGroupSync,"ax",%progbits
 1026              		.align	1
 1027              		.p2align 2,,3
 1028              		.global	xEventGroupSync
 1029              		.syntax unified
 1030              		.thumb
 1031              		.thumb_func
 1033              	xEventGroupSync:
 1034              	.LVL79:
 1035              	.LFB7:
 192:Middlewares/Third_Party/FreeRTOS/Source/event_groups.c **** EventBits_t uxOriginalBitValue, uxReturn;
 1036              		.loc 1 192 1 view -0
 1037              		.cfi_startproc
 1038              		@ args = 0, pretend = 0, frame = 0
 1039              		@ frame_needed = 0, uses_anonymous_args = 0
 193:Middlewares/Third_Party/FreeRTOS/Source/event_groups.c **** EventGroup_t *pxEventBits = xEventGroup;
 1040              		.loc 1 193 1 view .LVU356
 194:Middlewares/Third_Party/FreeRTOS/Source/event_groups.c **** BaseType_t xAlreadyYielded;
 1041              		.loc 1 194 1 view .LVU357
 195:Middlewares/Third_Party/FreeRTOS/Source/event_groups.c **** BaseType_t xTimeoutOccurred = pdFALSE;
 1042              		.loc 1 195 1 view .LVU358
 196:Middlewares/Third_Party/FreeRTOS/Source/event_groups.c **** 
 1043              		.loc 1 196 1 view .LVU359
 198:Middlewares/Third_Party/FreeRTOS/Source/event_groups.c **** 	configASSERT( uxBitsToWaitFor != 0 );
 1044              		.loc 1 198 2 view .LVU360
 1045 0000 12F07F4F 		tst	r2, #-16777216
 1046 0004 08D0     		beq	.L86
 198:Middlewares/Third_Party/FreeRTOS/Source/event_groups.c **** 	configASSERT( uxBitsToWaitFor != 0 );
 1047              		.loc 1 198 2 view .LVU361
 1048              	.LBB123:
 1049              	.LBI123:
 191:Middlewares/Third_Party/FreeRTOS/Source/portable/GCC/ARM_CM4F/portmacro.h **** {
 1050              		.loc 2 191 30 view .LVU362
 1051              	.LBB124:
 193:Middlewares/Third_Party/FreeRTOS/Source/portable/GCC/ARM_CM4F/portmacro.h **** 
 1052              		.loc 2 193 1 view .LVU363
ARM GAS  /tmp/cc0dnhIO.s 			page 40


 195:Middlewares/Third_Party/FreeRTOS/Source/portable/GCC/ARM_CM4F/portmacro.h **** 	(
 1053              		.loc 2 195 2 view .LVU364
 1054              		.syntax unified
 1055              	@ 195 "Middlewares/Third_Party/FreeRTOS/Source/portable/GCC/ARM_CM4F/portmacro.h" 1
 1056 0006 4FF05003 			mov r3, #80												
 1057 000a 83F31188 		msr basepri, r3											
 1058 000e BFF36F8F 		isb														
 1059 0012 BFF34F8F 		dsb														
 1060              	
 1061              	@ 0 "" 2
 1062              	.LVL80:
 1063              		.thumb
 1064              		.syntax unified
 1065              	.L87:
 195:Middlewares/Third_Party/FreeRTOS/Source/portable/GCC/ARM_CM4F/portmacro.h **** 	(
 1066              		.loc 2 195 2 is_stmt 0 view .LVU365
 1067              	.LBE124:
 1068              	.LBE123:
 198:Middlewares/Third_Party/FreeRTOS/Source/event_groups.c **** 	configASSERT( uxBitsToWaitFor != 0 );
 1069              		.loc 1 198 2 is_stmt 1 discriminator 1 view .LVU366
 198:Middlewares/Third_Party/FreeRTOS/Source/event_groups.c **** 	configASSERT( uxBitsToWaitFor != 0 );
 1070              		.loc 1 198 2 discriminator 1 view .LVU367
 198:Middlewares/Third_Party/FreeRTOS/Source/event_groups.c **** 	configASSERT( uxBitsToWaitFor != 0 );
 1071              		.loc 1 198 2 discriminator 1 view .LVU368
 198:Middlewares/Third_Party/FreeRTOS/Source/event_groups.c **** 	configASSERT( uxBitsToWaitFor != 0 );
 1072              		.loc 1 198 2 discriminator 1 view .LVU369
 198:Middlewares/Third_Party/FreeRTOS/Source/event_groups.c **** 	configASSERT( uxBitsToWaitFor != 0 );
 1073              		.loc 1 198 2 discriminator 1 view .LVU370
 198:Middlewares/Third_Party/FreeRTOS/Source/event_groups.c **** 	configASSERT( uxBitsToWaitFor != 0 );
 1074              		.loc 1 198 2 discriminator 1 view .LVU371
 1075 0016 FEE7     		b	.L87
 1076              	.LVL81:
 1077              	.L86:
 198:Middlewares/Third_Party/FreeRTOS/Source/event_groups.c **** 	configASSERT( uxBitsToWaitFor != 0 );
 1078              		.loc 1 198 74 discriminator 2 view .LVU372
 199:Middlewares/Third_Party/FreeRTOS/Source/event_groups.c **** 	#if ( ( INCLUDE_xTaskGetSchedulerState == 1 ) || ( configUSE_TIMERS == 1 ) )
 1079              		.loc 1 199 2 discriminator 2 view .LVU373
 192:Middlewares/Third_Party/FreeRTOS/Source/event_groups.c **** EventBits_t uxOriginalBitValue, uxReturn;
 1080              		.loc 1 192 1 is_stmt 0 discriminator 2 view .LVU374
 1081 0018 2DE9F041 		push	{r4, r5, r6, r7, r8, lr}
 1082              		.cfi_def_cfa_offset 24
 1083              		.cfi_offset 4, -24
 1084              		.cfi_offset 5, -20
 1085              		.cfi_offset 6, -16
 1086              		.cfi_offset 7, -12
 1087              		.cfi_offset 8, -8
 1088              		.cfi_offset 14, -4
 1089 001c 1446     		mov	r4, r2
 199:Middlewares/Third_Party/FreeRTOS/Source/event_groups.c **** 	#if ( ( INCLUDE_xTaskGetSchedulerState == 1 ) || ( configUSE_TIMERS == 1 ) )
 1090              		.loc 1 199 2 discriminator 2 view .LVU375
 1091 001e 42B9     		cbnz	r2, .L88
 199:Middlewares/Third_Party/FreeRTOS/Source/event_groups.c **** 	#if ( ( INCLUDE_xTaskGetSchedulerState == 1 ) || ( configUSE_TIMERS == 1 ) )
 1092              		.loc 1 199 2 is_stmt 1 view .LVU376
 1093              	.LBB125:
 1094              	.LBI125:
 191:Middlewares/Third_Party/FreeRTOS/Source/portable/GCC/ARM_CM4F/portmacro.h **** {
 1095              		.loc 2 191 30 view .LVU377
ARM GAS  /tmp/cc0dnhIO.s 			page 41


 1096              	.LBB126:
 193:Middlewares/Third_Party/FreeRTOS/Source/portable/GCC/ARM_CM4F/portmacro.h **** 
 1097              		.loc 2 193 1 view .LVU378
 195:Middlewares/Third_Party/FreeRTOS/Source/portable/GCC/ARM_CM4F/portmacro.h **** 	(
 1098              		.loc 2 195 2 view .LVU379
 1099              		.syntax unified
 1100              	@ 195 "Middlewares/Third_Party/FreeRTOS/Source/portable/GCC/ARM_CM4F/portmacro.h" 1
 1101 0020 4FF05003 			mov r3, #80												
 1102 0024 83F31188 		msr basepri, r3											
 1103 0028 BFF36F8F 		isb														
 1104 002c BFF34F8F 		dsb														
 1105              	
 1106              	@ 0 "" 2
 1107              	.LVL82:
 1108              		.thumb
 1109              		.syntax unified
 1110              	.L89:
 195:Middlewares/Third_Party/FreeRTOS/Source/portable/GCC/ARM_CM4F/portmacro.h **** 	(
 1111              		.loc 2 195 2 is_stmt 0 view .LVU380
 1112              	.LBE126:
 1113              	.LBE125:
 199:Middlewares/Third_Party/FreeRTOS/Source/event_groups.c **** 	#if ( ( INCLUDE_xTaskGetSchedulerState == 1 ) || ( configUSE_TIMERS == 1 ) )
 1114              		.loc 1 199 2 is_stmt 1 discriminator 2 view .LVU381
 199:Middlewares/Third_Party/FreeRTOS/Source/event_groups.c **** 	#if ( ( INCLUDE_xTaskGetSchedulerState == 1 ) || ( configUSE_TIMERS == 1 ) )
 1115              		.loc 1 199 2 discriminator 2 view .LVU382
 199:Middlewares/Third_Party/FreeRTOS/Source/event_groups.c **** 	#if ( ( INCLUDE_xTaskGetSchedulerState == 1 ) || ( configUSE_TIMERS == 1 ) )
 1116              		.loc 1 199 2 discriminator 2 view .LVU383
 199:Middlewares/Third_Party/FreeRTOS/Source/event_groups.c **** 	#if ( ( INCLUDE_xTaskGetSchedulerState == 1 ) || ( configUSE_TIMERS == 1 ) )
 1117              		.loc 1 199 2 discriminator 2 view .LVU384
 199:Middlewares/Third_Party/FreeRTOS/Source/event_groups.c **** 	#if ( ( INCLUDE_xTaskGetSchedulerState == 1 ) || ( configUSE_TIMERS == 1 ) )
 1118              		.loc 1 199 2 discriminator 2 view .LVU385
 199:Middlewares/Third_Party/FreeRTOS/Source/event_groups.c **** 	#if ( ( INCLUDE_xTaskGetSchedulerState == 1 ) || ( configUSE_TIMERS == 1 ) )
 1119              		.loc 1 199 2 discriminator 2 view .LVU386
 1120 0030 FEE7     		b	.L89
 1121              	.LVL83:
 1122              	.L88:
 199:Middlewares/Third_Party/FreeRTOS/Source/event_groups.c **** 	#if ( ( INCLUDE_xTaskGetSchedulerState == 1 ) || ( configUSE_TIMERS == 1 ) )
 1123              		.loc 1 199 38 discriminator 2 view .LVU387
 202:Middlewares/Third_Party/FreeRTOS/Source/event_groups.c **** 	}
 1124              		.loc 1 202 3 discriminator 2 view .LVU388
 1125 0032 0746     		mov	r7, r0
 1126 0034 0E46     		mov	r6, r1
 1127 0036 1D46     		mov	r5, r3
 1128 0038 FFF7FEFF 		bl	xTaskGetSchedulerState
 1129              	.LVL84:
 202:Middlewares/Third_Party/FreeRTOS/Source/event_groups.c **** 	}
 1130              		.loc 1 202 3 is_stmt 0 discriminator 2 view .LVU389
 1131 003c E0B9     		cbnz	r0, .L90
 202:Middlewares/Third_Party/FreeRTOS/Source/event_groups.c **** 	}
 1132              		.loc 1 202 3 discriminator 2 view .LVU390
 1133 003e 45B1     		cbz	r5, .L91
 202:Middlewares/Third_Party/FreeRTOS/Source/event_groups.c **** 	}
 1134              		.loc 1 202 3 is_stmt 1 view .LVU391
 1135              	.LBB127:
 1136              	.LBI127:
 191:Middlewares/Third_Party/FreeRTOS/Source/portable/GCC/ARM_CM4F/portmacro.h **** {
 1137              		.loc 2 191 30 view .LVU392
ARM GAS  /tmp/cc0dnhIO.s 			page 42


 1138              	.LBB128:
 193:Middlewares/Third_Party/FreeRTOS/Source/portable/GCC/ARM_CM4F/portmacro.h **** 
 1139              		.loc 2 193 1 view .LVU393
 195:Middlewares/Third_Party/FreeRTOS/Source/portable/GCC/ARM_CM4F/portmacro.h **** 	(
 1140              		.loc 2 195 2 view .LVU394
 1141              		.syntax unified
 1142              	@ 195 "Middlewares/Third_Party/FreeRTOS/Source/portable/GCC/ARM_CM4F/portmacro.h" 1
 1143 0040 4FF05003 			mov r3, #80												
 1144 0044 83F31188 		msr basepri, r3											
 1145 0048 BFF36F8F 		isb														
 1146 004c BFF34F8F 		dsb														
 1147              	
 1148              	@ 0 "" 2
 1149              	.LVL85:
 1150              		.thumb
 1151              		.syntax unified
 1152              	.L92:
 195:Middlewares/Third_Party/FreeRTOS/Source/portable/GCC/ARM_CM4F/portmacro.h **** 	(
 1153              		.loc 2 195 2 is_stmt 0 view .LVU395
 1154              	.LBE128:
 1155              	.LBE127:
 202:Middlewares/Third_Party/FreeRTOS/Source/event_groups.c **** 	}
 1156              		.loc 1 202 3 is_stmt 1 discriminator 3 view .LVU396
 202:Middlewares/Third_Party/FreeRTOS/Source/event_groups.c **** 	}
 1157              		.loc 1 202 3 discriminator 3 view .LVU397
 202:Middlewares/Third_Party/FreeRTOS/Source/event_groups.c **** 	}
 1158              		.loc 1 202 3 discriminator 3 view .LVU398
 202:Middlewares/Third_Party/FreeRTOS/Source/event_groups.c **** 	}
 1159              		.loc 1 202 3 discriminator 3 view .LVU399
 202:Middlewares/Third_Party/FreeRTOS/Source/event_groups.c **** 	}
 1160              		.loc 1 202 3 discriminator 3 view .LVU400
 202:Middlewares/Third_Party/FreeRTOS/Source/event_groups.c **** 	}
 1161              		.loc 1 202 3 discriminator 3 view .LVU401
 1162 0050 FEE7     		b	.L92
 1163              	.L91:
 202:Middlewares/Third_Party/FreeRTOS/Source/event_groups.c **** 	}
 1164              		.loc 1 202 104 view .LVU402
 206:Middlewares/Third_Party/FreeRTOS/Source/event_groups.c **** 	{
 1165              		.loc 1 206 2 view .LVU403
 1166 0052 FFF7FEFF 		bl	vTaskSuspendAll
 1167              	.LVL86:
 208:Middlewares/Third_Party/FreeRTOS/Source/event_groups.c **** 
 1168              		.loc 1 208 3 view .LVU404
 208:Middlewares/Third_Party/FreeRTOS/Source/event_groups.c **** 
 1169              		.loc 1 208 22 is_stmt 0 view .LVU405
 1170 0056 3B68     		ldr	r3, [r7]
 1171              	.LVL87:
 210:Middlewares/Third_Party/FreeRTOS/Source/event_groups.c **** 
 1172              		.loc 1 210 3 is_stmt 1 view .LVU406
 210:Middlewares/Third_Party/FreeRTOS/Source/event_groups.c **** 
 1173              		.loc 1 210 12 is_stmt 0 view .LVU407
 1174 0058 3146     		mov	r1, r6
 212:Middlewares/Third_Party/FreeRTOS/Source/event_groups.c **** 		{
 1175              		.loc 1 212 30 view .LVU408
 1176 005a 46EA0308 		orr	r8, r6, r3
 210:Middlewares/Third_Party/FreeRTOS/Source/event_groups.c **** 
 1177              		.loc 1 210 12 view .LVU409
ARM GAS  /tmp/cc0dnhIO.s 			page 43


 1178 005e 3846     		mov	r0, r7
 1179 0060 FFF7FEFF 		bl	xEventGroupSetBits
 1180              	.LVL88:
 212:Middlewares/Third_Party/FreeRTOS/Source/event_groups.c **** 		{
 1181              		.loc 1 212 3 is_stmt 1 view .LVU410
 212:Middlewares/Third_Party/FreeRTOS/Source/event_groups.c **** 		{
 1182              		.loc 1 212 5 is_stmt 0 view .LVU411
 1183 0064 34EA0803 		bics	r3, r4, r8
 1184 0068 2FD0     		beq	.L100
 1185              	.L95:
 244:Middlewares/Third_Party/FreeRTOS/Source/event_groups.c **** 				xTimeoutOccurred = pdTRUE;
 1186              		.loc 1 244 5 is_stmt 1 view .LVU412
 244:Middlewares/Third_Party/FreeRTOS/Source/event_groups.c **** 				xTimeoutOccurred = pdTRUE;
 1187              		.loc 1 244 14 is_stmt 0 view .LVU413
 1188 006a D7F80080 		ldr	r8, [r7]
 1189              	.LVL89:
 245:Middlewares/Third_Party/FreeRTOS/Source/event_groups.c **** 			}
 1190              		.loc 1 245 5 is_stmt 1 view .LVU414
 249:Middlewares/Third_Party/FreeRTOS/Source/event_groups.c **** 
 1191              		.loc 1 249 2 view .LVU415
 249:Middlewares/Third_Party/FreeRTOS/Source/event_groups.c **** 
 1192              		.loc 1 249 20 is_stmt 0 view .LVU416
 1193 006e FFF7FEFF 		bl	xTaskResumeAll
 1194              	.LVL90:
 251:Middlewares/Third_Party/FreeRTOS/Source/event_groups.c **** 	{
 1195              		.loc 1 251 2 is_stmt 1 view .LVU417
 1196              	.L85:
 308:Middlewares/Third_Party/FreeRTOS/Source/event_groups.c **** /*-----------------------------------------------------------*/
 1197              		.loc 1 308 1 is_stmt 0 view .LVU418
 1198 0072 4046     		mov	r0, r8
 1199 0074 BDE8F081 		pop	{r4, r5, r6, r7, r8, pc}
 1200              	.LVL91:
 1201              	.L90:
 202:Middlewares/Third_Party/FreeRTOS/Source/event_groups.c **** 	}
 1202              		.loc 1 202 104 is_stmt 1 discriminator 8 view .LVU419
 206:Middlewares/Third_Party/FreeRTOS/Source/event_groups.c **** 	{
 1203              		.loc 1 206 2 discriminator 8 view .LVU420
 1204 0078 FFF7FEFF 		bl	vTaskSuspendAll
 1205              	.LVL92:
 208:Middlewares/Third_Party/FreeRTOS/Source/event_groups.c **** 
 1206              		.loc 1 208 3 discriminator 8 view .LVU421
 208:Middlewares/Third_Party/FreeRTOS/Source/event_groups.c **** 
 1207              		.loc 1 208 22 is_stmt 0 discriminator 8 view .LVU422
 1208 007c 3B68     		ldr	r3, [r7]
 1209              	.LVL93:
 210:Middlewares/Third_Party/FreeRTOS/Source/event_groups.c **** 
 1210              		.loc 1 210 3 is_stmt 1 discriminator 8 view .LVU423
 210:Middlewares/Third_Party/FreeRTOS/Source/event_groups.c **** 
 1211              		.loc 1 210 12 is_stmt 0 discriminator 8 view .LVU424
 1212 007e 3146     		mov	r1, r6
 212:Middlewares/Third_Party/FreeRTOS/Source/event_groups.c **** 		{
 1213              		.loc 1 212 30 discriminator 8 view .LVU425
 1214 0080 43EA0608 		orr	r8, r3, r6
 210:Middlewares/Third_Party/FreeRTOS/Source/event_groups.c **** 
 1215              		.loc 1 210 12 discriminator 8 view .LVU426
 1216 0084 3846     		mov	r0, r7
 1217 0086 FFF7FEFF 		bl	xEventGroupSetBits
ARM GAS  /tmp/cc0dnhIO.s 			page 44


 1218              	.LVL94:
 212:Middlewares/Third_Party/FreeRTOS/Source/event_groups.c **** 		{
 1219              		.loc 1 212 3 is_stmt 1 discriminator 8 view .LVU427
 212:Middlewares/Third_Party/FreeRTOS/Source/event_groups.c **** 		{
 1220              		.loc 1 212 5 is_stmt 0 discriminator 8 view .LVU428
 1221 008a 34EA0803 		bics	r3, r4, r8
 1222 008e 1CD0     		beq	.L100
 225:Middlewares/Third_Party/FreeRTOS/Source/event_groups.c **** 			{
 1223              		.loc 1 225 4 is_stmt 1 view .LVU429
 225:Middlewares/Third_Party/FreeRTOS/Source/event_groups.c **** 			{
 1224              		.loc 1 225 6 is_stmt 0 view .LVU430
 1225 0090 002D     		cmp	r5, #0
 1226 0092 EAD0     		beq	.L95
 227:Middlewares/Third_Party/FreeRTOS/Source/event_groups.c **** 
 1227              		.loc 1 227 77 is_stmt 1 view .LVU431
 232:Middlewares/Third_Party/FreeRTOS/Source/event_groups.c **** 
 1228              		.loc 1 232 5 view .LVU432
 1229 0094 2A46     		mov	r2, r5
 1230 0096 44F0A061 		orr	r1, r4, #83886080
 1231 009a 381D     		adds	r0, r7, #4
 1232 009c FFF7FEFF 		bl	vTaskPlaceOnUnorderedEventList
 1233              	.LVL95:
 238:Middlewares/Third_Party/FreeRTOS/Source/event_groups.c **** 			}
 1234              		.loc 1 238 5 view .LVU433
 249:Middlewares/Third_Party/FreeRTOS/Source/event_groups.c **** 
 1235              		.loc 1 249 2 view .LVU434
 249:Middlewares/Third_Party/FreeRTOS/Source/event_groups.c **** 
 1236              		.loc 1 249 20 is_stmt 0 view .LVU435
 1237 00a0 FFF7FEFF 		bl	xTaskResumeAll
 1238              	.LVL96:
 251:Middlewares/Third_Party/FreeRTOS/Source/event_groups.c **** 	{
 1239              		.loc 1 251 2 is_stmt 1 view .LVU436
 253:Middlewares/Third_Party/FreeRTOS/Source/event_groups.c **** 		{
 1240              		.loc 1 253 3 view .LVU437
 253:Middlewares/Third_Party/FreeRTOS/Source/event_groups.c **** 		{
 1241              		.loc 1 253 5 is_stmt 0 view .LVU438
 1242 00a4 48B9     		cbnz	r0, .L97
 255:Middlewares/Third_Party/FreeRTOS/Source/event_groups.c **** 		}
 1243              		.loc 1 255 4 is_stmt 1 view .LVU439
 1244 00a6 4FF0E023 		mov	r3, #-536813568
 1245 00aa 4FF08052 		mov	r2, #268435456
 1246 00ae C3F8042D 		str	r2, [r3, #3332]
 255:Middlewares/Third_Party/FreeRTOS/Source/event_groups.c **** 		}
 1247              		.loc 1 255 4 view .LVU440
 1248              		.syntax unified
 1249              	@ 255 "Middlewares/Third_Party/FreeRTOS/Source/event_groups.c" 1
 1250 00b2 BFF34F8F 		dsb
 1251              	@ 0 "" 2
 255:Middlewares/Third_Party/FreeRTOS/Source/event_groups.c **** 		}
 1252              		.loc 1 255 4 view .LVU441
 1253              	@ 255 "Middlewares/Third_Party/FreeRTOS/Source/event_groups.c" 1
 1254 00b6 BFF36F8F 		isb
 1255              	@ 0 "" 2
 255:Middlewares/Third_Party/FreeRTOS/Source/event_groups.c **** 		}
 1256              		.loc 1 255 26 view .LVU442
 1257              		.thumb
 1258              		.syntax unified
ARM GAS  /tmp/cc0dnhIO.s 			page 45


 1259              	.L97:
 259:Middlewares/Third_Party/FreeRTOS/Source/event_groups.c **** 		}
 1260              		.loc 1 259 28 view .LVU443
 266:Middlewares/Third_Party/FreeRTOS/Source/event_groups.c **** 
 1261              		.loc 1 266 3 view .LVU444
 266:Middlewares/Third_Party/FreeRTOS/Source/event_groups.c **** 
 1262              		.loc 1 266 14 is_stmt 0 view .LVU445
 1263 00ba FFF7FEFF 		bl	uxTaskResetEventItemValue
 1264              	.LVL97:
 268:Middlewares/Third_Party/FreeRTOS/Source/event_groups.c **** 		{
 1265              		.loc 1 268 5 view .LVU446
 1266 00be 8301     		lsls	r3, r0, #6
 266:Middlewares/Third_Party/FreeRTOS/Source/event_groups.c **** 
 1267              		.loc 1 266 14 view .LVU447
 1268 00c0 0546     		mov	r5, r0
 1269              	.LVL98:
 268:Middlewares/Third_Party/FreeRTOS/Source/event_groups.c **** 		{
 1270              		.loc 1 268 3 is_stmt 1 view .LVU448
 268:Middlewares/Third_Party/FreeRTOS/Source/event_groups.c **** 		{
 1271              		.loc 1 268 5 is_stmt 0 view .LVU449
 1272 00c2 09D5     		bpl	.L106
 1273              	.LVL99:
 1274              	.L98:
 295:Middlewares/Third_Party/FreeRTOS/Source/event_groups.c **** 
 1275              		.loc 1 295 3 is_stmt 1 view .LVU450
 299:Middlewares/Third_Party/FreeRTOS/Source/event_groups.c **** 	}
 1276              		.loc 1 299 3 view .LVU451
 299:Middlewares/Third_Party/FreeRTOS/Source/event_groups.c **** 	}
 1277              		.loc 1 299 12 is_stmt 0 view .LVU452
 1278 00c4 25F07F48 		bic	r8, r5, #-16777216
 1279              	.LVL100:
 302:Middlewares/Third_Party/FreeRTOS/Source/event_groups.c **** 
 1280              		.loc 1 302 2 is_stmt 1 view .LVU453
 305:Middlewares/Third_Party/FreeRTOS/Source/event_groups.c **** 
 1281              		.loc 1 305 2 view .LVU454
 307:Middlewares/Third_Party/FreeRTOS/Source/event_groups.c **** }
 1282              		.loc 1 307 2 view .LVU455
 307:Middlewares/Third_Party/FreeRTOS/Source/event_groups.c **** }
 1283              		.loc 1 307 9 is_stmt 0 view .LVU456
 1284 00c8 D3E7     		b	.L85
 1285              	.LVL101:
 1286              	.L100:
 215:Middlewares/Third_Party/FreeRTOS/Source/event_groups.c **** 
 1287              		.loc 1 215 4 is_stmt 1 view .LVU457
 219:Middlewares/Third_Party/FreeRTOS/Source/event_groups.c **** 
 1288              		.loc 1 219 4 view .LVU458
 219:Middlewares/Third_Party/FreeRTOS/Source/event_groups.c **** 
 1289              		.loc 1 219 29 is_stmt 0 view .LVU459
 1290 00ca 3B68     		ldr	r3, [r7]
 1291 00cc 23EA0403 		bic	r3, r3, r4
 1292 00d0 3B60     		str	r3, [r7]
 221:Middlewares/Third_Party/FreeRTOS/Source/event_groups.c **** 		}
 1293              		.loc 1 221 4 is_stmt 1 view .LVU460
 1294              	.LVL102:
 249:Middlewares/Third_Party/FreeRTOS/Source/event_groups.c **** 
 1295              		.loc 1 249 2 view .LVU461
 249:Middlewares/Third_Party/FreeRTOS/Source/event_groups.c **** 
ARM GAS  /tmp/cc0dnhIO.s 			page 46


 1296              		.loc 1 249 20 is_stmt 0 view .LVU462
 1297 00d2 FFF7FEFF 		bl	xTaskResumeAll
 1298              	.LVL103:
 251:Middlewares/Third_Party/FreeRTOS/Source/event_groups.c **** 	{
 1299              		.loc 1 251 2 is_stmt 1 view .LVU463
 1300 00d6 CCE7     		b	.L85
 1301              	.LVL104:
 1302              	.L106:
 271:Middlewares/Third_Party/FreeRTOS/Source/event_groups.c **** 			{
 1303              		.loc 1 271 4 view .LVU464
 1304 00d8 FFF7FEFF 		bl	vPortEnterCritical
 1305              	.LVL105:
 273:Middlewares/Third_Party/FreeRTOS/Source/event_groups.c **** 
 1306              		.loc 1 273 5 view .LVU465
 273:Middlewares/Third_Party/FreeRTOS/Source/event_groups.c **** 
 1307              		.loc 1 273 14 is_stmt 0 view .LVU466
 1308 00dc 3D68     		ldr	r5, [r7]
 1309              	.LVL106:
 279:Middlewares/Third_Party/FreeRTOS/Source/event_groups.c **** 				{
 1310              		.loc 1 279 5 is_stmt 1 view .LVU467
 281:Middlewares/Third_Party/FreeRTOS/Source/event_groups.c **** 				}
 1311              		.loc 1 281 6 view .LVU468
 279:Middlewares/Third_Party/FreeRTOS/Source/event_groups.c **** 				{
 1312              		.loc 1 279 7 is_stmt 0 view .LVU469
 1313 00de 34EA0503 		bics	r3, r4, r5
 281:Middlewares/Third_Party/FreeRTOS/Source/event_groups.c **** 				}
 1314              		.loc 1 281 31 view .LVU470
 1315 00e2 04BF     		itt	eq
 1316 00e4 25EA0404 		biceq	r4, r5, r4
 1317              	.LVL107:
 281:Middlewares/Third_Party/FreeRTOS/Source/event_groups.c **** 				}
 1318              		.loc 1 281 31 view .LVU471
 1319 00e8 3C60     		streq	r4, [r7]
 285:Middlewares/Third_Party/FreeRTOS/Source/event_groups.c **** 				}
 1320              		.loc 1 285 30 is_stmt 1 view .LVU472
 288:Middlewares/Third_Party/FreeRTOS/Source/event_groups.c **** 
 1321              		.loc 1 288 4 view .LVU473
 1322 00ea FFF7FEFF 		bl	vPortExitCritical
 1323              	.LVL108:
 290:Middlewares/Third_Party/FreeRTOS/Source/event_groups.c **** 		}
 1324              		.loc 1 290 4 view .LVU474
 290:Middlewares/Third_Party/FreeRTOS/Source/event_groups.c **** 		}
 1325              		.loc 1 290 4 is_stmt 0 view .LVU475
 1326 00ee E9E7     		b	.L98
 1327              		.cfi_endproc
 1328              	.LFE7:
 1330              		.section	.text.vEventGroupDelete,"ax",%progbits
 1331              		.align	1
 1332              		.p2align 2,,3
 1333              		.global	vEventGroupDelete
 1334              		.syntax unified
 1335              		.thumb
 1336              		.thumb_func
 1338              	vEventGroupDelete:
 1339              	.LVL109:
 1340              	.LFB12:
 614:Middlewares/Third_Party/FreeRTOS/Source/event_groups.c **** EventGroup_t *pxEventBits = xEventGroup;
ARM GAS  /tmp/cc0dnhIO.s 			page 47


 1341              		.loc 1 614 1 is_stmt 1 view -0
 1342              		.cfi_startproc
 1343              		@ args = 0, pretend = 0, frame = 0
 1344              		@ frame_needed = 0, uses_anonymous_args = 0
 615:Middlewares/Third_Party/FreeRTOS/Source/event_groups.c **** const List_t *pxTasksWaitingForBits = &( pxEventBits->xTasksWaitingForBits );
 1345              		.loc 1 615 1 view .LVU477
 614:Middlewares/Third_Party/FreeRTOS/Source/event_groups.c **** EventGroup_t *pxEventBits = xEventGroup;
 1346              		.loc 1 614 1 is_stmt 0 view .LVU478
 1347 0000 38B5     		push	{r3, r4, r5, lr}
 1348              		.cfi_def_cfa_offset 16
 1349              		.cfi_offset 3, -16
 1350              		.cfi_offset 4, -12
 1351              		.cfi_offset 5, -8
 1352              		.cfi_offset 14, -4
 614:Middlewares/Third_Party/FreeRTOS/Source/event_groups.c **** EventGroup_t *pxEventBits = xEventGroup;
 1353              		.loc 1 614 1 view .LVU479
 1354 0002 0446     		mov	r4, r0
 1355              	.LVL110:
 616:Middlewares/Third_Party/FreeRTOS/Source/event_groups.c **** 
 1356              		.loc 1 616 1 is_stmt 1 view .LVU480
 618:Middlewares/Third_Party/FreeRTOS/Source/event_groups.c **** 	{
 1357              		.loc 1 618 2 view .LVU481
 1358 0004 FFF7FEFF 		bl	vTaskSuspendAll
 1359              	.LVL111:
 620:Middlewares/Third_Party/FreeRTOS/Source/event_groups.c **** 
 1360              		.loc 1 620 41 view .LVU482
 622:Middlewares/Third_Party/FreeRTOS/Source/event_groups.c **** 		{
 1361              		.loc 1 622 3 view .LVU483
 622:Middlewares/Third_Party/FreeRTOS/Source/event_groups.c **** 		{
 1362              		.loc 1 622 8 view .LVU484
 622:Middlewares/Third_Party/FreeRTOS/Source/event_groups.c **** 		{
 1363              		.loc 1 622 10 is_stmt 0 view .LVU485
 1364 0008 6368     		ldr	r3, [r4, #4]
 626:Middlewares/Third_Party/FreeRTOS/Source/event_groups.c **** 			vTaskRemoveFromUnorderedEventList( pxTasksWaitingForBits->xListEnd.pxNext, eventUNBLOCKED_DUE_TO
 1365              		.loc 1 626 4 view .LVU486
 1366 000a 04F10C05 		add	r5, r4, #12
 622:Middlewares/Third_Party/FreeRTOS/Source/event_groups.c **** 		{
 1367              		.loc 1 622 8 view .LVU487
 1368 000e 23B9     		cbnz	r3, .L113
 1369 0010 11E0     		b	.L114
 1370              	.L111:
 627:Middlewares/Third_Party/FreeRTOS/Source/event_groups.c **** 		}
 1371              		.loc 1 627 4 discriminator 2 view .LVU488
 1372 0012 FFF7FEFF 		bl	vTaskRemoveFromUnorderedEventList
 1373              	.LVL112:
 622:Middlewares/Third_Party/FreeRTOS/Source/event_groups.c **** 		{
 1374              		.loc 1 622 8 is_stmt 1 discriminator 2 view .LVU489
 622:Middlewares/Third_Party/FreeRTOS/Source/event_groups.c **** 		{
 1375              		.loc 1 622 10 is_stmt 0 discriminator 2 view .LVU490
 1376 0016 6368     		ldr	r3, [r4, #4]
 622:Middlewares/Third_Party/FreeRTOS/Source/event_groups.c **** 		{
 1377              		.loc 1 622 8 discriminator 2 view .LVU491
 1378 0018 6BB1     		cbz	r3, .L114
 1379              	.L113:
 626:Middlewares/Third_Party/FreeRTOS/Source/event_groups.c **** 			vTaskRemoveFromUnorderedEventList( pxTasksWaitingForBits->xListEnd.pxNext, eventUNBLOCKED_DUE_TO
 1380              		.loc 1 626 4 is_stmt 1 view .LVU492
 626:Middlewares/Third_Party/FreeRTOS/Source/event_groups.c **** 			vTaskRemoveFromUnorderedEventList( pxTasksWaitingForBits->xListEnd.pxNext, eventUNBLOCKED_DUE_TO
ARM GAS  /tmp/cc0dnhIO.s 			page 48


 1381              		.loc 1 626 121 view .LVU493
 627:Middlewares/Third_Party/FreeRTOS/Source/event_groups.c **** 		}
 1382              		.loc 1 627 4 view .LVU494
 626:Middlewares/Third_Party/FreeRTOS/Source/event_groups.c **** 			vTaskRemoveFromUnorderedEventList( pxTasksWaitingForBits->xListEnd.pxNext, eventUNBLOCKED_DUE_TO
 1383              		.loc 1 626 4 is_stmt 0 view .LVU495
 1384 001a 2069     		ldr	r0, [r4, #16]
 1385 001c A842     		cmp	r0, r5
 627:Middlewares/Third_Party/FreeRTOS/Source/event_groups.c **** 		}
 1386              		.loc 1 627 4 view .LVU496
 1387 001e 4FF00071 		mov	r1, #33554432
 626:Middlewares/Third_Party/FreeRTOS/Source/event_groups.c **** 			vTaskRemoveFromUnorderedEventList( pxTasksWaitingForBits->xListEnd.pxNext, eventUNBLOCKED_DUE_TO
 1388              		.loc 1 626 4 view .LVU497
 1389 0022 F6D1     		bne	.L111
 626:Middlewares/Third_Party/FreeRTOS/Source/event_groups.c **** 			vTaskRemoveFromUnorderedEventList( pxTasksWaitingForBits->xListEnd.pxNext, eventUNBLOCKED_DUE_TO
 1390              		.loc 1 626 4 is_stmt 1 view .LVU498
 1391              	.LBB129:
 1392              	.LBI129:
 191:Middlewares/Third_Party/FreeRTOS/Source/portable/GCC/ARM_CM4F/portmacro.h **** {
 1393              		.loc 2 191 30 view .LVU499
 1394              	.LBB130:
 193:Middlewares/Third_Party/FreeRTOS/Source/portable/GCC/ARM_CM4F/portmacro.h **** 
 1395              		.loc 2 193 1 view .LVU500
 195:Middlewares/Third_Party/FreeRTOS/Source/portable/GCC/ARM_CM4F/portmacro.h **** 	(
 1396              		.loc 2 195 2 view .LVU501
 1397              		.syntax unified
 1398              	@ 195 "Middlewares/Third_Party/FreeRTOS/Source/portable/GCC/ARM_CM4F/portmacro.h" 1
 1399 0024 4FF05003 			mov r3, #80												
 1400 0028 83F31188 		msr basepri, r3											
 1401 002c BFF36F8F 		isb														
 1402 0030 BFF34F8F 		dsb														
 1403              	
 1404              	@ 0 "" 2
 1405              	.LVL113:
 1406              		.thumb
 1407              		.syntax unified
 1408              	.L112:
 195:Middlewares/Third_Party/FreeRTOS/Source/portable/GCC/ARM_CM4F/portmacro.h **** 	(
 1409              		.loc 2 195 2 is_stmt 0 view .LVU502
 1410              	.LBE130:
 1411              	.LBE129:
 626:Middlewares/Third_Party/FreeRTOS/Source/event_groups.c **** 			vTaskRemoveFromUnorderedEventList( pxTasksWaitingForBits->xListEnd.pxNext, eventUNBLOCKED_DUE_TO
 1412              		.loc 1 626 4 is_stmt 1 discriminator 1 view .LVU503
 626:Middlewares/Third_Party/FreeRTOS/Source/event_groups.c **** 			vTaskRemoveFromUnorderedEventList( pxTasksWaitingForBits->xListEnd.pxNext, eventUNBLOCKED_DUE_TO
 1413              		.loc 1 626 4 discriminator 1 view .LVU504
 626:Middlewares/Third_Party/FreeRTOS/Source/event_groups.c **** 			vTaskRemoveFromUnorderedEventList( pxTasksWaitingForBits->xListEnd.pxNext, eventUNBLOCKED_DUE_TO
 1414              		.loc 1 626 4 discriminator 1 view .LVU505
 626:Middlewares/Third_Party/FreeRTOS/Source/event_groups.c **** 			vTaskRemoveFromUnorderedEventList( pxTasksWaitingForBits->xListEnd.pxNext, eventUNBLOCKED_DUE_TO
 1415              		.loc 1 626 4 discriminator 1 view .LVU506
 626:Middlewares/Third_Party/FreeRTOS/Source/event_groups.c **** 			vTaskRemoveFromUnorderedEventList( pxTasksWaitingForBits->xListEnd.pxNext, eventUNBLOCKED_DUE_TO
 1416              		.loc 1 626 4 discriminator 1 view .LVU507
 626:Middlewares/Third_Party/FreeRTOS/Source/event_groups.c **** 			vTaskRemoveFromUnorderedEventList( pxTasksWaitingForBits->xListEnd.pxNext, eventUNBLOCKED_DUE_TO
 1417              		.loc 1 626 4 discriminator 1 view .LVU508
 1418 0034 FEE7     		b	.L112
 1419              	.L114:
 640:Middlewares/Third_Party/FreeRTOS/Source/event_groups.c **** 			{
 1420              		.loc 1 640 4 view .LVU509
 640:Middlewares/Third_Party/FreeRTOS/Source/event_groups.c **** 			{
ARM GAS  /tmp/cc0dnhIO.s 			page 49


 1421              		.loc 1 640 6 is_stmt 0 view .LVU510
 1422 0036 237E     		ldrb	r3, [r4, #24]	@ zero_extendqisi2
 1423 0038 1BB1     		cbz	r3, .L117
 646:Middlewares/Third_Party/FreeRTOS/Source/event_groups.c **** 			}
 1424              		.loc 1 646 29 is_stmt 1 view .LVU511
 651:Middlewares/Third_Party/FreeRTOS/Source/event_groups.c **** }
 1425              		.loc 1 651 2 view .LVU512
 652:Middlewares/Third_Party/FreeRTOS/Source/event_groups.c **** /*-----------------------------------------------------------*/
 1426              		.loc 1 652 1 is_stmt 0 view .LVU513
 1427 003a BDE83840 		pop	{r3, r4, r5, lr}
 1428              		.cfi_remember_state
 1429              		.cfi_restore 14
 1430              		.cfi_restore 5
 1431              		.cfi_restore 4
 1432              		.cfi_restore 3
 1433              		.cfi_def_cfa_offset 0
 1434              	.LVL114:
 651:Middlewares/Third_Party/FreeRTOS/Source/event_groups.c **** }
 1435              		.loc 1 651 11 view .LVU514
 1436 003e FFF7FEBF 		b	xTaskResumeAll
 1437              	.LVL115:
 1438              	.L117:
 1439              		.cfi_restore_state
 642:Middlewares/Third_Party/FreeRTOS/Source/event_groups.c **** 			}
 1440              		.loc 1 642 5 is_stmt 1 view .LVU515
 1441 0042 2046     		mov	r0, r4
 1442 0044 FFF7FEFF 		bl	vPortFree
 1443              	.LVL116:
 646:Middlewares/Third_Party/FreeRTOS/Source/event_groups.c **** 			}
 1444              		.loc 1 646 29 view .LVU516
 651:Middlewares/Third_Party/FreeRTOS/Source/event_groups.c **** }
 1445              		.loc 1 651 2 view .LVU517
 652:Middlewares/Third_Party/FreeRTOS/Source/event_groups.c **** /*-----------------------------------------------------------*/
 1446              		.loc 1 652 1 is_stmt 0 view .LVU518
 1447 0048 BDE83840 		pop	{r3, r4, r5, lr}
 1448              		.cfi_restore 14
 1449              		.cfi_restore 5
 1450              		.cfi_restore 4
 1451              		.cfi_restore 3
 1452              		.cfi_def_cfa_offset 0
 1453              	.LVL117:
 651:Middlewares/Third_Party/FreeRTOS/Source/event_groups.c **** }
 1454              		.loc 1 651 11 view .LVU519
 1455 004c FFF7FEBF 		b	xTaskResumeAll
 1456              	.LVL118:
 1457              		.cfi_endproc
 1458              	.LFE12:
 1460              		.section	.text.vEventGroupSetBitsCallback,"ax",%progbits
 1461              		.align	1
 1462              		.p2align 2,,3
 1463              		.global	vEventGroupSetBitsCallback
 1464              		.syntax unified
 1465              		.thumb
 1466              		.thumb_func
 1468              	vEventGroupSetBitsCallback:
 1469              	.LVL119:
 1470              	.LFB13:
ARM GAS  /tmp/cc0dnhIO.s 			page 50


 658:Middlewares/Third_Party/FreeRTOS/Source/event_groups.c **** 	( void ) xEventGroupSetBits( pvEventGroup, ( EventBits_t ) ulBitsToSet ); /*lint !e9079 Can't avoi
 1471              		.loc 1 658 1 is_stmt 1 view -0
 1472              		.cfi_startproc
 1473              		@ args = 0, pretend = 0, frame = 0
 1474              		@ frame_needed = 0, uses_anonymous_args = 0
 1475              		@ link register save eliminated.
 659:Middlewares/Third_Party/FreeRTOS/Source/event_groups.c **** }
 1476              		.loc 1 659 2 view .LVU521
 659:Middlewares/Third_Party/FreeRTOS/Source/event_groups.c **** }
 1477              		.loc 1 659 11 is_stmt 0 view .LVU522
 1478 0000 FFF7FEBF 		b	xEventGroupSetBits
 1479              	.LVL120:
 659:Middlewares/Third_Party/FreeRTOS/Source/event_groups.c **** }
 1480              		.loc 1 659 11 view .LVU523
 1481              		.cfi_endproc
 1482              	.LFE13:
 1484              		.section	.text.vEventGroupClearBitsCallback,"ax",%progbits
 1485              		.align	1
 1486              		.p2align 2,,3
 1487              		.global	vEventGroupClearBitsCallback
 1488              		.syntax unified
 1489              		.thumb
 1490              		.thumb_func
 1492              	vEventGroupClearBitsCallback:
 1493              	.LVL121:
 1494              	.LFB14:
 666:Middlewares/Third_Party/FreeRTOS/Source/event_groups.c **** 	( void ) xEventGroupClearBits( pvEventGroup, ( EventBits_t ) ulBitsToClear ); /*lint !e9079 Can't 
 1495              		.loc 1 666 1 is_stmt 1 view -0
 1496              		.cfi_startproc
 1497              		@ args = 0, pretend = 0, frame = 0
 1498              		@ frame_needed = 0, uses_anonymous_args = 0
 667:Middlewares/Third_Party/FreeRTOS/Source/event_groups.c **** }
 1499              		.loc 1 667 2 view .LVU525
 1500              	.LBB143:
 1501              	.LBI143:
 461:Middlewares/Third_Party/FreeRTOS/Source/event_groups.c **** {
 1502              		.loc 1 461 13 view .LVU526
 1503              	.LBB144:
 463:Middlewares/Third_Party/FreeRTOS/Source/event_groups.c **** EventBits_t uxReturn;
 1504              		.loc 1 463 1 view .LVU527
 464:Middlewares/Third_Party/FreeRTOS/Source/event_groups.c **** 
 1505              		.loc 1 464 1 view .LVU528
 468:Middlewares/Third_Party/FreeRTOS/Source/event_groups.c **** 	configASSERT( ( uxBitsToClear & eventEVENT_BITS_CONTROL_BYTES ) == 0 );
 1506              		.loc 1 468 2 view .LVU529
 1507              	.LBE144:
 1508              	.LBE143:
 666:Middlewares/Third_Party/FreeRTOS/Source/event_groups.c **** 	( void ) xEventGroupClearBits( pvEventGroup, ( EventBits_t ) ulBitsToClear ); /*lint !e9079 Can't 
 1509              		.loc 1 666 1 is_stmt 0 view .LVU530
 1510 0000 38B5     		push	{r3, r4, r5, lr}
 1511              		.cfi_def_cfa_offset 16
 1512              		.cfi_offset 3, -16
 1513              		.cfi_offset 4, -12
 1514              		.cfi_offset 5, -8
 1515              		.cfi_offset 14, -4
 1516              	.LBB155:
 1517              	.LBB153:
 468:Middlewares/Third_Party/FreeRTOS/Source/event_groups.c **** 	configASSERT( ( uxBitsToClear & eventEVENT_BITS_CONTROL_BYTES ) == 0 );
ARM GAS  /tmp/cc0dnhIO.s 			page 51


 1518              		.loc 1 468 2 view .LVU531
 1519 0002 B8B1     		cbz	r0, .L125
 468:Middlewares/Third_Party/FreeRTOS/Source/event_groups.c **** 	configASSERT( ( uxBitsToClear & eventEVENT_BITS_CONTROL_BYTES ) == 0 );
 1520              		.loc 1 468 29 is_stmt 1 view .LVU532
 469:Middlewares/Third_Party/FreeRTOS/Source/event_groups.c **** 
 1521              		.loc 1 469 2 view .LVU533
 1522 0004 11F07F4F 		tst	r1, #-16777216
 1523 0008 0C46     		mov	r4, r1
 1524 000a 08D0     		beq	.L122
 469:Middlewares/Third_Party/FreeRTOS/Source/event_groups.c **** 
 1525              		.loc 1 469 2 view .LVU534
 1526              	.LBB145:
 1527              	.LBI145:
 191:Middlewares/Third_Party/FreeRTOS/Source/portable/GCC/ARM_CM4F/portmacro.h **** {
 1528              		.loc 2 191 30 view .LVU535
 1529              	.LBB146:
 193:Middlewares/Third_Party/FreeRTOS/Source/portable/GCC/ARM_CM4F/portmacro.h **** 
 1530              		.loc 2 193 1 view .LVU536
 195:Middlewares/Third_Party/FreeRTOS/Source/portable/GCC/ARM_CM4F/portmacro.h **** 	(
 1531              		.loc 2 195 2 view .LVU537
 1532              		.syntax unified
 1533              	@ 195 "Middlewares/Third_Party/FreeRTOS/Source/portable/GCC/ARM_CM4F/portmacro.h" 1
 1534 000c 4FF05003 			mov r3, #80												
 1535 0010 83F31188 		msr basepri, r3											
 1536 0014 BFF36F8F 		isb														
 1537 0018 BFF34F8F 		dsb														
 1538              	
 1539              	@ 0 "" 2
 1540              	.LVL122:
 1541              		.thumb
 1542              		.syntax unified
 1543              	.L123:
 195:Middlewares/Third_Party/FreeRTOS/Source/portable/GCC/ARM_CM4F/portmacro.h **** 	(
 1544              		.loc 2 195 2 is_stmt 0 view .LVU538
 1545              	.LBE146:
 1546              	.LBE145:
 469:Middlewares/Third_Party/FreeRTOS/Source/event_groups.c **** 
 1547              		.loc 1 469 2 is_stmt 1 view .LVU539
 469:Middlewares/Third_Party/FreeRTOS/Source/event_groups.c **** 
 1548              		.loc 1 469 2 view .LVU540
 469:Middlewares/Third_Party/FreeRTOS/Source/event_groups.c **** 
 1549              		.loc 1 469 2 view .LVU541
 469:Middlewares/Third_Party/FreeRTOS/Source/event_groups.c **** 
 1550              		.loc 1 469 2 view .LVU542
 469:Middlewares/Third_Party/FreeRTOS/Source/event_groups.c **** 
 1551              		.loc 1 469 2 view .LVU543
 469:Middlewares/Third_Party/FreeRTOS/Source/event_groups.c **** 
 1552              		.loc 1 469 2 view .LVU544
 1553 001c FEE7     		b	.L123
 1554              	.L122:
 1555 001e 0546     		mov	r5, r0
 1556              	.LVL123:
 1557              	.LBB147:
 1558              	.LBI147:
 461:Middlewares/Third_Party/FreeRTOS/Source/event_groups.c **** {
 1559              		.loc 1 461 13 view .LVU545
 1560              	.LBB148:
ARM GAS  /tmp/cc0dnhIO.s 			page 52


 469:Middlewares/Third_Party/FreeRTOS/Source/event_groups.c **** 
 1561              		.loc 1 469 72 view .LVU546
 471:Middlewares/Third_Party/FreeRTOS/Source/event_groups.c **** 	{
 1562              		.loc 1 471 2 view .LVU547
 1563 0020 FFF7FEFF 		bl	vPortEnterCritical
 1564              	.LVL124:
 473:Middlewares/Third_Party/FreeRTOS/Source/event_groups.c **** 
 1565              		.loc 1 473 60 view .LVU548
 477:Middlewares/Third_Party/FreeRTOS/Source/event_groups.c **** 
 1566              		.loc 1 477 3 view .LVU549
 480:Middlewares/Third_Party/FreeRTOS/Source/event_groups.c **** 	}
 1567              		.loc 1 480 3 view .LVU550
 480:Middlewares/Third_Party/FreeRTOS/Source/event_groups.c **** 	}
 1568              		.loc 1 480 28 is_stmt 0 view .LVU551
 1569 0024 2B68     		ldr	r3, [r5]
 1570 0026 23EA0403 		bic	r3, r3, r4
 1571 002a 2B60     		str	r3, [r5]
 1572              	.LVL125:
 482:Middlewares/Third_Party/FreeRTOS/Source/event_groups.c **** 
 1573              		.loc 1 482 2 is_stmt 1 view .LVU552
 1574              	.LBE148:
 1575              	.LBE147:
 1576              	.LBE153:
 1577              	.LBE155:
 668:Middlewares/Third_Party/FreeRTOS/Source/event_groups.c **** /*-----------------------------------------------------------*/
 1578              		.loc 1 668 1 is_stmt 0 view .LVU553
 1579 002c BDE83840 		pop	{r3, r4, r5, lr}
 1580              		.cfi_remember_state
 1581              		.cfi_restore 14
 1582              		.cfi_restore 5
 1583              		.cfi_restore 4
 1584              		.cfi_restore 3
 1585              		.cfi_def_cfa_offset 0
 1586              	.LVL126:
 1587              	.LBB156:
 1588              	.LBB154:
 1589              	.LBB150:
 1590              	.LBB149:
 482:Middlewares/Third_Party/FreeRTOS/Source/event_groups.c **** 
 1591              		.loc 1 482 2 view .LVU554
 1592 0030 FFF7FEBF 		b	vPortExitCritical
 1593              	.LVL127:
 1594              	.L125:
 1595              		.cfi_restore_state
 482:Middlewares/Third_Party/FreeRTOS/Source/event_groups.c **** 
 1596              		.loc 1 482 2 view .LVU555
 1597              	.LBE149:
 1598              	.LBE150:
 468:Middlewares/Third_Party/FreeRTOS/Source/event_groups.c **** 	configASSERT( ( uxBitsToClear & eventEVENT_BITS_CONTROL_BYTES ) == 0 );
 1599              		.loc 1 468 2 is_stmt 1 view .LVU556
 1600              	.LBB151:
 1601              	.LBI151:
 191:Middlewares/Third_Party/FreeRTOS/Source/portable/GCC/ARM_CM4F/portmacro.h **** {
 1602              		.loc 2 191 30 view .LVU557
 1603              	.LBB152:
 193:Middlewares/Third_Party/FreeRTOS/Source/portable/GCC/ARM_CM4F/portmacro.h **** 
 1604              		.loc 2 193 1 view .LVU558
ARM GAS  /tmp/cc0dnhIO.s 			page 53


 195:Middlewares/Third_Party/FreeRTOS/Source/portable/GCC/ARM_CM4F/portmacro.h **** 	(
 1605              		.loc 2 195 2 view .LVU559
 1606              		.syntax unified
 1607              	@ 195 "Middlewares/Third_Party/FreeRTOS/Source/portable/GCC/ARM_CM4F/portmacro.h" 1
 1608 0034 4FF05003 			mov r3, #80												
 1609 0038 83F31188 		msr basepri, r3											
 1610 003c BFF36F8F 		isb														
 1611 0040 BFF34F8F 		dsb														
 1612              	
 1613              	@ 0 "" 2
 1614              	.LVL128:
 1615              		.thumb
 1616              		.syntax unified
 1617              	.L121:
 195:Middlewares/Third_Party/FreeRTOS/Source/portable/GCC/ARM_CM4F/portmacro.h **** 	(
 1618              		.loc 2 195 2 is_stmt 0 view .LVU560
 1619              	.LBE152:
 1620              	.LBE151:
 468:Middlewares/Third_Party/FreeRTOS/Source/event_groups.c **** 	configASSERT( ( uxBitsToClear & eventEVENT_BITS_CONTROL_BYTES ) == 0 );
 1621              		.loc 1 468 2 is_stmt 1 view .LVU561
 468:Middlewares/Third_Party/FreeRTOS/Source/event_groups.c **** 	configASSERT( ( uxBitsToClear & eventEVENT_BITS_CONTROL_BYTES ) == 0 );
 1622              		.loc 1 468 2 view .LVU562
 468:Middlewares/Third_Party/FreeRTOS/Source/event_groups.c **** 	configASSERT( ( uxBitsToClear & eventEVENT_BITS_CONTROL_BYTES ) == 0 );
 1623              		.loc 1 468 2 view .LVU563
 468:Middlewares/Third_Party/FreeRTOS/Source/event_groups.c **** 	configASSERT( ( uxBitsToClear & eventEVENT_BITS_CONTROL_BYTES ) == 0 );
 1624              		.loc 1 468 2 view .LVU564
 468:Middlewares/Third_Party/FreeRTOS/Source/event_groups.c **** 	configASSERT( ( uxBitsToClear & eventEVENT_BITS_CONTROL_BYTES ) == 0 );
 1625              		.loc 1 468 2 view .LVU565
 468:Middlewares/Third_Party/FreeRTOS/Source/event_groups.c **** 	configASSERT( ( uxBitsToClear & eventEVENT_BITS_CONTROL_BYTES ) == 0 );
 1626              		.loc 1 468 2 view .LVU566
 1627 0044 FEE7     		b	.L121
 1628              	.LBE154:
 1629              	.LBE156:
 1630              		.cfi_endproc
 1631              	.LFE14:
 1633 0046 00BF     		.text
 1634              	.Letext0:
 1635              		.file 3 "/opt/gcc-arm-none-eabi-10.3-2021.10/lib/gcc/arm-none-eabi/10.3.1/include/stddef.h"
 1636              		.file 4 "/opt/gcc-arm-none-eabi-10.3-2021.10/arm-none-eabi/include/machine/_default_types.h"
 1637              		.file 5 "/opt/gcc-arm-none-eabi-10.3-2021.10/arm-none-eabi/include/sys/_stdint.h"
 1638              		.file 6 "Middlewares/Third_Party/FreeRTOS/Source/include/FreeRTOS.h"
 1639              		.file 7 "Middlewares/Third_Party/FreeRTOS/Source/include/list.h"
 1640              		.file 8 "Middlewares/Third_Party/FreeRTOS/Source/include/event_groups.h"
 1641              		.file 9 "Middlewares/Third_Party/FreeRTOS/Source/include/task.h"
 1642              		.file 10 "Middlewares/Third_Party/FreeRTOS/Source/include/portable.h"
ARM GAS  /tmp/cc0dnhIO.s 			page 54

