ARM GAS  /tmp/ccqqvZQq.s 			page 1


   1              		.cpu cortex-m4
   2              		.arch armv7e-m
   3              		.fpu fpv4-sp-d16
   4              		.eabi_attribute 27, 1
   5              		.eabi_attribute 28, 1
   6              		.eabi_attribute 20, 1
   7              		.eabi_attribute 21, 1
   8              		.eabi_attribute 23, 3
   9              		.eabi_attribute 24, 1
  10              		.eabi_attribute 25, 1
  11              		.eabi_attribute 26, 1
  12              		.eabi_attribute 30, 2
  13              		.eabi_attribute 34, 1
  14              		.eabi_attribute 18, 4
  15              		.file	"heap_4.c"
  16              		.text
  17              	.Ltext0:
  18              		.cfi_sections	.debug_frame
  19              		.section	.text.prvInsertBlockIntoFreeList,"ax",%progbits
  20              		.align	1
  21              		.p2align 2,,3
  22              		.syntax unified
  23              		.thumb
  24              		.thumb_func
  26              	prvInsertBlockIntoFreeList:
  27              	.LVL0:
  28              	.LFB11:
  29              		.file 1 "Middlewares/Third_Party/FreeRTOS/Source/portable/MemMang/heap_4.c"
   1:Middlewares/Third_Party/FreeRTOS/Source/portable/MemMang/heap_4.c **** /*
   2:Middlewares/Third_Party/FreeRTOS/Source/portable/MemMang/heap_4.c ****  * FreeRTOS Kernel V10.3.1
   3:Middlewares/Third_Party/FreeRTOS/Source/portable/MemMang/heap_4.c ****  * Copyright (C) 2020 Amazon.com, Inc. or its affiliates.  All Rights Reserved.
   4:Middlewares/Third_Party/FreeRTOS/Source/portable/MemMang/heap_4.c ****  *
   5:Middlewares/Third_Party/FreeRTOS/Source/portable/MemMang/heap_4.c ****  * Permission is hereby granted, free of charge, to any person obtaining a copy of
   6:Middlewares/Third_Party/FreeRTOS/Source/portable/MemMang/heap_4.c ****  * this software and associated documentation files (the "Software"), to deal in
   7:Middlewares/Third_Party/FreeRTOS/Source/portable/MemMang/heap_4.c ****  * the Software without restriction, including without limitation the rights to
   8:Middlewares/Third_Party/FreeRTOS/Source/portable/MemMang/heap_4.c ****  * use, copy, modify, merge, publish, distribute, sublicense, and/or sell copies of
   9:Middlewares/Third_Party/FreeRTOS/Source/portable/MemMang/heap_4.c ****  * the Software, and to permit persons to whom the Software is furnished to do so,
  10:Middlewares/Third_Party/FreeRTOS/Source/portable/MemMang/heap_4.c ****  * subject to the following conditions:
  11:Middlewares/Third_Party/FreeRTOS/Source/portable/MemMang/heap_4.c ****  *
  12:Middlewares/Third_Party/FreeRTOS/Source/portable/MemMang/heap_4.c ****  * The above copyright notice and this permission notice shall be included in all
  13:Middlewares/Third_Party/FreeRTOS/Source/portable/MemMang/heap_4.c ****  * copies or substantial portions of the Software.
  14:Middlewares/Third_Party/FreeRTOS/Source/portable/MemMang/heap_4.c ****  *
  15:Middlewares/Third_Party/FreeRTOS/Source/portable/MemMang/heap_4.c ****  * THE SOFTWARE IS PROVIDED "AS IS", WITHOUT WARRANTY OF ANY KIND, EXPRESS OR
  16:Middlewares/Third_Party/FreeRTOS/Source/portable/MemMang/heap_4.c ****  * IMPLIED, INCLUDING BUT NOT LIMITED TO THE WARRANTIES OF MERCHANTABILITY, FITNESS
  17:Middlewares/Third_Party/FreeRTOS/Source/portable/MemMang/heap_4.c ****  * FOR A PARTICULAR PURPOSE AND NONINFRINGEMENT. IN NO EVENT SHALL THE AUTHORS OR
  18:Middlewares/Third_Party/FreeRTOS/Source/portable/MemMang/heap_4.c ****  * COPYRIGHT HOLDERS BE LIABLE FOR ANY CLAIM, DAMAGES OR OTHER LIABILITY, WHETHER
  19:Middlewares/Third_Party/FreeRTOS/Source/portable/MemMang/heap_4.c ****  * IN AN ACTION OF CONTRACT, TORT OR OTHERWISE, ARISING FROM, OUT OF OR IN
  20:Middlewares/Third_Party/FreeRTOS/Source/portable/MemMang/heap_4.c ****  * CONNECTION WITH THE SOFTWARE OR THE USE OR OTHER DEALINGS IN THE SOFTWARE.
  21:Middlewares/Third_Party/FreeRTOS/Source/portable/MemMang/heap_4.c ****  *
  22:Middlewares/Third_Party/FreeRTOS/Source/portable/MemMang/heap_4.c ****  * http://www.FreeRTOS.org
  23:Middlewares/Third_Party/FreeRTOS/Source/portable/MemMang/heap_4.c ****  * http://aws.amazon.com/freertos
  24:Middlewares/Third_Party/FreeRTOS/Source/portable/MemMang/heap_4.c ****  *
  25:Middlewares/Third_Party/FreeRTOS/Source/portable/MemMang/heap_4.c ****  * 1 tab == 4 spaces!
  26:Middlewares/Third_Party/FreeRTOS/Source/portable/MemMang/heap_4.c ****  */
  27:Middlewares/Third_Party/FreeRTOS/Source/portable/MemMang/heap_4.c **** 
  28:Middlewares/Third_Party/FreeRTOS/Source/portable/MemMang/heap_4.c **** /*
  29:Middlewares/Third_Party/FreeRTOS/Source/portable/MemMang/heap_4.c ****  * A sample implementation of pvPortMalloc() and vPortFree() that combines
ARM GAS  /tmp/ccqqvZQq.s 			page 2


  30:Middlewares/Third_Party/FreeRTOS/Source/portable/MemMang/heap_4.c ****  * (coalescences) adjacent memory blocks as they are freed, and in so doing
  31:Middlewares/Third_Party/FreeRTOS/Source/portable/MemMang/heap_4.c ****  * limits memory fragmentation.
  32:Middlewares/Third_Party/FreeRTOS/Source/portable/MemMang/heap_4.c ****  *
  33:Middlewares/Third_Party/FreeRTOS/Source/portable/MemMang/heap_4.c ****  * See heap_1.c, heap_2.c and heap_3.c for alternative implementations, and the
  34:Middlewares/Third_Party/FreeRTOS/Source/portable/MemMang/heap_4.c ****  * memory management pages of http://www.FreeRTOS.org for more information.
  35:Middlewares/Third_Party/FreeRTOS/Source/portable/MemMang/heap_4.c ****  */
  36:Middlewares/Third_Party/FreeRTOS/Source/portable/MemMang/heap_4.c **** #include <stdlib.h>
  37:Middlewares/Third_Party/FreeRTOS/Source/portable/MemMang/heap_4.c **** 
  38:Middlewares/Third_Party/FreeRTOS/Source/portable/MemMang/heap_4.c **** /* Defining MPU_WRAPPERS_INCLUDED_FROM_API_FILE prevents task.h from redefining
  39:Middlewares/Third_Party/FreeRTOS/Source/portable/MemMang/heap_4.c **** all the API functions to use the MPU wrappers.  That should only be done when
  40:Middlewares/Third_Party/FreeRTOS/Source/portable/MemMang/heap_4.c **** task.h is included from an application file. */
  41:Middlewares/Third_Party/FreeRTOS/Source/portable/MemMang/heap_4.c **** #define MPU_WRAPPERS_INCLUDED_FROM_API_FILE
  42:Middlewares/Third_Party/FreeRTOS/Source/portable/MemMang/heap_4.c **** 
  43:Middlewares/Third_Party/FreeRTOS/Source/portable/MemMang/heap_4.c **** #include "FreeRTOS.h"
  44:Middlewares/Third_Party/FreeRTOS/Source/portable/MemMang/heap_4.c **** #include "task.h"
  45:Middlewares/Third_Party/FreeRTOS/Source/portable/MemMang/heap_4.c **** 
  46:Middlewares/Third_Party/FreeRTOS/Source/portable/MemMang/heap_4.c **** #undef MPU_WRAPPERS_INCLUDED_FROM_API_FILE
  47:Middlewares/Third_Party/FreeRTOS/Source/portable/MemMang/heap_4.c **** 
  48:Middlewares/Third_Party/FreeRTOS/Source/portable/MemMang/heap_4.c **** #if( configSUPPORT_DYNAMIC_ALLOCATION == 0 )
  49:Middlewares/Third_Party/FreeRTOS/Source/portable/MemMang/heap_4.c **** 	#error This file must not be used if configSUPPORT_DYNAMIC_ALLOCATION is 0
  50:Middlewares/Third_Party/FreeRTOS/Source/portable/MemMang/heap_4.c **** #endif
  51:Middlewares/Third_Party/FreeRTOS/Source/portable/MemMang/heap_4.c **** 
  52:Middlewares/Third_Party/FreeRTOS/Source/portable/MemMang/heap_4.c **** /* Block sizes must not get too small. */
  53:Middlewares/Third_Party/FreeRTOS/Source/portable/MemMang/heap_4.c **** #define heapMINIMUM_BLOCK_SIZE	( ( size_t ) ( xHeapStructSize << 1 ) )
  54:Middlewares/Third_Party/FreeRTOS/Source/portable/MemMang/heap_4.c **** 
  55:Middlewares/Third_Party/FreeRTOS/Source/portable/MemMang/heap_4.c **** /* Assumes 8bit bytes! */
  56:Middlewares/Third_Party/FreeRTOS/Source/portable/MemMang/heap_4.c **** #define heapBITS_PER_BYTE		( ( size_t ) 8 )
  57:Middlewares/Third_Party/FreeRTOS/Source/portable/MemMang/heap_4.c **** 
  58:Middlewares/Third_Party/FreeRTOS/Source/portable/MemMang/heap_4.c **** /* Allocate the memory for the heap. */
  59:Middlewares/Third_Party/FreeRTOS/Source/portable/MemMang/heap_4.c **** #if( configAPPLICATION_ALLOCATED_HEAP == 1 )
  60:Middlewares/Third_Party/FreeRTOS/Source/portable/MemMang/heap_4.c **** 	/* The application writer has already defined the array used for the RTOS
  61:Middlewares/Third_Party/FreeRTOS/Source/portable/MemMang/heap_4.c **** 	heap - probably so it can be placed in a special segment or address. */
  62:Middlewares/Third_Party/FreeRTOS/Source/portable/MemMang/heap_4.c **** 	extern uint8_t ucHeap[ configTOTAL_HEAP_SIZE ];
  63:Middlewares/Third_Party/FreeRTOS/Source/portable/MemMang/heap_4.c **** #else
  64:Middlewares/Third_Party/FreeRTOS/Source/portable/MemMang/heap_4.c **** 	static uint8_t ucHeap[ configTOTAL_HEAP_SIZE ];
  65:Middlewares/Third_Party/FreeRTOS/Source/portable/MemMang/heap_4.c **** #endif /* configAPPLICATION_ALLOCATED_HEAP */
  66:Middlewares/Third_Party/FreeRTOS/Source/portable/MemMang/heap_4.c **** 
  67:Middlewares/Third_Party/FreeRTOS/Source/portable/MemMang/heap_4.c **** /* Define the linked list structure.  This is used to link free blocks in order
  68:Middlewares/Third_Party/FreeRTOS/Source/portable/MemMang/heap_4.c **** of their memory address. */
  69:Middlewares/Third_Party/FreeRTOS/Source/portable/MemMang/heap_4.c **** typedef struct A_BLOCK_LINK
  70:Middlewares/Third_Party/FreeRTOS/Source/portable/MemMang/heap_4.c **** {
  71:Middlewares/Third_Party/FreeRTOS/Source/portable/MemMang/heap_4.c **** 	struct A_BLOCK_LINK *pxNextFreeBlock;	/*<< The next free block in the list. */
  72:Middlewares/Third_Party/FreeRTOS/Source/portable/MemMang/heap_4.c **** 	size_t xBlockSize;						/*<< The size of the free block. */
  73:Middlewares/Third_Party/FreeRTOS/Source/portable/MemMang/heap_4.c **** } BlockLink_t;
  74:Middlewares/Third_Party/FreeRTOS/Source/portable/MemMang/heap_4.c **** 
  75:Middlewares/Third_Party/FreeRTOS/Source/portable/MemMang/heap_4.c **** /*-----------------------------------------------------------*/
  76:Middlewares/Third_Party/FreeRTOS/Source/portable/MemMang/heap_4.c **** 
  77:Middlewares/Third_Party/FreeRTOS/Source/portable/MemMang/heap_4.c **** /*
  78:Middlewares/Third_Party/FreeRTOS/Source/portable/MemMang/heap_4.c ****  * Inserts a block of memory that is being freed into the correct position in
  79:Middlewares/Third_Party/FreeRTOS/Source/portable/MemMang/heap_4.c ****  * the list of free memory blocks.  The block being freed will be merged with
  80:Middlewares/Third_Party/FreeRTOS/Source/portable/MemMang/heap_4.c ****  * the block in front it and/or the block behind it if the memory blocks are
  81:Middlewares/Third_Party/FreeRTOS/Source/portable/MemMang/heap_4.c ****  * adjacent to each other.
  82:Middlewares/Third_Party/FreeRTOS/Source/portable/MemMang/heap_4.c ****  */
  83:Middlewares/Third_Party/FreeRTOS/Source/portable/MemMang/heap_4.c **** static void prvInsertBlockIntoFreeList( BlockLink_t *pxBlockToInsert );
  84:Middlewares/Third_Party/FreeRTOS/Source/portable/MemMang/heap_4.c **** 
  85:Middlewares/Third_Party/FreeRTOS/Source/portable/MemMang/heap_4.c **** /*
  86:Middlewares/Third_Party/FreeRTOS/Source/portable/MemMang/heap_4.c ****  * Called automatically to setup the required heap structures the first time
ARM GAS  /tmp/ccqqvZQq.s 			page 3


  87:Middlewares/Third_Party/FreeRTOS/Source/portable/MemMang/heap_4.c ****  * pvPortMalloc() is called.
  88:Middlewares/Third_Party/FreeRTOS/Source/portable/MemMang/heap_4.c ****  */
  89:Middlewares/Third_Party/FreeRTOS/Source/portable/MemMang/heap_4.c **** static void prvHeapInit( void );
  90:Middlewares/Third_Party/FreeRTOS/Source/portable/MemMang/heap_4.c **** 
  91:Middlewares/Third_Party/FreeRTOS/Source/portable/MemMang/heap_4.c **** /*-----------------------------------------------------------*/
  92:Middlewares/Third_Party/FreeRTOS/Source/portable/MemMang/heap_4.c **** 
  93:Middlewares/Third_Party/FreeRTOS/Source/portable/MemMang/heap_4.c **** /* The size of the structure placed at the beginning of each allocated memory
  94:Middlewares/Third_Party/FreeRTOS/Source/portable/MemMang/heap_4.c **** block must by correctly byte aligned. */
  95:Middlewares/Third_Party/FreeRTOS/Source/portable/MemMang/heap_4.c **** static const size_t xHeapStructSize	= ( sizeof( BlockLink_t ) + ( ( size_t ) ( portBYTE_ALIGNMENT -
  96:Middlewares/Third_Party/FreeRTOS/Source/portable/MemMang/heap_4.c **** 
  97:Middlewares/Third_Party/FreeRTOS/Source/portable/MemMang/heap_4.c **** /* Create a couple of list links to mark the start and end of the list. */
  98:Middlewares/Third_Party/FreeRTOS/Source/portable/MemMang/heap_4.c **** static BlockLink_t xStart, *pxEnd = NULL;
  99:Middlewares/Third_Party/FreeRTOS/Source/portable/MemMang/heap_4.c **** 
 100:Middlewares/Third_Party/FreeRTOS/Source/portable/MemMang/heap_4.c **** /* Keeps track of the number of calls to allocate and free memory as well as the
 101:Middlewares/Third_Party/FreeRTOS/Source/portable/MemMang/heap_4.c **** number of free bytes remaining, but says nothing about fragmentation. */
 102:Middlewares/Third_Party/FreeRTOS/Source/portable/MemMang/heap_4.c **** static size_t xFreeBytesRemaining = 0U;
 103:Middlewares/Third_Party/FreeRTOS/Source/portable/MemMang/heap_4.c **** static size_t xMinimumEverFreeBytesRemaining = 0U;
 104:Middlewares/Third_Party/FreeRTOS/Source/portable/MemMang/heap_4.c **** static size_t xNumberOfSuccessfulAllocations = 0;
 105:Middlewares/Third_Party/FreeRTOS/Source/portable/MemMang/heap_4.c **** static size_t xNumberOfSuccessfulFrees = 0;
 106:Middlewares/Third_Party/FreeRTOS/Source/portable/MemMang/heap_4.c **** 
 107:Middlewares/Third_Party/FreeRTOS/Source/portable/MemMang/heap_4.c **** /* Gets set to the top bit of an size_t type.  When this bit in the xBlockSize
 108:Middlewares/Third_Party/FreeRTOS/Source/portable/MemMang/heap_4.c **** member of an BlockLink_t structure is set then the block belongs to the
 109:Middlewares/Third_Party/FreeRTOS/Source/portable/MemMang/heap_4.c **** application.  When the bit is free the block is still part of the free heap
 110:Middlewares/Third_Party/FreeRTOS/Source/portable/MemMang/heap_4.c **** space. */
 111:Middlewares/Third_Party/FreeRTOS/Source/portable/MemMang/heap_4.c **** static size_t xBlockAllocatedBit = 0;
 112:Middlewares/Third_Party/FreeRTOS/Source/portable/MemMang/heap_4.c **** 
 113:Middlewares/Third_Party/FreeRTOS/Source/portable/MemMang/heap_4.c **** /*-----------------------------------------------------------*/
 114:Middlewares/Third_Party/FreeRTOS/Source/portable/MemMang/heap_4.c **** 
 115:Middlewares/Third_Party/FreeRTOS/Source/portable/MemMang/heap_4.c **** void *pvPortMalloc( size_t xWantedSize )
 116:Middlewares/Third_Party/FreeRTOS/Source/portable/MemMang/heap_4.c **** {
 117:Middlewares/Third_Party/FreeRTOS/Source/portable/MemMang/heap_4.c **** BlockLink_t *pxBlock, *pxPreviousBlock, *pxNewBlockLink;
 118:Middlewares/Third_Party/FreeRTOS/Source/portable/MemMang/heap_4.c **** void *pvReturn = NULL;
 119:Middlewares/Third_Party/FreeRTOS/Source/portable/MemMang/heap_4.c **** 
 120:Middlewares/Third_Party/FreeRTOS/Source/portable/MemMang/heap_4.c **** 	vTaskSuspendAll();
 121:Middlewares/Third_Party/FreeRTOS/Source/portable/MemMang/heap_4.c **** 	{
 122:Middlewares/Third_Party/FreeRTOS/Source/portable/MemMang/heap_4.c **** 		/* If this is the first call to malloc then the heap will require
 123:Middlewares/Third_Party/FreeRTOS/Source/portable/MemMang/heap_4.c **** 		initialisation to setup the list of free blocks. */
 124:Middlewares/Third_Party/FreeRTOS/Source/portable/MemMang/heap_4.c **** 		if( pxEnd == NULL )
 125:Middlewares/Third_Party/FreeRTOS/Source/portable/MemMang/heap_4.c **** 		{
 126:Middlewares/Third_Party/FreeRTOS/Source/portable/MemMang/heap_4.c **** 			prvHeapInit();
 127:Middlewares/Third_Party/FreeRTOS/Source/portable/MemMang/heap_4.c **** 		}
 128:Middlewares/Third_Party/FreeRTOS/Source/portable/MemMang/heap_4.c **** 		else
 129:Middlewares/Third_Party/FreeRTOS/Source/portable/MemMang/heap_4.c **** 		{
 130:Middlewares/Third_Party/FreeRTOS/Source/portable/MemMang/heap_4.c **** 			mtCOVERAGE_TEST_MARKER();
 131:Middlewares/Third_Party/FreeRTOS/Source/portable/MemMang/heap_4.c **** 		}
 132:Middlewares/Third_Party/FreeRTOS/Source/portable/MemMang/heap_4.c **** 
 133:Middlewares/Third_Party/FreeRTOS/Source/portable/MemMang/heap_4.c **** 		/* Check the requested block size is not so large that the top bit is
 134:Middlewares/Third_Party/FreeRTOS/Source/portable/MemMang/heap_4.c **** 		set.  The top bit of the block size member of the BlockLink_t structure
 135:Middlewares/Third_Party/FreeRTOS/Source/portable/MemMang/heap_4.c **** 		is used to determine who owns the block - the application or the
 136:Middlewares/Third_Party/FreeRTOS/Source/portable/MemMang/heap_4.c **** 		kernel, so it must be free. */
 137:Middlewares/Third_Party/FreeRTOS/Source/portable/MemMang/heap_4.c **** 		if( ( xWantedSize & xBlockAllocatedBit ) == 0 )
 138:Middlewares/Third_Party/FreeRTOS/Source/portable/MemMang/heap_4.c **** 		{
 139:Middlewares/Third_Party/FreeRTOS/Source/portable/MemMang/heap_4.c **** 			/* The wanted size is increased so it can contain a BlockLink_t
 140:Middlewares/Third_Party/FreeRTOS/Source/portable/MemMang/heap_4.c **** 			structure in addition to the requested amount of bytes. */
 141:Middlewares/Third_Party/FreeRTOS/Source/portable/MemMang/heap_4.c **** 			if( xWantedSize > 0 )
 142:Middlewares/Third_Party/FreeRTOS/Source/portable/MemMang/heap_4.c **** 			{
 143:Middlewares/Third_Party/FreeRTOS/Source/portable/MemMang/heap_4.c **** 				xWantedSize += xHeapStructSize;
ARM GAS  /tmp/ccqqvZQq.s 			page 4


 144:Middlewares/Third_Party/FreeRTOS/Source/portable/MemMang/heap_4.c **** 
 145:Middlewares/Third_Party/FreeRTOS/Source/portable/MemMang/heap_4.c **** 				/* Ensure that blocks are always aligned to the required number
 146:Middlewares/Third_Party/FreeRTOS/Source/portable/MemMang/heap_4.c **** 				of bytes. */
 147:Middlewares/Third_Party/FreeRTOS/Source/portable/MemMang/heap_4.c **** 				if( ( xWantedSize & portBYTE_ALIGNMENT_MASK ) != 0x00 )
 148:Middlewares/Third_Party/FreeRTOS/Source/portable/MemMang/heap_4.c **** 				{
 149:Middlewares/Third_Party/FreeRTOS/Source/portable/MemMang/heap_4.c **** 					/* Byte alignment required. */
 150:Middlewares/Third_Party/FreeRTOS/Source/portable/MemMang/heap_4.c **** 					xWantedSize += ( portBYTE_ALIGNMENT - ( xWantedSize & portBYTE_ALIGNMENT_MASK ) );
 151:Middlewares/Third_Party/FreeRTOS/Source/portable/MemMang/heap_4.c **** 					configASSERT( ( xWantedSize & portBYTE_ALIGNMENT_MASK ) == 0 );
 152:Middlewares/Third_Party/FreeRTOS/Source/portable/MemMang/heap_4.c **** 				}
 153:Middlewares/Third_Party/FreeRTOS/Source/portable/MemMang/heap_4.c **** 				else
 154:Middlewares/Third_Party/FreeRTOS/Source/portable/MemMang/heap_4.c **** 				{
 155:Middlewares/Third_Party/FreeRTOS/Source/portable/MemMang/heap_4.c **** 					mtCOVERAGE_TEST_MARKER();
 156:Middlewares/Third_Party/FreeRTOS/Source/portable/MemMang/heap_4.c **** 				}
 157:Middlewares/Third_Party/FreeRTOS/Source/portable/MemMang/heap_4.c **** 			}
 158:Middlewares/Third_Party/FreeRTOS/Source/portable/MemMang/heap_4.c **** 			else
 159:Middlewares/Third_Party/FreeRTOS/Source/portable/MemMang/heap_4.c **** 			{
 160:Middlewares/Third_Party/FreeRTOS/Source/portable/MemMang/heap_4.c **** 				mtCOVERAGE_TEST_MARKER();
 161:Middlewares/Third_Party/FreeRTOS/Source/portable/MemMang/heap_4.c **** 			}
 162:Middlewares/Third_Party/FreeRTOS/Source/portable/MemMang/heap_4.c **** 
 163:Middlewares/Third_Party/FreeRTOS/Source/portable/MemMang/heap_4.c **** 			if( ( xWantedSize > 0 ) && ( xWantedSize <= xFreeBytesRemaining ) )
 164:Middlewares/Third_Party/FreeRTOS/Source/portable/MemMang/heap_4.c **** 			{
 165:Middlewares/Third_Party/FreeRTOS/Source/portable/MemMang/heap_4.c **** 				/* Traverse the list from the start	(lowest address) block until
 166:Middlewares/Third_Party/FreeRTOS/Source/portable/MemMang/heap_4.c **** 				one	of adequate size is found. */
 167:Middlewares/Third_Party/FreeRTOS/Source/portable/MemMang/heap_4.c **** 				pxPreviousBlock = &xStart;
 168:Middlewares/Third_Party/FreeRTOS/Source/portable/MemMang/heap_4.c **** 				pxBlock = xStart.pxNextFreeBlock;
 169:Middlewares/Third_Party/FreeRTOS/Source/portable/MemMang/heap_4.c **** 				while( ( pxBlock->xBlockSize < xWantedSize ) && ( pxBlock->pxNextFreeBlock != NULL ) )
 170:Middlewares/Third_Party/FreeRTOS/Source/portable/MemMang/heap_4.c **** 				{
 171:Middlewares/Third_Party/FreeRTOS/Source/portable/MemMang/heap_4.c **** 					pxPreviousBlock = pxBlock;
 172:Middlewares/Third_Party/FreeRTOS/Source/portable/MemMang/heap_4.c **** 					pxBlock = pxBlock->pxNextFreeBlock;
 173:Middlewares/Third_Party/FreeRTOS/Source/portable/MemMang/heap_4.c **** 				}
 174:Middlewares/Third_Party/FreeRTOS/Source/portable/MemMang/heap_4.c **** 
 175:Middlewares/Third_Party/FreeRTOS/Source/portable/MemMang/heap_4.c **** 				/* If the end marker was reached then a block of adequate size
 176:Middlewares/Third_Party/FreeRTOS/Source/portable/MemMang/heap_4.c **** 				was	not found. */
 177:Middlewares/Third_Party/FreeRTOS/Source/portable/MemMang/heap_4.c **** 				if( pxBlock != pxEnd )
 178:Middlewares/Third_Party/FreeRTOS/Source/portable/MemMang/heap_4.c **** 				{
 179:Middlewares/Third_Party/FreeRTOS/Source/portable/MemMang/heap_4.c **** 					/* Return the memory space pointed to - jumping over the
 180:Middlewares/Third_Party/FreeRTOS/Source/portable/MemMang/heap_4.c **** 					BlockLink_t structure at its start. */
 181:Middlewares/Third_Party/FreeRTOS/Source/portable/MemMang/heap_4.c **** 					pvReturn = ( void * ) ( ( ( uint8_t * ) pxPreviousBlock->pxNextFreeBlock ) + xHeapStructSize )
 182:Middlewares/Third_Party/FreeRTOS/Source/portable/MemMang/heap_4.c **** 
 183:Middlewares/Third_Party/FreeRTOS/Source/portable/MemMang/heap_4.c **** 					/* This block is being returned for use so must be taken out
 184:Middlewares/Third_Party/FreeRTOS/Source/portable/MemMang/heap_4.c **** 					of the list of free blocks. */
 185:Middlewares/Third_Party/FreeRTOS/Source/portable/MemMang/heap_4.c **** 					pxPreviousBlock->pxNextFreeBlock = pxBlock->pxNextFreeBlock;
 186:Middlewares/Third_Party/FreeRTOS/Source/portable/MemMang/heap_4.c **** 
 187:Middlewares/Third_Party/FreeRTOS/Source/portable/MemMang/heap_4.c **** 					/* If the block is larger than required it can be split into
 188:Middlewares/Third_Party/FreeRTOS/Source/portable/MemMang/heap_4.c **** 					two. */
 189:Middlewares/Third_Party/FreeRTOS/Source/portable/MemMang/heap_4.c **** 					if( ( pxBlock->xBlockSize - xWantedSize ) > heapMINIMUM_BLOCK_SIZE )
 190:Middlewares/Third_Party/FreeRTOS/Source/portable/MemMang/heap_4.c **** 					{
 191:Middlewares/Third_Party/FreeRTOS/Source/portable/MemMang/heap_4.c **** 						/* This block is to be split into two.  Create a new
 192:Middlewares/Third_Party/FreeRTOS/Source/portable/MemMang/heap_4.c **** 						block following the number of bytes requested. The void
 193:Middlewares/Third_Party/FreeRTOS/Source/portable/MemMang/heap_4.c **** 						cast is used to prevent byte alignment warnings from the
 194:Middlewares/Third_Party/FreeRTOS/Source/portable/MemMang/heap_4.c **** 						compiler. */
 195:Middlewares/Third_Party/FreeRTOS/Source/portable/MemMang/heap_4.c **** 						pxNewBlockLink = ( void * ) ( ( ( uint8_t * ) pxBlock ) + xWantedSize );
 196:Middlewares/Third_Party/FreeRTOS/Source/portable/MemMang/heap_4.c **** 						configASSERT( ( ( ( size_t ) pxNewBlockLink ) & portBYTE_ALIGNMENT_MASK ) == 0 );
 197:Middlewares/Third_Party/FreeRTOS/Source/portable/MemMang/heap_4.c **** 
 198:Middlewares/Third_Party/FreeRTOS/Source/portable/MemMang/heap_4.c **** 						/* Calculate the sizes of two blocks split from the
 199:Middlewares/Third_Party/FreeRTOS/Source/portable/MemMang/heap_4.c **** 						single block. */
 200:Middlewares/Third_Party/FreeRTOS/Source/portable/MemMang/heap_4.c **** 						pxNewBlockLink->xBlockSize = pxBlock->xBlockSize - xWantedSize;
ARM GAS  /tmp/ccqqvZQq.s 			page 5


 201:Middlewares/Third_Party/FreeRTOS/Source/portable/MemMang/heap_4.c **** 						pxBlock->xBlockSize = xWantedSize;
 202:Middlewares/Third_Party/FreeRTOS/Source/portable/MemMang/heap_4.c **** 
 203:Middlewares/Third_Party/FreeRTOS/Source/portable/MemMang/heap_4.c **** 						/* Insert the new block into the list of free blocks. */
 204:Middlewares/Third_Party/FreeRTOS/Source/portable/MemMang/heap_4.c **** 						prvInsertBlockIntoFreeList( pxNewBlockLink );
 205:Middlewares/Third_Party/FreeRTOS/Source/portable/MemMang/heap_4.c **** 					}
 206:Middlewares/Third_Party/FreeRTOS/Source/portable/MemMang/heap_4.c **** 					else
 207:Middlewares/Third_Party/FreeRTOS/Source/portable/MemMang/heap_4.c **** 					{
 208:Middlewares/Third_Party/FreeRTOS/Source/portable/MemMang/heap_4.c **** 						mtCOVERAGE_TEST_MARKER();
 209:Middlewares/Third_Party/FreeRTOS/Source/portable/MemMang/heap_4.c **** 					}
 210:Middlewares/Third_Party/FreeRTOS/Source/portable/MemMang/heap_4.c **** 
 211:Middlewares/Third_Party/FreeRTOS/Source/portable/MemMang/heap_4.c **** 					xFreeBytesRemaining -= pxBlock->xBlockSize;
 212:Middlewares/Third_Party/FreeRTOS/Source/portable/MemMang/heap_4.c **** 
 213:Middlewares/Third_Party/FreeRTOS/Source/portable/MemMang/heap_4.c **** 					if( xFreeBytesRemaining < xMinimumEverFreeBytesRemaining )
 214:Middlewares/Third_Party/FreeRTOS/Source/portable/MemMang/heap_4.c **** 					{
 215:Middlewares/Third_Party/FreeRTOS/Source/portable/MemMang/heap_4.c **** 						xMinimumEverFreeBytesRemaining = xFreeBytesRemaining;
 216:Middlewares/Third_Party/FreeRTOS/Source/portable/MemMang/heap_4.c **** 					}
 217:Middlewares/Third_Party/FreeRTOS/Source/portable/MemMang/heap_4.c **** 					else
 218:Middlewares/Third_Party/FreeRTOS/Source/portable/MemMang/heap_4.c **** 					{
 219:Middlewares/Third_Party/FreeRTOS/Source/portable/MemMang/heap_4.c **** 						mtCOVERAGE_TEST_MARKER();
 220:Middlewares/Third_Party/FreeRTOS/Source/portable/MemMang/heap_4.c **** 					}
 221:Middlewares/Third_Party/FreeRTOS/Source/portable/MemMang/heap_4.c **** 
 222:Middlewares/Third_Party/FreeRTOS/Source/portable/MemMang/heap_4.c **** 					/* The block is being returned - it is allocated and owned
 223:Middlewares/Third_Party/FreeRTOS/Source/portable/MemMang/heap_4.c **** 					by the application and has no "next" block. */
 224:Middlewares/Third_Party/FreeRTOS/Source/portable/MemMang/heap_4.c **** 					pxBlock->xBlockSize |= xBlockAllocatedBit;
 225:Middlewares/Third_Party/FreeRTOS/Source/portable/MemMang/heap_4.c **** 					pxBlock->pxNextFreeBlock = NULL;
 226:Middlewares/Third_Party/FreeRTOS/Source/portable/MemMang/heap_4.c **** 					xNumberOfSuccessfulAllocations++;
 227:Middlewares/Third_Party/FreeRTOS/Source/portable/MemMang/heap_4.c **** 				}
 228:Middlewares/Third_Party/FreeRTOS/Source/portable/MemMang/heap_4.c **** 				else
 229:Middlewares/Third_Party/FreeRTOS/Source/portable/MemMang/heap_4.c **** 				{
 230:Middlewares/Third_Party/FreeRTOS/Source/portable/MemMang/heap_4.c **** 					mtCOVERAGE_TEST_MARKER();
 231:Middlewares/Third_Party/FreeRTOS/Source/portable/MemMang/heap_4.c **** 				}
 232:Middlewares/Third_Party/FreeRTOS/Source/portable/MemMang/heap_4.c **** 			}
 233:Middlewares/Third_Party/FreeRTOS/Source/portable/MemMang/heap_4.c **** 			else
 234:Middlewares/Third_Party/FreeRTOS/Source/portable/MemMang/heap_4.c **** 			{
 235:Middlewares/Third_Party/FreeRTOS/Source/portable/MemMang/heap_4.c **** 				mtCOVERAGE_TEST_MARKER();
 236:Middlewares/Third_Party/FreeRTOS/Source/portable/MemMang/heap_4.c **** 			}
 237:Middlewares/Third_Party/FreeRTOS/Source/portable/MemMang/heap_4.c **** 		}
 238:Middlewares/Third_Party/FreeRTOS/Source/portable/MemMang/heap_4.c **** 		else
 239:Middlewares/Third_Party/FreeRTOS/Source/portable/MemMang/heap_4.c **** 		{
 240:Middlewares/Third_Party/FreeRTOS/Source/portable/MemMang/heap_4.c **** 			mtCOVERAGE_TEST_MARKER();
 241:Middlewares/Third_Party/FreeRTOS/Source/portable/MemMang/heap_4.c **** 		}
 242:Middlewares/Third_Party/FreeRTOS/Source/portable/MemMang/heap_4.c **** 
 243:Middlewares/Third_Party/FreeRTOS/Source/portable/MemMang/heap_4.c **** 		traceMALLOC( pvReturn, xWantedSize );
 244:Middlewares/Third_Party/FreeRTOS/Source/portable/MemMang/heap_4.c **** 	}
 245:Middlewares/Third_Party/FreeRTOS/Source/portable/MemMang/heap_4.c **** 	( void ) xTaskResumeAll();
 246:Middlewares/Third_Party/FreeRTOS/Source/portable/MemMang/heap_4.c **** 
 247:Middlewares/Third_Party/FreeRTOS/Source/portable/MemMang/heap_4.c **** 	#if( configUSE_MALLOC_FAILED_HOOK == 1 )
 248:Middlewares/Third_Party/FreeRTOS/Source/portable/MemMang/heap_4.c **** 	{
 249:Middlewares/Third_Party/FreeRTOS/Source/portable/MemMang/heap_4.c **** 		if( pvReturn == NULL )
 250:Middlewares/Third_Party/FreeRTOS/Source/portable/MemMang/heap_4.c **** 		{
 251:Middlewares/Third_Party/FreeRTOS/Source/portable/MemMang/heap_4.c **** 			extern void vApplicationMallocFailedHook( void );
 252:Middlewares/Third_Party/FreeRTOS/Source/portable/MemMang/heap_4.c **** 			vApplicationMallocFailedHook();
 253:Middlewares/Third_Party/FreeRTOS/Source/portable/MemMang/heap_4.c **** 		}
 254:Middlewares/Third_Party/FreeRTOS/Source/portable/MemMang/heap_4.c **** 		else
 255:Middlewares/Third_Party/FreeRTOS/Source/portable/MemMang/heap_4.c **** 		{
 256:Middlewares/Third_Party/FreeRTOS/Source/portable/MemMang/heap_4.c **** 			mtCOVERAGE_TEST_MARKER();
 257:Middlewares/Third_Party/FreeRTOS/Source/portable/MemMang/heap_4.c **** 		}
ARM GAS  /tmp/ccqqvZQq.s 			page 6


 258:Middlewares/Third_Party/FreeRTOS/Source/portable/MemMang/heap_4.c **** 	}
 259:Middlewares/Third_Party/FreeRTOS/Source/portable/MemMang/heap_4.c **** 	#endif
 260:Middlewares/Third_Party/FreeRTOS/Source/portable/MemMang/heap_4.c **** 
 261:Middlewares/Third_Party/FreeRTOS/Source/portable/MemMang/heap_4.c **** 	configASSERT( ( ( ( size_t ) pvReturn ) & ( size_t ) portBYTE_ALIGNMENT_MASK ) == 0 );
 262:Middlewares/Third_Party/FreeRTOS/Source/portable/MemMang/heap_4.c **** 	return pvReturn;
 263:Middlewares/Third_Party/FreeRTOS/Source/portable/MemMang/heap_4.c **** }
 264:Middlewares/Third_Party/FreeRTOS/Source/portable/MemMang/heap_4.c **** /*-----------------------------------------------------------*/
 265:Middlewares/Third_Party/FreeRTOS/Source/portable/MemMang/heap_4.c **** 
 266:Middlewares/Third_Party/FreeRTOS/Source/portable/MemMang/heap_4.c **** void vPortFree( void *pv )
 267:Middlewares/Third_Party/FreeRTOS/Source/portable/MemMang/heap_4.c **** {
 268:Middlewares/Third_Party/FreeRTOS/Source/portable/MemMang/heap_4.c **** uint8_t *puc = ( uint8_t * ) pv;
 269:Middlewares/Third_Party/FreeRTOS/Source/portable/MemMang/heap_4.c **** BlockLink_t *pxLink;
 270:Middlewares/Third_Party/FreeRTOS/Source/portable/MemMang/heap_4.c **** 
 271:Middlewares/Third_Party/FreeRTOS/Source/portable/MemMang/heap_4.c **** 	if( pv != NULL )
 272:Middlewares/Third_Party/FreeRTOS/Source/portable/MemMang/heap_4.c **** 	{
 273:Middlewares/Third_Party/FreeRTOS/Source/portable/MemMang/heap_4.c **** 		/* The memory being freed will have an BlockLink_t structure immediately
 274:Middlewares/Third_Party/FreeRTOS/Source/portable/MemMang/heap_4.c **** 		before it. */
 275:Middlewares/Third_Party/FreeRTOS/Source/portable/MemMang/heap_4.c **** 		puc -= xHeapStructSize;
 276:Middlewares/Third_Party/FreeRTOS/Source/portable/MemMang/heap_4.c **** 
 277:Middlewares/Third_Party/FreeRTOS/Source/portable/MemMang/heap_4.c **** 		/* This casting is to keep the compiler from issuing warnings. */
 278:Middlewares/Third_Party/FreeRTOS/Source/portable/MemMang/heap_4.c **** 		pxLink = ( void * ) puc;
 279:Middlewares/Third_Party/FreeRTOS/Source/portable/MemMang/heap_4.c **** 
 280:Middlewares/Third_Party/FreeRTOS/Source/portable/MemMang/heap_4.c **** 		/* Check the block is actually allocated. */
 281:Middlewares/Third_Party/FreeRTOS/Source/portable/MemMang/heap_4.c **** 		configASSERT( ( pxLink->xBlockSize & xBlockAllocatedBit ) != 0 );
 282:Middlewares/Third_Party/FreeRTOS/Source/portable/MemMang/heap_4.c **** 		configASSERT( pxLink->pxNextFreeBlock == NULL );
 283:Middlewares/Third_Party/FreeRTOS/Source/portable/MemMang/heap_4.c **** 
 284:Middlewares/Third_Party/FreeRTOS/Source/portable/MemMang/heap_4.c **** 		if( ( pxLink->xBlockSize & xBlockAllocatedBit ) != 0 )
 285:Middlewares/Third_Party/FreeRTOS/Source/portable/MemMang/heap_4.c **** 		{
 286:Middlewares/Third_Party/FreeRTOS/Source/portable/MemMang/heap_4.c **** 			if( pxLink->pxNextFreeBlock == NULL )
 287:Middlewares/Third_Party/FreeRTOS/Source/portable/MemMang/heap_4.c **** 			{
 288:Middlewares/Third_Party/FreeRTOS/Source/portable/MemMang/heap_4.c **** 				/* The block is being returned to the heap - it is no longer
 289:Middlewares/Third_Party/FreeRTOS/Source/portable/MemMang/heap_4.c **** 				allocated. */
 290:Middlewares/Third_Party/FreeRTOS/Source/portable/MemMang/heap_4.c **** 				pxLink->xBlockSize &= ~xBlockAllocatedBit;
 291:Middlewares/Third_Party/FreeRTOS/Source/portable/MemMang/heap_4.c **** 
 292:Middlewares/Third_Party/FreeRTOS/Source/portable/MemMang/heap_4.c **** 				vTaskSuspendAll();
 293:Middlewares/Third_Party/FreeRTOS/Source/portable/MemMang/heap_4.c **** 				{
 294:Middlewares/Third_Party/FreeRTOS/Source/portable/MemMang/heap_4.c **** 					/* Add this block to the list of free blocks. */
 295:Middlewares/Third_Party/FreeRTOS/Source/portable/MemMang/heap_4.c **** 					xFreeBytesRemaining += pxLink->xBlockSize;
 296:Middlewares/Third_Party/FreeRTOS/Source/portable/MemMang/heap_4.c **** 					traceFREE( pv, pxLink->xBlockSize );
 297:Middlewares/Third_Party/FreeRTOS/Source/portable/MemMang/heap_4.c **** 					prvInsertBlockIntoFreeList( ( ( BlockLink_t * ) pxLink ) );
 298:Middlewares/Third_Party/FreeRTOS/Source/portable/MemMang/heap_4.c **** 					xNumberOfSuccessfulFrees++;
 299:Middlewares/Third_Party/FreeRTOS/Source/portable/MemMang/heap_4.c **** 				}
 300:Middlewares/Third_Party/FreeRTOS/Source/portable/MemMang/heap_4.c **** 				( void ) xTaskResumeAll();
 301:Middlewares/Third_Party/FreeRTOS/Source/portable/MemMang/heap_4.c **** 			}
 302:Middlewares/Third_Party/FreeRTOS/Source/portable/MemMang/heap_4.c **** 			else
 303:Middlewares/Third_Party/FreeRTOS/Source/portable/MemMang/heap_4.c **** 			{
 304:Middlewares/Third_Party/FreeRTOS/Source/portable/MemMang/heap_4.c **** 				mtCOVERAGE_TEST_MARKER();
 305:Middlewares/Third_Party/FreeRTOS/Source/portable/MemMang/heap_4.c **** 			}
 306:Middlewares/Third_Party/FreeRTOS/Source/portable/MemMang/heap_4.c **** 		}
 307:Middlewares/Third_Party/FreeRTOS/Source/portable/MemMang/heap_4.c **** 		else
 308:Middlewares/Third_Party/FreeRTOS/Source/portable/MemMang/heap_4.c **** 		{
 309:Middlewares/Third_Party/FreeRTOS/Source/portable/MemMang/heap_4.c **** 			mtCOVERAGE_TEST_MARKER();
 310:Middlewares/Third_Party/FreeRTOS/Source/portable/MemMang/heap_4.c **** 		}
 311:Middlewares/Third_Party/FreeRTOS/Source/portable/MemMang/heap_4.c **** 	}
 312:Middlewares/Third_Party/FreeRTOS/Source/portable/MemMang/heap_4.c **** }
 313:Middlewares/Third_Party/FreeRTOS/Source/portable/MemMang/heap_4.c **** /*-----------------------------------------------------------*/
 314:Middlewares/Third_Party/FreeRTOS/Source/portable/MemMang/heap_4.c **** 
ARM GAS  /tmp/ccqqvZQq.s 			page 7


 315:Middlewares/Third_Party/FreeRTOS/Source/portable/MemMang/heap_4.c **** size_t xPortGetFreeHeapSize( void )
 316:Middlewares/Third_Party/FreeRTOS/Source/portable/MemMang/heap_4.c **** {
 317:Middlewares/Third_Party/FreeRTOS/Source/portable/MemMang/heap_4.c **** 	return xFreeBytesRemaining;
 318:Middlewares/Third_Party/FreeRTOS/Source/portable/MemMang/heap_4.c **** }
 319:Middlewares/Third_Party/FreeRTOS/Source/portable/MemMang/heap_4.c **** /*-----------------------------------------------------------*/
 320:Middlewares/Third_Party/FreeRTOS/Source/portable/MemMang/heap_4.c **** 
 321:Middlewares/Third_Party/FreeRTOS/Source/portable/MemMang/heap_4.c **** size_t xPortGetMinimumEverFreeHeapSize( void )
 322:Middlewares/Third_Party/FreeRTOS/Source/portable/MemMang/heap_4.c **** {
 323:Middlewares/Third_Party/FreeRTOS/Source/portable/MemMang/heap_4.c **** 	return xMinimumEverFreeBytesRemaining;
 324:Middlewares/Third_Party/FreeRTOS/Source/portable/MemMang/heap_4.c **** }
 325:Middlewares/Third_Party/FreeRTOS/Source/portable/MemMang/heap_4.c **** /*-----------------------------------------------------------*/
 326:Middlewares/Third_Party/FreeRTOS/Source/portable/MemMang/heap_4.c **** 
 327:Middlewares/Third_Party/FreeRTOS/Source/portable/MemMang/heap_4.c **** void vPortInitialiseBlocks( void )
 328:Middlewares/Third_Party/FreeRTOS/Source/portable/MemMang/heap_4.c **** {
 329:Middlewares/Third_Party/FreeRTOS/Source/portable/MemMang/heap_4.c **** 	/* This just exists to keep the linker quiet. */
 330:Middlewares/Third_Party/FreeRTOS/Source/portable/MemMang/heap_4.c **** }
 331:Middlewares/Third_Party/FreeRTOS/Source/portable/MemMang/heap_4.c **** /*-----------------------------------------------------------*/
 332:Middlewares/Third_Party/FreeRTOS/Source/portable/MemMang/heap_4.c **** 
 333:Middlewares/Third_Party/FreeRTOS/Source/portable/MemMang/heap_4.c **** static void prvHeapInit( void )
 334:Middlewares/Third_Party/FreeRTOS/Source/portable/MemMang/heap_4.c **** {
 335:Middlewares/Third_Party/FreeRTOS/Source/portable/MemMang/heap_4.c **** BlockLink_t *pxFirstFreeBlock;
 336:Middlewares/Third_Party/FreeRTOS/Source/portable/MemMang/heap_4.c **** uint8_t *pucAlignedHeap;
 337:Middlewares/Third_Party/FreeRTOS/Source/portable/MemMang/heap_4.c **** size_t uxAddress;
 338:Middlewares/Third_Party/FreeRTOS/Source/portable/MemMang/heap_4.c **** size_t xTotalHeapSize = configTOTAL_HEAP_SIZE;
 339:Middlewares/Third_Party/FreeRTOS/Source/portable/MemMang/heap_4.c **** 
 340:Middlewares/Third_Party/FreeRTOS/Source/portable/MemMang/heap_4.c **** 	/* Ensure the heap starts on a correctly aligned boundary. */
 341:Middlewares/Third_Party/FreeRTOS/Source/portable/MemMang/heap_4.c **** 	uxAddress = ( size_t ) ucHeap;
 342:Middlewares/Third_Party/FreeRTOS/Source/portable/MemMang/heap_4.c **** 
 343:Middlewares/Third_Party/FreeRTOS/Source/portable/MemMang/heap_4.c **** 	if( ( uxAddress & portBYTE_ALIGNMENT_MASK ) != 0 )
 344:Middlewares/Third_Party/FreeRTOS/Source/portable/MemMang/heap_4.c **** 	{
 345:Middlewares/Third_Party/FreeRTOS/Source/portable/MemMang/heap_4.c **** 		uxAddress += ( portBYTE_ALIGNMENT - 1 );
 346:Middlewares/Third_Party/FreeRTOS/Source/portable/MemMang/heap_4.c **** 		uxAddress &= ~( ( size_t ) portBYTE_ALIGNMENT_MASK );
 347:Middlewares/Third_Party/FreeRTOS/Source/portable/MemMang/heap_4.c **** 		xTotalHeapSize -= uxAddress - ( size_t ) ucHeap;
 348:Middlewares/Third_Party/FreeRTOS/Source/portable/MemMang/heap_4.c **** 	}
 349:Middlewares/Third_Party/FreeRTOS/Source/portable/MemMang/heap_4.c **** 
 350:Middlewares/Third_Party/FreeRTOS/Source/portable/MemMang/heap_4.c **** 	pucAlignedHeap = ( uint8_t * ) uxAddress;
 351:Middlewares/Third_Party/FreeRTOS/Source/portable/MemMang/heap_4.c **** 
 352:Middlewares/Third_Party/FreeRTOS/Source/portable/MemMang/heap_4.c **** 	/* xStart is used to hold a pointer to the first item in the list of free
 353:Middlewares/Third_Party/FreeRTOS/Source/portable/MemMang/heap_4.c **** 	blocks.  The void cast is used to prevent compiler warnings. */
 354:Middlewares/Third_Party/FreeRTOS/Source/portable/MemMang/heap_4.c **** 	xStart.pxNextFreeBlock = ( void * ) pucAlignedHeap;
 355:Middlewares/Third_Party/FreeRTOS/Source/portable/MemMang/heap_4.c **** 	xStart.xBlockSize = ( size_t ) 0;
 356:Middlewares/Third_Party/FreeRTOS/Source/portable/MemMang/heap_4.c **** 
 357:Middlewares/Third_Party/FreeRTOS/Source/portable/MemMang/heap_4.c **** 	/* pxEnd is used to mark the end of the list of free blocks and is inserted
 358:Middlewares/Third_Party/FreeRTOS/Source/portable/MemMang/heap_4.c **** 	at the end of the heap space. */
 359:Middlewares/Third_Party/FreeRTOS/Source/portable/MemMang/heap_4.c **** 	uxAddress = ( ( size_t ) pucAlignedHeap ) + xTotalHeapSize;
 360:Middlewares/Third_Party/FreeRTOS/Source/portable/MemMang/heap_4.c **** 	uxAddress -= xHeapStructSize;
 361:Middlewares/Third_Party/FreeRTOS/Source/portable/MemMang/heap_4.c **** 	uxAddress &= ~( ( size_t ) portBYTE_ALIGNMENT_MASK );
 362:Middlewares/Third_Party/FreeRTOS/Source/portable/MemMang/heap_4.c **** 	pxEnd = ( void * ) uxAddress;
 363:Middlewares/Third_Party/FreeRTOS/Source/portable/MemMang/heap_4.c **** 	pxEnd->xBlockSize = 0;
 364:Middlewares/Third_Party/FreeRTOS/Source/portable/MemMang/heap_4.c **** 	pxEnd->pxNextFreeBlock = NULL;
 365:Middlewares/Third_Party/FreeRTOS/Source/portable/MemMang/heap_4.c **** 
 366:Middlewares/Third_Party/FreeRTOS/Source/portable/MemMang/heap_4.c **** 	/* To start with there is a single free block that is sized to take up the
 367:Middlewares/Third_Party/FreeRTOS/Source/portable/MemMang/heap_4.c **** 	entire heap space, minus the space taken by pxEnd. */
 368:Middlewares/Third_Party/FreeRTOS/Source/portable/MemMang/heap_4.c **** 	pxFirstFreeBlock = ( void * ) pucAlignedHeap;
 369:Middlewares/Third_Party/FreeRTOS/Source/portable/MemMang/heap_4.c **** 	pxFirstFreeBlock->xBlockSize = uxAddress - ( size_t ) pxFirstFreeBlock;
 370:Middlewares/Third_Party/FreeRTOS/Source/portable/MemMang/heap_4.c **** 	pxFirstFreeBlock->pxNextFreeBlock = pxEnd;
 371:Middlewares/Third_Party/FreeRTOS/Source/portable/MemMang/heap_4.c **** 
ARM GAS  /tmp/ccqqvZQq.s 			page 8


 372:Middlewares/Third_Party/FreeRTOS/Source/portable/MemMang/heap_4.c **** 	/* Only one block exists - and it covers the entire usable heap space. */
 373:Middlewares/Third_Party/FreeRTOS/Source/portable/MemMang/heap_4.c **** 	xMinimumEverFreeBytesRemaining = pxFirstFreeBlock->xBlockSize;
 374:Middlewares/Third_Party/FreeRTOS/Source/portable/MemMang/heap_4.c **** 	xFreeBytesRemaining = pxFirstFreeBlock->xBlockSize;
 375:Middlewares/Third_Party/FreeRTOS/Source/portable/MemMang/heap_4.c **** 
 376:Middlewares/Third_Party/FreeRTOS/Source/portable/MemMang/heap_4.c **** 	/* Work out the position of the top bit in a size_t variable. */
 377:Middlewares/Third_Party/FreeRTOS/Source/portable/MemMang/heap_4.c **** 	xBlockAllocatedBit = ( ( size_t ) 1 ) << ( ( sizeof( size_t ) * heapBITS_PER_BYTE ) - 1 );
 378:Middlewares/Third_Party/FreeRTOS/Source/portable/MemMang/heap_4.c **** }
 379:Middlewares/Third_Party/FreeRTOS/Source/portable/MemMang/heap_4.c **** /*-----------------------------------------------------------*/
 380:Middlewares/Third_Party/FreeRTOS/Source/portable/MemMang/heap_4.c **** 
 381:Middlewares/Third_Party/FreeRTOS/Source/portable/MemMang/heap_4.c **** static void prvInsertBlockIntoFreeList( BlockLink_t *pxBlockToInsert )
 382:Middlewares/Third_Party/FreeRTOS/Source/portable/MemMang/heap_4.c **** {
  30              		.loc 1 382 1 view -0
  31              		.cfi_startproc
  32              		@ args = 0, pretend = 0, frame = 0
  33              		@ frame_needed = 0, uses_anonymous_args = 0
  34              		@ link register save eliminated.
 383:Middlewares/Third_Party/FreeRTOS/Source/portable/MemMang/heap_4.c **** BlockLink_t *pxIterator;
  35              		.loc 1 383 1 view .LVU1
 384:Middlewares/Third_Party/FreeRTOS/Source/portable/MemMang/heap_4.c **** uint8_t *puc;
  36              		.loc 1 384 1 view .LVU2
 385:Middlewares/Third_Party/FreeRTOS/Source/portable/MemMang/heap_4.c **** 
 386:Middlewares/Third_Party/FreeRTOS/Source/portable/MemMang/heap_4.c **** 	/* Iterate through the list until a block is found that has a higher address
 387:Middlewares/Third_Party/FreeRTOS/Source/portable/MemMang/heap_4.c **** 	than the block being inserted. */
 388:Middlewares/Third_Party/FreeRTOS/Source/portable/MemMang/heap_4.c **** 	for( pxIterator = &xStart; pxIterator->pxNextFreeBlock < pxBlockToInsert; pxIterator = pxIterator-
  37              		.loc 1 388 2 view .LVU3
 382:Middlewares/Third_Party/FreeRTOS/Source/portable/MemMang/heap_4.c **** BlockLink_t *pxIterator;
  38              		.loc 1 382 1 is_stmt 0 view .LVU4
  39 0000 10B4     		push	{r4}
  40              		.cfi_def_cfa_offset 4
  41              		.cfi_offset 4, -4
  42              		.loc 1 388 18 view .LVU5
  43 0002 164B     		ldr	r3, .L13
  44              	.LVL1:
  45              	.L2:
  46              		.loc 1 388 29 is_stmt 1 discriminator 1 view .LVU6
  47 0004 1A46     		mov	r2, r3
  48              		.loc 1 388 39 is_stmt 0 discriminator 1 view .LVU7
  49 0006 1B68     		ldr	r3, [r3]
  50              	.LVL2:
  51              		.loc 1 388 2 discriminator 1 view .LVU8
  52 0008 8342     		cmp	r3, r0
  53 000a FBD3     		bcc	.L2
 389:Middlewares/Third_Party/FreeRTOS/Source/portable/MemMang/heap_4.c **** 	{
 390:Middlewares/Third_Party/FreeRTOS/Source/portable/MemMang/heap_4.c **** 		/* Nothing to do here, just iterate to the right position. */
 391:Middlewares/Third_Party/FreeRTOS/Source/portable/MemMang/heap_4.c **** 	}
 392:Middlewares/Third_Party/FreeRTOS/Source/portable/MemMang/heap_4.c **** 
 393:Middlewares/Third_Party/FreeRTOS/Source/portable/MemMang/heap_4.c **** 	/* Do the block being inserted, and the block it is being inserted after
 394:Middlewares/Third_Party/FreeRTOS/Source/portable/MemMang/heap_4.c **** 	make a contiguous block of memory? */
 395:Middlewares/Third_Party/FreeRTOS/Source/portable/MemMang/heap_4.c **** 	puc = ( uint8_t * ) pxIterator;
  54              		.loc 1 395 2 is_stmt 1 view .LVU9
  55              	.LVL3:
 396:Middlewares/Third_Party/FreeRTOS/Source/portable/MemMang/heap_4.c **** 	if( ( puc + pxIterator->xBlockSize ) == ( uint8_t * ) pxBlockToInsert )
  56              		.loc 1 396 2 view .LVU10
  57              		.loc 1 396 24 is_stmt 0 view .LVU11
  58 000c 5168     		ldr	r1, [r2, #4]
  59              		.loc 1 396 12 view .LVU12
  60 000e 02EB010C 		add	ip, r2, r1
ARM GAS  /tmp/ccqqvZQq.s 			page 9


  61              		.loc 1 396 4 view .LVU13
  62 0012 6045     		cmp	r0, ip
  63 0014 0BD0     		beq	.L3
 397:Middlewares/Third_Party/FreeRTOS/Source/portable/MemMang/heap_4.c **** 	{
 398:Middlewares/Third_Party/FreeRTOS/Source/portable/MemMang/heap_4.c **** 		pxIterator->xBlockSize += pxBlockToInsert->xBlockSize;
 399:Middlewares/Third_Party/FreeRTOS/Source/portable/MemMang/heap_4.c **** 		pxBlockToInsert = pxIterator;
 400:Middlewares/Third_Party/FreeRTOS/Source/portable/MemMang/heap_4.c **** 	}
 401:Middlewares/Third_Party/FreeRTOS/Source/portable/MemMang/heap_4.c **** 	else
 402:Middlewares/Third_Party/FreeRTOS/Source/portable/MemMang/heap_4.c **** 	{
 403:Middlewares/Third_Party/FreeRTOS/Source/portable/MemMang/heap_4.c **** 		mtCOVERAGE_TEST_MARKER();
 404:Middlewares/Third_Party/FreeRTOS/Source/portable/MemMang/heap_4.c **** 	}
 405:Middlewares/Third_Party/FreeRTOS/Source/portable/MemMang/heap_4.c **** 
 406:Middlewares/Third_Party/FreeRTOS/Source/portable/MemMang/heap_4.c **** 	/* Do the block being inserted, and the block it is being inserted before
 407:Middlewares/Third_Party/FreeRTOS/Source/portable/MemMang/heap_4.c **** 	make a contiguous block of memory? */
 408:Middlewares/Third_Party/FreeRTOS/Source/portable/MemMang/heap_4.c **** 	puc = ( uint8_t * ) pxBlockToInsert;
 409:Middlewares/Third_Party/FreeRTOS/Source/portable/MemMang/heap_4.c **** 	if( ( puc + pxBlockToInsert->xBlockSize ) == ( uint8_t * ) pxIterator->pxNextFreeBlock )
  64              		.loc 1 409 29 view .LVU14
  65 0016 4168     		ldr	r1, [r0, #4]
 403:Middlewares/Third_Party/FreeRTOS/Source/portable/MemMang/heap_4.c **** 	}
  66              		.loc 1 403 27 is_stmt 1 view .LVU15
 408:Middlewares/Third_Party/FreeRTOS/Source/portable/MemMang/heap_4.c **** 	if( ( puc + pxBlockToInsert->xBlockSize ) == ( uint8_t * ) pxIterator->pxNextFreeBlock )
  67              		.loc 1 408 2 view .LVU16
  68              	.LVL4:
  69              		.loc 1 409 2 view .LVU17
  70              		.loc 1 409 12 is_stmt 0 view .LVU18
  71 0018 00EB010C 		add	ip, r0, r1
  72              		.loc 1 409 4 view .LVU19
  73 001c 6345     		cmp	r3, ip
  74 001e 0ED0     		beq	.L12
  75              	.L5:
 410:Middlewares/Third_Party/FreeRTOS/Source/portable/MemMang/heap_4.c **** 	{
 411:Middlewares/Third_Party/FreeRTOS/Source/portable/MemMang/heap_4.c **** 		if( pxIterator->pxNextFreeBlock != pxEnd )
 412:Middlewares/Third_Party/FreeRTOS/Source/portable/MemMang/heap_4.c **** 		{
 413:Middlewares/Third_Party/FreeRTOS/Source/portable/MemMang/heap_4.c **** 			/* Form one big block from the two blocks. */
 414:Middlewares/Third_Party/FreeRTOS/Source/portable/MemMang/heap_4.c **** 			pxBlockToInsert->xBlockSize += pxIterator->pxNextFreeBlock->xBlockSize;
 415:Middlewares/Third_Party/FreeRTOS/Source/portable/MemMang/heap_4.c **** 			pxBlockToInsert->pxNextFreeBlock = pxIterator->pxNextFreeBlock->pxNextFreeBlock;
 416:Middlewares/Third_Party/FreeRTOS/Source/portable/MemMang/heap_4.c **** 		}
 417:Middlewares/Third_Party/FreeRTOS/Source/portable/MemMang/heap_4.c **** 		else
 418:Middlewares/Third_Party/FreeRTOS/Source/portable/MemMang/heap_4.c **** 		{
 419:Middlewares/Third_Party/FreeRTOS/Source/portable/MemMang/heap_4.c **** 			pxBlockToInsert->pxNextFreeBlock = pxEnd;
 420:Middlewares/Third_Party/FreeRTOS/Source/portable/MemMang/heap_4.c **** 		}
 421:Middlewares/Third_Party/FreeRTOS/Source/portable/MemMang/heap_4.c **** 	}
 422:Middlewares/Third_Party/FreeRTOS/Source/portable/MemMang/heap_4.c **** 	else
 423:Middlewares/Third_Party/FreeRTOS/Source/portable/MemMang/heap_4.c **** 	{
 424:Middlewares/Third_Party/FreeRTOS/Source/portable/MemMang/heap_4.c **** 		pxBlockToInsert->pxNextFreeBlock = pxIterator->pxNextFreeBlock;
  76              		.loc 1 424 3 is_stmt 1 view .LVU20
 425:Middlewares/Third_Party/FreeRTOS/Source/portable/MemMang/heap_4.c **** 	}
 426:Middlewares/Third_Party/FreeRTOS/Source/portable/MemMang/heap_4.c **** 
 427:Middlewares/Third_Party/FreeRTOS/Source/portable/MemMang/heap_4.c **** 	/* If the block being inserted plugged a gab, so was merged with the block
 428:Middlewares/Third_Party/FreeRTOS/Source/portable/MemMang/heap_4.c **** 	before and the block after, then it's pxNextFreeBlock pointer will have
 429:Middlewares/Third_Party/FreeRTOS/Source/portable/MemMang/heap_4.c **** 	already been set, and should not be set here as that would make it point
 430:Middlewares/Third_Party/FreeRTOS/Source/portable/MemMang/heap_4.c **** 	to itself. */
 431:Middlewares/Third_Party/FreeRTOS/Source/portable/MemMang/heap_4.c **** 	if( pxIterator != pxBlockToInsert )
  77              		.loc 1 431 4 is_stmt 0 view .LVU21
  78 0020 9042     		cmp	r0, r2
 424:Middlewares/Third_Party/FreeRTOS/Source/portable/MemMang/heap_4.c **** 	}
  79              		.loc 1 424 36 view .LVU22
ARM GAS  /tmp/ccqqvZQq.s 			page 10


  80 0022 0360     		str	r3, [r0]
  81              		.loc 1 431 2 is_stmt 1 view .LVU23
 432:Middlewares/Third_Party/FreeRTOS/Source/portable/MemMang/heap_4.c **** 	{
 433:Middlewares/Third_Party/FreeRTOS/Source/portable/MemMang/heap_4.c **** 		pxIterator->pxNextFreeBlock = pxBlockToInsert;
  82              		.loc 1 433 3 view .LVU24
 434:Middlewares/Third_Party/FreeRTOS/Source/portable/MemMang/heap_4.c **** 	}
 435:Middlewares/Third_Party/FreeRTOS/Source/portable/MemMang/heap_4.c **** 	else
 436:Middlewares/Third_Party/FreeRTOS/Source/portable/MemMang/heap_4.c **** 	{
 437:Middlewares/Third_Party/FreeRTOS/Source/portable/MemMang/heap_4.c **** 		mtCOVERAGE_TEST_MARKER();
 438:Middlewares/Third_Party/FreeRTOS/Source/portable/MemMang/heap_4.c **** 	}
 439:Middlewares/Third_Party/FreeRTOS/Source/portable/MemMang/heap_4.c **** }
  83              		.loc 1 439 1 is_stmt 0 view .LVU25
  84 0024 5DF8044B 		ldr	r4, [sp], #4
  85              		.cfi_remember_state
  86              		.cfi_restore 4
  87              		.cfi_def_cfa_offset 0
 433:Middlewares/Third_Party/FreeRTOS/Source/portable/MemMang/heap_4.c **** 	}
  88              		.loc 1 433 31 view .LVU26
  89 0028 18BF     		it	ne
  90 002a 1060     		strne	r0, [r2]
 437:Middlewares/Third_Party/FreeRTOS/Source/portable/MemMang/heap_4.c **** 	}
  91              		.loc 1 437 27 is_stmt 1 view .LVU27
  92              		.loc 1 439 1 is_stmt 0 view .LVU28
  93 002c 7047     		bx	lr
  94              	.LVL5:
  95              	.L3:
  96              		.cfi_restore_state
 398:Middlewares/Third_Party/FreeRTOS/Source/portable/MemMang/heap_4.c **** 		pxBlockToInsert = pxIterator;
  97              		.loc 1 398 3 is_stmt 1 view .LVU29
 398:Middlewares/Third_Party/FreeRTOS/Source/portable/MemMang/heap_4.c **** 		pxBlockToInsert = pxIterator;
  98              		.loc 1 398 26 is_stmt 0 view .LVU30
  99 002e 4468     		ldr	r4, [r0, #4]
 100 0030 1046     		mov	r0, r2
 101              	.LVL6:
 398:Middlewares/Third_Party/FreeRTOS/Source/portable/MemMang/heap_4.c **** 		pxBlockToInsert = pxIterator;
 102              		.loc 1 398 26 view .LVU31
 103 0032 2144     		add	r1, r1, r4
 409:Middlewares/Third_Party/FreeRTOS/Source/portable/MemMang/heap_4.c **** 	{
 104              		.loc 1 409 12 view .LVU32
 105 0034 00EB010C 		add	ip, r0, r1
 409:Middlewares/Third_Party/FreeRTOS/Source/portable/MemMang/heap_4.c **** 	{
 106              		.loc 1 409 4 view .LVU33
 107 0038 6345     		cmp	r3, ip
 398:Middlewares/Third_Party/FreeRTOS/Source/portable/MemMang/heap_4.c **** 		pxBlockToInsert = pxIterator;
 108              		.loc 1 398 26 view .LVU34
 109 003a 5160     		str	r1, [r2, #4]
 399:Middlewares/Third_Party/FreeRTOS/Source/portable/MemMang/heap_4.c **** 	}
 110              		.loc 1 399 3 is_stmt 1 view .LVU35
 111              	.LVL7:
 403:Middlewares/Third_Party/FreeRTOS/Source/portable/MemMang/heap_4.c **** 	}
 112              		.loc 1 403 27 view .LVU36
 408:Middlewares/Third_Party/FreeRTOS/Source/portable/MemMang/heap_4.c **** 	if( ( puc + pxBlockToInsert->xBlockSize ) == ( uint8_t * ) pxIterator->pxNextFreeBlock )
 113              		.loc 1 408 2 view .LVU37
 409:Middlewares/Third_Party/FreeRTOS/Source/portable/MemMang/heap_4.c **** 	{
 114              		.loc 1 409 2 view .LVU38
 409:Middlewares/Third_Party/FreeRTOS/Source/portable/MemMang/heap_4.c **** 	{
 115              		.loc 1 409 4 is_stmt 0 view .LVU39
ARM GAS  /tmp/ccqqvZQq.s 			page 11


 116 003c F0D1     		bne	.L5
 117              	.L12:
 411:Middlewares/Third_Party/FreeRTOS/Source/portable/MemMang/heap_4.c **** 		{
 118              		.loc 1 411 3 is_stmt 1 view .LVU40
 411:Middlewares/Third_Party/FreeRTOS/Source/portable/MemMang/heap_4.c **** 		{
 119              		.loc 1 411 35 is_stmt 0 view .LVU41
 120 003e 084C     		ldr	r4, .L13+4
 121 0040 2468     		ldr	r4, [r4]
 411:Middlewares/Third_Party/FreeRTOS/Source/portable/MemMang/heap_4.c **** 		{
 122              		.loc 1 411 5 view .LVU42
 123 0042 A342     		cmp	r3, r4
 124 0044 ECD0     		beq	.L5
 414:Middlewares/Third_Party/FreeRTOS/Source/portable/MemMang/heap_4.c **** 			pxBlockToInsert->pxNextFreeBlock = pxIterator->pxNextFreeBlock->pxNextFreeBlock;
 125              		.loc 1 414 4 is_stmt 1 view .LVU43
 415:Middlewares/Third_Party/FreeRTOS/Source/portable/MemMang/heap_4.c **** 		}
 126              		.loc 1 415 66 is_stmt 0 view .LVU44
 127 0046 D3E90034 		ldrd	r3, r4, [r3]
 431:Middlewares/Third_Party/FreeRTOS/Source/portable/MemMang/heap_4.c **** 	{
 128              		.loc 1 431 4 view .LVU45
 129 004a 9042     		cmp	r0, r2
 414:Middlewares/Third_Party/FreeRTOS/Source/portable/MemMang/heap_4.c **** 			pxBlockToInsert->pxNextFreeBlock = pxIterator->pxNextFreeBlock->pxNextFreeBlock;
 130              		.loc 1 414 32 view .LVU46
 131 004c 2144     		add	r1, r1, r4
 415:Middlewares/Third_Party/FreeRTOS/Source/portable/MemMang/heap_4.c **** 		}
 132              		.loc 1 415 37 view .LVU47
 133 004e C0E90031 		strd	r3, r1, [r0]
 431:Middlewares/Third_Party/FreeRTOS/Source/portable/MemMang/heap_4.c **** 	{
 134              		.loc 1 431 2 is_stmt 1 view .LVU48
 433:Middlewares/Third_Party/FreeRTOS/Source/portable/MemMang/heap_4.c **** 	}
 135              		.loc 1 433 3 view .LVU49
 136              		.loc 1 439 1 is_stmt 0 view .LVU50
 137 0052 5DF8044B 		ldr	r4, [sp], #4
 138              		.cfi_restore 4
 139              		.cfi_def_cfa_offset 0
 433:Middlewares/Third_Party/FreeRTOS/Source/portable/MemMang/heap_4.c **** 	}
 140              		.loc 1 433 31 view .LVU51
 141 0056 18BF     		it	ne
 142 0058 1060     		strne	r0, [r2]
 437:Middlewares/Third_Party/FreeRTOS/Source/portable/MemMang/heap_4.c **** 	}
 143              		.loc 1 437 27 is_stmt 1 view .LVU52
 144              		.loc 1 439 1 is_stmt 0 view .LVU53
 145 005a 7047     		bx	lr
 146              	.L14:
 147              		.align	2
 148              	.L13:
 149 005c 00000000 		.word	.LANCHOR0
 150 0060 00000000 		.word	.LANCHOR1
 151              		.cfi_endproc
 152              	.LFE11:
 154              		.section	.text.pvPortMalloc,"ax",%progbits
 155              		.align	1
 156              		.p2align 2,,3
 157              		.global	pvPortMalloc
 158              		.syntax unified
 159              		.thumb
 160              		.thumb_func
 162              	pvPortMalloc:
ARM GAS  /tmp/ccqqvZQq.s 			page 12


 163              	.LVL8:
 164              	.LFB5:
 116:Middlewares/Third_Party/FreeRTOS/Source/portable/MemMang/heap_4.c **** BlockLink_t *pxBlock, *pxPreviousBlock, *pxNewBlockLink;
 165              		.loc 1 116 1 is_stmt 1 view -0
 166              		.cfi_startproc
 167              		@ args = 0, pretend = 0, frame = 0
 168              		@ frame_needed = 0, uses_anonymous_args = 0
 117:Middlewares/Third_Party/FreeRTOS/Source/portable/MemMang/heap_4.c **** void *pvReturn = NULL;
 169              		.loc 1 117 1 view .LVU55
 118:Middlewares/Third_Party/FreeRTOS/Source/portable/MemMang/heap_4.c **** 
 170              		.loc 1 118 1 view .LVU56
 120:Middlewares/Third_Party/FreeRTOS/Source/portable/MemMang/heap_4.c **** 	{
 171              		.loc 1 120 2 view .LVU57
 116:Middlewares/Third_Party/FreeRTOS/Source/portable/MemMang/heap_4.c **** BlockLink_t *pxBlock, *pxPreviousBlock, *pxNewBlockLink;
 172              		.loc 1 116 1 is_stmt 0 view .LVU58
 173 0000 2DE9F041 		push	{r4, r5, r6, r7, r8, lr}
 174              		.cfi_def_cfa_offset 24
 175              		.cfi_offset 4, -24
 176              		.cfi_offset 5, -20
 177              		.cfi_offset 6, -16
 178              		.cfi_offset 7, -12
 179              		.cfi_offset 8, -8
 180              		.cfi_offset 14, -4
 124:Middlewares/Third_Party/FreeRTOS/Source/portable/MemMang/heap_4.c **** 		{
 181              		.loc 1 124 13 view .LVU59
 182 0004 424E     		ldr	r6, .L45
 116:Middlewares/Third_Party/FreeRTOS/Source/portable/MemMang/heap_4.c **** BlockLink_t *pxBlock, *pxPreviousBlock, *pxNewBlockLink;
 183              		.loc 1 116 1 view .LVU60
 184 0006 0446     		mov	r4, r0
 120:Middlewares/Third_Party/FreeRTOS/Source/portable/MemMang/heap_4.c **** 	{
 185              		.loc 1 120 2 view .LVU61
 186 0008 FFF7FEFF 		bl	vTaskSuspendAll
 187              	.LVL9:
 124:Middlewares/Third_Party/FreeRTOS/Source/portable/MemMang/heap_4.c **** 		{
 188              		.loc 1 124 3 is_stmt 1 view .LVU62
 124:Middlewares/Third_Party/FreeRTOS/Source/portable/MemMang/heap_4.c **** 		{
 189              		.loc 1 124 5 is_stmt 0 view .LVU63
 190 000c 3368     		ldr	r3, [r6]
 191 000e 002B     		cmp	r3, #0
 192 0010 5BD0     		beq	.L16
 137:Middlewares/Third_Party/FreeRTOS/Source/portable/MemMang/heap_4.c **** 		{
 193              		.loc 1 137 21 view .LVU64
 194 0012 404B     		ldr	r3, .L45+4
 195 0014 1D68     		ldr	r5, [r3]
 196              	.L17:
 130:Middlewares/Third_Party/FreeRTOS/Source/portable/MemMang/heap_4.c **** 		}
 197              		.loc 1 130 28 is_stmt 1 view .LVU65
 137:Middlewares/Third_Party/FreeRTOS/Source/portable/MemMang/heap_4.c **** 		{
 198              		.loc 1 137 3 view .LVU66
 137:Middlewares/Third_Party/FreeRTOS/Source/portable/MemMang/heap_4.c **** 		{
 199              		.loc 1 137 5 is_stmt 0 view .LVU67
 200 0016 2C42     		tst	r4, r5
 201 0018 2FD1     		bne	.L20
 141:Middlewares/Third_Party/FreeRTOS/Source/portable/MemMang/heap_4.c **** 			{
 202              		.loc 1 141 4 is_stmt 1 view .LVU68
 141:Middlewares/Third_Party/FreeRTOS/Source/portable/MemMang/heap_4.c **** 			{
 203              		.loc 1 141 6 is_stmt 0 view .LVU69
ARM GAS  /tmp/ccqqvZQq.s 			page 13


 204 001a 74B3     		cbz	r4, .L20
 143:Middlewares/Third_Party/FreeRTOS/Source/portable/MemMang/heap_4.c **** 
 205              		.loc 1 143 5 is_stmt 1 view .LVU70
 143:Middlewares/Third_Party/FreeRTOS/Source/portable/MemMang/heap_4.c **** 
 206              		.loc 1 143 17 is_stmt 0 view .LVU71
 207 001c 04F10801 		add	r1, r4, #8
 208              	.LVL10:
 147:Middlewares/Third_Party/FreeRTOS/Source/portable/MemMang/heap_4.c **** 				{
 209              		.loc 1 147 5 is_stmt 1 view .LVU72
 147:Middlewares/Third_Party/FreeRTOS/Source/portable/MemMang/heap_4.c **** 				{
 210              		.loc 1 147 7 is_stmt 0 view .LVU73
 211 0020 6007     		lsls	r0, r4, #29
 150:Middlewares/Third_Party/FreeRTOS/Source/portable/MemMang/heap_4.c **** 					configASSERT( ( xWantedSize & portBYTE_ALIGNMENT_MASK ) == 0 );
 212              		.loc 1 150 6 is_stmt 1 view .LVU74
 150:Middlewares/Third_Party/FreeRTOS/Source/portable/MemMang/heap_4.c **** 					configASSERT( ( xWantedSize & portBYTE_ALIGNMENT_MASK ) == 0 );
 213              		.loc 1 150 18 is_stmt 0 view .LVU75
 214 0022 1CBF     		itt	ne
 215 0024 21F00701 		bicne	r1, r1, #7
 216              	.LVL11:
 150:Middlewares/Third_Party/FreeRTOS/Source/portable/MemMang/heap_4.c **** 					configASSERT( ( xWantedSize & portBYTE_ALIGNMENT_MASK ) == 0 );
 217              		.loc 1 150 18 view .LVU76
 218 0028 0831     		addne	r1, r1, #8
 219              	.LVL12:
 151:Middlewares/Third_Party/FreeRTOS/Source/portable/MemMang/heap_4.c **** 				}
 220              		.loc 1 151 6 is_stmt 1 view .LVU77
 160:Middlewares/Third_Party/FreeRTOS/Source/portable/MemMang/heap_4.c **** 			}
 221              		.loc 1 160 29 view .LVU78
 163:Middlewares/Third_Party/FreeRTOS/Source/portable/MemMang/heap_4.c **** 			{
 222              		.loc 1 163 4 view .LVU79
 163:Middlewares/Third_Party/FreeRTOS/Source/portable/MemMang/heap_4.c **** 			{
 223              		.loc 1 163 6 is_stmt 0 view .LVU80
 224 002a 31B3     		cbz	r1, .L20
 163:Middlewares/Third_Party/FreeRTOS/Source/portable/MemMang/heap_4.c **** 			{
 225              		.loc 1 163 45 discriminator 1 view .LVU81
 226 002c DFF8F880 		ldr	r8, .L45+24
 227 0030 D8F80070 		ldr	r7, [r8]
 163:Middlewares/Third_Party/FreeRTOS/Source/portable/MemMang/heap_4.c **** 			{
 228              		.loc 1 163 28 discriminator 1 view .LVU82
 229 0034 8F42     		cmp	r7, r1
 230 0036 20D3     		bcc	.L20
 167:Middlewares/Third_Party/FreeRTOS/Source/portable/MemMang/heap_4.c **** 				pxBlock = xStart.pxNextFreeBlock;
 231              		.loc 1 167 5 is_stmt 1 view .LVU83
 232              	.LVL13:
 168:Middlewares/Third_Party/FreeRTOS/Source/portable/MemMang/heap_4.c **** 				while( ( pxBlock->xBlockSize < xWantedSize ) && ( pxBlock->pxNextFreeBlock != NULL ) )
 233              		.loc 1 168 5 view .LVU84
 168:Middlewares/Third_Party/FreeRTOS/Source/portable/MemMang/heap_4.c **** 				while( ( pxBlock->xBlockSize < xWantedSize ) && ( pxBlock->pxNextFreeBlock != NULL ) )
 234              		.loc 1 168 13 is_stmt 0 view .LVU85
 235 0038 3748     		ldr	r0, .L45+8
 236 003a 0468     		ldr	r4, [r0]
 237              	.LVL14:
 169:Middlewares/Third_Party/FreeRTOS/Source/portable/MemMang/heap_4.c **** 				{
 238              		.loc 1 169 5 is_stmt 1 view .LVU86
 169:Middlewares/Third_Party/FreeRTOS/Source/portable/MemMang/heap_4.c **** 				{
 239              		.loc 1 169 10 is_stmt 0 view .LVU87
 240 003c 03E0     		b	.L23
 241              	.LVL15:
 242              	.L44:
ARM GAS  /tmp/ccqqvZQq.s 			page 14


 169:Middlewares/Third_Party/FreeRTOS/Source/portable/MemMang/heap_4.c **** 				{
 243              		.loc 1 169 62 discriminator 1 view .LVU88
 244 003e 2368     		ldr	r3, [r4]
 169:Middlewares/Third_Party/FreeRTOS/Source/portable/MemMang/heap_4.c **** 				{
 245              		.loc 1 169 50 discriminator 1 view .LVU89
 246 0040 23B1     		cbz	r3, .L22
 169:Middlewares/Third_Party/FreeRTOS/Source/portable/MemMang/heap_4.c **** 				{
 247              		.loc 1 169 50 discriminator 1 view .LVU90
 248 0042 2046     		mov	r0, r4
 249 0044 1C46     		mov	r4, r3
 250              	.LVL16:
 251              	.L23:
 169:Middlewares/Third_Party/FreeRTOS/Source/portable/MemMang/heap_4.c **** 				{
 252              		.loc 1 169 10 is_stmt 1 view .LVU91
 169:Middlewares/Third_Party/FreeRTOS/Source/portable/MemMang/heap_4.c **** 				{
 253              		.loc 1 169 21 is_stmt 0 view .LVU92
 254 0046 6268     		ldr	r2, [r4, #4]
 169:Middlewares/Third_Party/FreeRTOS/Source/portable/MemMang/heap_4.c **** 				{
 255              		.loc 1 169 10 view .LVU93
 256 0048 8A42     		cmp	r2, r1
 257 004a F8D3     		bcc	.L44
 258              	.L22:
 177:Middlewares/Third_Party/FreeRTOS/Source/portable/MemMang/heap_4.c **** 				{
 259              		.loc 1 177 5 is_stmt 1 view .LVU94
 177:Middlewares/Third_Party/FreeRTOS/Source/portable/MemMang/heap_4.c **** 				{
 260              		.loc 1 177 7 is_stmt 0 view .LVU95
 261 004c 3368     		ldr	r3, [r6]
 262 004e A342     		cmp	r3, r4
 263 0050 13D0     		beq	.L20
 181:Middlewares/Third_Party/FreeRTOS/Source/portable/MemMang/heap_4.c **** 
 264              		.loc 1 181 6 is_stmt 1 view .LVU96
 185:Middlewares/Third_Party/FreeRTOS/Source/portable/MemMang/heap_4.c **** 
 265              		.loc 1 185 48 is_stmt 0 view .LVU97
 266 0052 2368     		ldr	r3, [r4]
 181:Middlewares/Third_Party/FreeRTOS/Source/portable/MemMang/heap_4.c **** 
 267              		.loc 1 181 15 view .LVU98
 268 0054 0668     		ldr	r6, [r0]
 185:Middlewares/Third_Party/FreeRTOS/Source/portable/MemMang/heap_4.c **** 
 269              		.loc 1 185 39 view .LVU99
 270 0056 0360     		str	r3, [r0]
 189:Middlewares/Third_Party/FreeRTOS/Source/portable/MemMang/heap_4.c **** 					{
 271              		.loc 1 189 32 view .LVU100
 272 0058 531A     		subs	r3, r2, r1
 189:Middlewares/Third_Party/FreeRTOS/Source/portable/MemMang/heap_4.c **** 					{
 273              		.loc 1 189 8 view .LVU101
 274 005a 102B     		cmp	r3, #16
 181:Middlewares/Third_Party/FreeRTOS/Source/portable/MemMang/heap_4.c **** 
 275              		.loc 1 181 15 view .LVU102
 276 005c 06F10806 		add	r6, r6, #8
 277              	.LVL17:
 185:Middlewares/Third_Party/FreeRTOS/Source/portable/MemMang/heap_4.c **** 
 278              		.loc 1 185 6 is_stmt 1 view .LVU103
 189:Middlewares/Third_Party/FreeRTOS/Source/portable/MemMang/heap_4.c **** 					{
 279              		.loc 1 189 6 view .LVU104
 189:Middlewares/Third_Party/FreeRTOS/Source/portable/MemMang/heap_4.c **** 					{
 280              		.loc 1 189 8 is_stmt 0 view .LVU105
 281 0060 16D9     		bls	.L24
ARM GAS  /tmp/ccqqvZQq.s 			page 15


 195:Middlewares/Third_Party/FreeRTOS/Source/portable/MemMang/heap_4.c **** 						configASSERT( ( ( ( size_t ) pxNewBlockLink ) & portBYTE_ALIGNMENT_MASK ) == 0 );
 282              		.loc 1 195 7 is_stmt 1 view .LVU106
 195:Middlewares/Third_Party/FreeRTOS/Source/portable/MemMang/heap_4.c **** 						configASSERT( ( ( ( size_t ) pxNewBlockLink ) & portBYTE_ALIGNMENT_MASK ) == 0 );
 283              		.loc 1 195 22 is_stmt 0 view .LVU107
 284 0062 6018     		adds	r0, r4, r1
 285              	.LVL18:
 196:Middlewares/Third_Party/FreeRTOS/Source/portable/MemMang/heap_4.c **** 
 286              		.loc 1 196 7 is_stmt 1 view .LVU108
 287 0064 4207     		lsls	r2, r0, #29
 288 0066 0ED0     		beq	.L25
 196:Middlewares/Third_Party/FreeRTOS/Source/portable/MemMang/heap_4.c **** 
 289              		.loc 1 196 7 view .LVU109
 290              	.LBB18:
 291              	.LBI18:
 292              		.file 2 "Middlewares/Third_Party/FreeRTOS/Source/portable/GCC/ARM_CM4F/portmacro.h"
   1:Middlewares/Third_Party/FreeRTOS/Source/portable/GCC/ARM_CM4F/portmacro.h **** /*
   2:Middlewares/Third_Party/FreeRTOS/Source/portable/GCC/ARM_CM4F/portmacro.h ****  * FreeRTOS Kernel V10.3.1
   3:Middlewares/Third_Party/FreeRTOS/Source/portable/GCC/ARM_CM4F/portmacro.h ****  * Copyright (C) 2020 Amazon.com, Inc. or its affiliates.  All Rights Reserved.
   4:Middlewares/Third_Party/FreeRTOS/Source/portable/GCC/ARM_CM4F/portmacro.h ****  *
   5:Middlewares/Third_Party/FreeRTOS/Source/portable/GCC/ARM_CM4F/portmacro.h ****  * Permission is hereby granted, free of charge, to any person obtaining a copy of
   6:Middlewares/Third_Party/FreeRTOS/Source/portable/GCC/ARM_CM4F/portmacro.h ****  * this software and associated documentation files (the "Software"), to deal in
   7:Middlewares/Third_Party/FreeRTOS/Source/portable/GCC/ARM_CM4F/portmacro.h ****  * the Software without restriction, including without limitation the rights to
   8:Middlewares/Third_Party/FreeRTOS/Source/portable/GCC/ARM_CM4F/portmacro.h ****  * use, copy, modify, merge, publish, distribute, sublicense, and/or sell copies of
   9:Middlewares/Third_Party/FreeRTOS/Source/portable/GCC/ARM_CM4F/portmacro.h ****  * the Software, and to permit persons to whom the Software is furnished to do so,
  10:Middlewares/Third_Party/FreeRTOS/Source/portable/GCC/ARM_CM4F/portmacro.h ****  * subject to the following conditions:
  11:Middlewares/Third_Party/FreeRTOS/Source/portable/GCC/ARM_CM4F/portmacro.h ****  *
  12:Middlewares/Third_Party/FreeRTOS/Source/portable/GCC/ARM_CM4F/portmacro.h ****  * The above copyright notice and this permission notice shall be included in all
  13:Middlewares/Third_Party/FreeRTOS/Source/portable/GCC/ARM_CM4F/portmacro.h ****  * copies or substantial portions of the Software.
  14:Middlewares/Third_Party/FreeRTOS/Source/portable/GCC/ARM_CM4F/portmacro.h ****  *
  15:Middlewares/Third_Party/FreeRTOS/Source/portable/GCC/ARM_CM4F/portmacro.h ****  * THE SOFTWARE IS PROVIDED "AS IS", WITHOUT WARRANTY OF ANY KIND, EXPRESS OR
  16:Middlewares/Third_Party/FreeRTOS/Source/portable/GCC/ARM_CM4F/portmacro.h ****  * IMPLIED, INCLUDING BUT NOT LIMITED TO THE WARRANTIES OF MERCHANTABILITY, FITNESS
  17:Middlewares/Third_Party/FreeRTOS/Source/portable/GCC/ARM_CM4F/portmacro.h ****  * FOR A PARTICULAR PURPOSE AND NONINFRINGEMENT. IN NO EVENT SHALL THE AUTHORS OR
  18:Middlewares/Third_Party/FreeRTOS/Source/portable/GCC/ARM_CM4F/portmacro.h ****  * COPYRIGHT HOLDERS BE LIABLE FOR ANY CLAIM, DAMAGES OR OTHER LIABILITY, WHETHER
  19:Middlewares/Third_Party/FreeRTOS/Source/portable/GCC/ARM_CM4F/portmacro.h ****  * IN AN ACTION OF CONTRACT, TORT OR OTHERWISE, ARISING FROM, OUT OF OR IN
  20:Middlewares/Third_Party/FreeRTOS/Source/portable/GCC/ARM_CM4F/portmacro.h ****  * CONNECTION WITH THE SOFTWARE OR THE USE OR OTHER DEALINGS IN THE SOFTWARE.
  21:Middlewares/Third_Party/FreeRTOS/Source/portable/GCC/ARM_CM4F/portmacro.h ****  *
  22:Middlewares/Third_Party/FreeRTOS/Source/portable/GCC/ARM_CM4F/portmacro.h ****  * http://www.FreeRTOS.org
  23:Middlewares/Third_Party/FreeRTOS/Source/portable/GCC/ARM_CM4F/portmacro.h ****  * http://aws.amazon.com/freertos
  24:Middlewares/Third_Party/FreeRTOS/Source/portable/GCC/ARM_CM4F/portmacro.h ****  *
  25:Middlewares/Third_Party/FreeRTOS/Source/portable/GCC/ARM_CM4F/portmacro.h ****  * 1 tab == 4 spaces!
  26:Middlewares/Third_Party/FreeRTOS/Source/portable/GCC/ARM_CM4F/portmacro.h ****  */
  27:Middlewares/Third_Party/FreeRTOS/Source/portable/GCC/ARM_CM4F/portmacro.h **** 
  28:Middlewares/Third_Party/FreeRTOS/Source/portable/GCC/ARM_CM4F/portmacro.h **** 
  29:Middlewares/Third_Party/FreeRTOS/Source/portable/GCC/ARM_CM4F/portmacro.h **** #ifndef PORTMACRO_H
  30:Middlewares/Third_Party/FreeRTOS/Source/portable/GCC/ARM_CM4F/portmacro.h **** #define PORTMACRO_H
  31:Middlewares/Third_Party/FreeRTOS/Source/portable/GCC/ARM_CM4F/portmacro.h **** 
  32:Middlewares/Third_Party/FreeRTOS/Source/portable/GCC/ARM_CM4F/portmacro.h **** #ifdef __cplusplus
  33:Middlewares/Third_Party/FreeRTOS/Source/portable/GCC/ARM_CM4F/portmacro.h **** extern "C" {
  34:Middlewares/Third_Party/FreeRTOS/Source/portable/GCC/ARM_CM4F/portmacro.h **** #endif
  35:Middlewares/Third_Party/FreeRTOS/Source/portable/GCC/ARM_CM4F/portmacro.h **** 
  36:Middlewares/Third_Party/FreeRTOS/Source/portable/GCC/ARM_CM4F/portmacro.h **** /*-----------------------------------------------------------
  37:Middlewares/Third_Party/FreeRTOS/Source/portable/GCC/ARM_CM4F/portmacro.h ****  * Port specific definitions.
  38:Middlewares/Third_Party/FreeRTOS/Source/portable/GCC/ARM_CM4F/portmacro.h ****  *
  39:Middlewares/Third_Party/FreeRTOS/Source/portable/GCC/ARM_CM4F/portmacro.h ****  * The settings in this file configure FreeRTOS correctly for the
  40:Middlewares/Third_Party/FreeRTOS/Source/portable/GCC/ARM_CM4F/portmacro.h ****  * given hardware and compiler.
  41:Middlewares/Third_Party/FreeRTOS/Source/portable/GCC/ARM_CM4F/portmacro.h ****  *
  42:Middlewares/Third_Party/FreeRTOS/Source/portable/GCC/ARM_CM4F/portmacro.h ****  * These settings should not be altered.
ARM GAS  /tmp/ccqqvZQq.s 			page 16


  43:Middlewares/Third_Party/FreeRTOS/Source/portable/GCC/ARM_CM4F/portmacro.h ****  *-----------------------------------------------------------
  44:Middlewares/Third_Party/FreeRTOS/Source/portable/GCC/ARM_CM4F/portmacro.h ****  */
  45:Middlewares/Third_Party/FreeRTOS/Source/portable/GCC/ARM_CM4F/portmacro.h **** 
  46:Middlewares/Third_Party/FreeRTOS/Source/portable/GCC/ARM_CM4F/portmacro.h **** /* Type definitions. */
  47:Middlewares/Third_Party/FreeRTOS/Source/portable/GCC/ARM_CM4F/portmacro.h **** #define portCHAR		char
  48:Middlewares/Third_Party/FreeRTOS/Source/portable/GCC/ARM_CM4F/portmacro.h **** #define portFLOAT		float
  49:Middlewares/Third_Party/FreeRTOS/Source/portable/GCC/ARM_CM4F/portmacro.h **** #define portDOUBLE		double
  50:Middlewares/Third_Party/FreeRTOS/Source/portable/GCC/ARM_CM4F/portmacro.h **** #define portLONG		long
  51:Middlewares/Third_Party/FreeRTOS/Source/portable/GCC/ARM_CM4F/portmacro.h **** #define portSHORT		short
  52:Middlewares/Third_Party/FreeRTOS/Source/portable/GCC/ARM_CM4F/portmacro.h **** #define portSTACK_TYPE	uint32_t
  53:Middlewares/Third_Party/FreeRTOS/Source/portable/GCC/ARM_CM4F/portmacro.h **** #define portBASE_TYPE	long
  54:Middlewares/Third_Party/FreeRTOS/Source/portable/GCC/ARM_CM4F/portmacro.h **** 
  55:Middlewares/Third_Party/FreeRTOS/Source/portable/GCC/ARM_CM4F/portmacro.h **** typedef portSTACK_TYPE StackType_t;
  56:Middlewares/Third_Party/FreeRTOS/Source/portable/GCC/ARM_CM4F/portmacro.h **** typedef long BaseType_t;
  57:Middlewares/Third_Party/FreeRTOS/Source/portable/GCC/ARM_CM4F/portmacro.h **** typedef unsigned long UBaseType_t;
  58:Middlewares/Third_Party/FreeRTOS/Source/portable/GCC/ARM_CM4F/portmacro.h **** 
  59:Middlewares/Third_Party/FreeRTOS/Source/portable/GCC/ARM_CM4F/portmacro.h **** #if( configUSE_16_BIT_TICKS == 1 )
  60:Middlewares/Third_Party/FreeRTOS/Source/portable/GCC/ARM_CM4F/portmacro.h **** 	typedef uint16_t TickType_t;
  61:Middlewares/Third_Party/FreeRTOS/Source/portable/GCC/ARM_CM4F/portmacro.h **** 	#define portMAX_DELAY ( TickType_t ) 0xffff
  62:Middlewares/Third_Party/FreeRTOS/Source/portable/GCC/ARM_CM4F/portmacro.h **** #else
  63:Middlewares/Third_Party/FreeRTOS/Source/portable/GCC/ARM_CM4F/portmacro.h **** 	typedef uint32_t TickType_t;
  64:Middlewares/Third_Party/FreeRTOS/Source/portable/GCC/ARM_CM4F/portmacro.h **** 	#define portMAX_DELAY ( TickType_t ) 0xffffffffUL
  65:Middlewares/Third_Party/FreeRTOS/Source/portable/GCC/ARM_CM4F/portmacro.h **** 
  66:Middlewares/Third_Party/FreeRTOS/Source/portable/GCC/ARM_CM4F/portmacro.h **** 	/* 32-bit tick type on a 32-bit architecture, so reads of the tick count do
  67:Middlewares/Third_Party/FreeRTOS/Source/portable/GCC/ARM_CM4F/portmacro.h **** 	not need to be guarded with a critical section. */
  68:Middlewares/Third_Party/FreeRTOS/Source/portable/GCC/ARM_CM4F/portmacro.h **** 	#define portTICK_TYPE_IS_ATOMIC 1
  69:Middlewares/Third_Party/FreeRTOS/Source/portable/GCC/ARM_CM4F/portmacro.h **** #endif
  70:Middlewares/Third_Party/FreeRTOS/Source/portable/GCC/ARM_CM4F/portmacro.h **** /*-----------------------------------------------------------*/
  71:Middlewares/Third_Party/FreeRTOS/Source/portable/GCC/ARM_CM4F/portmacro.h **** 
  72:Middlewares/Third_Party/FreeRTOS/Source/portable/GCC/ARM_CM4F/portmacro.h **** /* Architecture specifics. */
  73:Middlewares/Third_Party/FreeRTOS/Source/portable/GCC/ARM_CM4F/portmacro.h **** #define portSTACK_GROWTH			( -1 )
  74:Middlewares/Third_Party/FreeRTOS/Source/portable/GCC/ARM_CM4F/portmacro.h **** #define portTICK_PERIOD_MS			( ( TickType_t ) 1000 / configTICK_RATE_HZ )
  75:Middlewares/Third_Party/FreeRTOS/Source/portable/GCC/ARM_CM4F/portmacro.h **** #define portBYTE_ALIGNMENT			8
  76:Middlewares/Third_Party/FreeRTOS/Source/portable/GCC/ARM_CM4F/portmacro.h **** /*-----------------------------------------------------------*/
  77:Middlewares/Third_Party/FreeRTOS/Source/portable/GCC/ARM_CM4F/portmacro.h **** 
  78:Middlewares/Third_Party/FreeRTOS/Source/portable/GCC/ARM_CM4F/portmacro.h **** /* Scheduler utilities. */
  79:Middlewares/Third_Party/FreeRTOS/Source/portable/GCC/ARM_CM4F/portmacro.h **** #define portYIELD() 															\
  80:Middlewares/Third_Party/FreeRTOS/Source/portable/GCC/ARM_CM4F/portmacro.h **** {																				\
  81:Middlewares/Third_Party/FreeRTOS/Source/portable/GCC/ARM_CM4F/portmacro.h **** 	/* Set a PendSV to request a context switch. */								\
  82:Middlewares/Third_Party/FreeRTOS/Source/portable/GCC/ARM_CM4F/portmacro.h **** 	portNVIC_INT_CTRL_REG = portNVIC_PENDSVSET_BIT;								\
  83:Middlewares/Third_Party/FreeRTOS/Source/portable/GCC/ARM_CM4F/portmacro.h **** 																				\
  84:Middlewares/Third_Party/FreeRTOS/Source/portable/GCC/ARM_CM4F/portmacro.h **** 	/* Barriers are normally not required but do ensure the code is completely	\
  85:Middlewares/Third_Party/FreeRTOS/Source/portable/GCC/ARM_CM4F/portmacro.h **** 	within the specified behaviour for the architecture. */						\
  86:Middlewares/Third_Party/FreeRTOS/Source/portable/GCC/ARM_CM4F/portmacro.h **** 	__asm volatile( "dsb" ::: "memory" );										\
  87:Middlewares/Third_Party/FreeRTOS/Source/portable/GCC/ARM_CM4F/portmacro.h **** 	__asm volatile( "isb" );													\
  88:Middlewares/Third_Party/FreeRTOS/Source/portable/GCC/ARM_CM4F/portmacro.h **** }
  89:Middlewares/Third_Party/FreeRTOS/Source/portable/GCC/ARM_CM4F/portmacro.h **** 
  90:Middlewares/Third_Party/FreeRTOS/Source/portable/GCC/ARM_CM4F/portmacro.h **** #define portNVIC_INT_CTRL_REG		( * ( ( volatile uint32_t * ) 0xe000ed04 ) )
  91:Middlewares/Third_Party/FreeRTOS/Source/portable/GCC/ARM_CM4F/portmacro.h **** #define portNVIC_PENDSVSET_BIT		( 1UL << 28UL )
  92:Middlewares/Third_Party/FreeRTOS/Source/portable/GCC/ARM_CM4F/portmacro.h **** #define portEND_SWITCHING_ISR( xSwitchRequired ) if( xSwitchRequired != pdFALSE ) portYIELD()
  93:Middlewares/Third_Party/FreeRTOS/Source/portable/GCC/ARM_CM4F/portmacro.h **** #define portYIELD_FROM_ISR( x ) portEND_SWITCHING_ISR( x )
  94:Middlewares/Third_Party/FreeRTOS/Source/portable/GCC/ARM_CM4F/portmacro.h **** /*-----------------------------------------------------------*/
  95:Middlewares/Third_Party/FreeRTOS/Source/portable/GCC/ARM_CM4F/portmacro.h **** 
  96:Middlewares/Third_Party/FreeRTOS/Source/portable/GCC/ARM_CM4F/portmacro.h **** /* Critical section management. */
  97:Middlewares/Third_Party/FreeRTOS/Source/portable/GCC/ARM_CM4F/portmacro.h **** extern void vPortEnterCritical( void );
  98:Middlewares/Third_Party/FreeRTOS/Source/portable/GCC/ARM_CM4F/portmacro.h **** extern void vPortExitCritical( void );
  99:Middlewares/Third_Party/FreeRTOS/Source/portable/GCC/ARM_CM4F/portmacro.h **** #define portSET_INTERRUPT_MASK_FROM_ISR()		ulPortRaiseBASEPRI()
ARM GAS  /tmp/ccqqvZQq.s 			page 17


 100:Middlewares/Third_Party/FreeRTOS/Source/portable/GCC/ARM_CM4F/portmacro.h **** #define portCLEAR_INTERRUPT_MASK_FROM_ISR(x)	vPortSetBASEPRI(x)
 101:Middlewares/Third_Party/FreeRTOS/Source/portable/GCC/ARM_CM4F/portmacro.h **** #define portDISABLE_INTERRUPTS()				vPortRaiseBASEPRI()
 102:Middlewares/Third_Party/FreeRTOS/Source/portable/GCC/ARM_CM4F/portmacro.h **** #define portENABLE_INTERRUPTS()					vPortSetBASEPRI(0)
 103:Middlewares/Third_Party/FreeRTOS/Source/portable/GCC/ARM_CM4F/portmacro.h **** #define portENTER_CRITICAL()					vPortEnterCritical()
 104:Middlewares/Third_Party/FreeRTOS/Source/portable/GCC/ARM_CM4F/portmacro.h **** #define portEXIT_CRITICAL()						vPortExitCritical()
 105:Middlewares/Third_Party/FreeRTOS/Source/portable/GCC/ARM_CM4F/portmacro.h **** 
 106:Middlewares/Third_Party/FreeRTOS/Source/portable/GCC/ARM_CM4F/portmacro.h **** /*-----------------------------------------------------------*/
 107:Middlewares/Third_Party/FreeRTOS/Source/portable/GCC/ARM_CM4F/portmacro.h **** 
 108:Middlewares/Third_Party/FreeRTOS/Source/portable/GCC/ARM_CM4F/portmacro.h **** /* Task function macros as described on the FreeRTOS.org WEB site.  These are
 109:Middlewares/Third_Party/FreeRTOS/Source/portable/GCC/ARM_CM4F/portmacro.h **** not necessary for to use this port.  They are defined so the common demo files
 110:Middlewares/Third_Party/FreeRTOS/Source/portable/GCC/ARM_CM4F/portmacro.h **** (which build with all the ports) will build. */
 111:Middlewares/Third_Party/FreeRTOS/Source/portable/GCC/ARM_CM4F/portmacro.h **** #define portTASK_FUNCTION_PROTO( vFunction, pvParameters ) void vFunction( void *pvParameters )
 112:Middlewares/Third_Party/FreeRTOS/Source/portable/GCC/ARM_CM4F/portmacro.h **** #define portTASK_FUNCTION( vFunction, pvParameters ) void vFunction( void *pvParameters )
 113:Middlewares/Third_Party/FreeRTOS/Source/portable/GCC/ARM_CM4F/portmacro.h **** /*-----------------------------------------------------------*/
 114:Middlewares/Third_Party/FreeRTOS/Source/portable/GCC/ARM_CM4F/portmacro.h **** 
 115:Middlewares/Third_Party/FreeRTOS/Source/portable/GCC/ARM_CM4F/portmacro.h **** /* Tickless idle/low power functionality. */
 116:Middlewares/Third_Party/FreeRTOS/Source/portable/GCC/ARM_CM4F/portmacro.h **** #ifndef portSUPPRESS_TICKS_AND_SLEEP
 117:Middlewares/Third_Party/FreeRTOS/Source/portable/GCC/ARM_CM4F/portmacro.h **** 	extern void vPortSuppressTicksAndSleep( TickType_t xExpectedIdleTime );
 118:Middlewares/Third_Party/FreeRTOS/Source/portable/GCC/ARM_CM4F/portmacro.h **** 	#define portSUPPRESS_TICKS_AND_SLEEP( xExpectedIdleTime ) vPortSuppressTicksAndSleep( xExpectedIdl
 119:Middlewares/Third_Party/FreeRTOS/Source/portable/GCC/ARM_CM4F/portmacro.h **** #endif
 120:Middlewares/Third_Party/FreeRTOS/Source/portable/GCC/ARM_CM4F/portmacro.h **** /*-----------------------------------------------------------*/
 121:Middlewares/Third_Party/FreeRTOS/Source/portable/GCC/ARM_CM4F/portmacro.h **** 
 122:Middlewares/Third_Party/FreeRTOS/Source/portable/GCC/ARM_CM4F/portmacro.h **** /* Architecture specific optimisations. */
 123:Middlewares/Third_Party/FreeRTOS/Source/portable/GCC/ARM_CM4F/portmacro.h **** #ifndef configUSE_PORT_OPTIMISED_TASK_SELECTION
 124:Middlewares/Third_Party/FreeRTOS/Source/portable/GCC/ARM_CM4F/portmacro.h **** 	#define configUSE_PORT_OPTIMISED_TASK_SELECTION 1
 125:Middlewares/Third_Party/FreeRTOS/Source/portable/GCC/ARM_CM4F/portmacro.h **** #endif
 126:Middlewares/Third_Party/FreeRTOS/Source/portable/GCC/ARM_CM4F/portmacro.h **** 
 127:Middlewares/Third_Party/FreeRTOS/Source/portable/GCC/ARM_CM4F/portmacro.h **** #if configUSE_PORT_OPTIMISED_TASK_SELECTION == 1
 128:Middlewares/Third_Party/FreeRTOS/Source/portable/GCC/ARM_CM4F/portmacro.h **** 
 129:Middlewares/Third_Party/FreeRTOS/Source/portable/GCC/ARM_CM4F/portmacro.h **** 	/* Generic helper function. */
 130:Middlewares/Third_Party/FreeRTOS/Source/portable/GCC/ARM_CM4F/portmacro.h **** 	__attribute__( ( always_inline ) ) static inline uint8_t ucPortCountLeadingZeros( uint32_t ulBitma
 131:Middlewares/Third_Party/FreeRTOS/Source/portable/GCC/ARM_CM4F/portmacro.h **** 	{
 132:Middlewares/Third_Party/FreeRTOS/Source/portable/GCC/ARM_CM4F/portmacro.h **** 	uint8_t ucReturn;
 133:Middlewares/Third_Party/FreeRTOS/Source/portable/GCC/ARM_CM4F/portmacro.h **** 
 134:Middlewares/Third_Party/FreeRTOS/Source/portable/GCC/ARM_CM4F/portmacro.h **** 		__asm volatile ( "clz %0, %1" : "=r" ( ucReturn ) : "r" ( ulBitmap ) : "memory" );
 135:Middlewares/Third_Party/FreeRTOS/Source/portable/GCC/ARM_CM4F/portmacro.h **** 		return ucReturn;
 136:Middlewares/Third_Party/FreeRTOS/Source/portable/GCC/ARM_CM4F/portmacro.h **** 	}
 137:Middlewares/Third_Party/FreeRTOS/Source/portable/GCC/ARM_CM4F/portmacro.h **** 
 138:Middlewares/Third_Party/FreeRTOS/Source/portable/GCC/ARM_CM4F/portmacro.h **** 	/* Check the configuration. */
 139:Middlewares/Third_Party/FreeRTOS/Source/portable/GCC/ARM_CM4F/portmacro.h **** 	#if( configMAX_PRIORITIES > 32 )
 140:Middlewares/Third_Party/FreeRTOS/Source/portable/GCC/ARM_CM4F/portmacro.h **** 		#error configUSE_PORT_OPTIMISED_TASK_SELECTION can only be set to 1 when configMAX_PRIORITIES is 
 141:Middlewares/Third_Party/FreeRTOS/Source/portable/GCC/ARM_CM4F/portmacro.h **** 	#endif
 142:Middlewares/Third_Party/FreeRTOS/Source/portable/GCC/ARM_CM4F/portmacro.h **** 
 143:Middlewares/Third_Party/FreeRTOS/Source/portable/GCC/ARM_CM4F/portmacro.h **** 	/* Store/clear the ready priorities in a bit map. */
 144:Middlewares/Third_Party/FreeRTOS/Source/portable/GCC/ARM_CM4F/portmacro.h **** 	#define portRECORD_READY_PRIORITY( uxPriority, uxReadyPriorities ) ( uxReadyPriorities ) |= ( 1UL 
 145:Middlewares/Third_Party/FreeRTOS/Source/portable/GCC/ARM_CM4F/portmacro.h **** 	#define portRESET_READY_PRIORITY( uxPriority, uxReadyPriorities ) ( uxReadyPriorities ) &= ~( 1UL 
 146:Middlewares/Third_Party/FreeRTOS/Source/portable/GCC/ARM_CM4F/portmacro.h **** 
 147:Middlewares/Third_Party/FreeRTOS/Source/portable/GCC/ARM_CM4F/portmacro.h **** 	/*-----------------------------------------------------------*/
 148:Middlewares/Third_Party/FreeRTOS/Source/portable/GCC/ARM_CM4F/portmacro.h **** 
 149:Middlewares/Third_Party/FreeRTOS/Source/portable/GCC/ARM_CM4F/portmacro.h **** 	#define portGET_HIGHEST_PRIORITY( uxTopPriority, uxReadyPriorities ) uxTopPriority = ( 31UL - ( ui
 150:Middlewares/Third_Party/FreeRTOS/Source/portable/GCC/ARM_CM4F/portmacro.h **** 
 151:Middlewares/Third_Party/FreeRTOS/Source/portable/GCC/ARM_CM4F/portmacro.h **** #endif /* configUSE_PORT_OPTIMISED_TASK_SELECTION */
 152:Middlewares/Third_Party/FreeRTOS/Source/portable/GCC/ARM_CM4F/portmacro.h **** 
 153:Middlewares/Third_Party/FreeRTOS/Source/portable/GCC/ARM_CM4F/portmacro.h **** /*-----------------------------------------------------------*/
 154:Middlewares/Third_Party/FreeRTOS/Source/portable/GCC/ARM_CM4F/portmacro.h **** 
 155:Middlewares/Third_Party/FreeRTOS/Source/portable/GCC/ARM_CM4F/portmacro.h **** #ifdef configASSERT
 156:Middlewares/Third_Party/FreeRTOS/Source/portable/GCC/ARM_CM4F/portmacro.h **** 	void vPortValidateInterruptPriority( void );
ARM GAS  /tmp/ccqqvZQq.s 			page 18


 157:Middlewares/Third_Party/FreeRTOS/Source/portable/GCC/ARM_CM4F/portmacro.h **** 	#define portASSERT_IF_INTERRUPT_PRIORITY_INVALID() 	vPortValidateInterruptPriority()
 158:Middlewares/Third_Party/FreeRTOS/Source/portable/GCC/ARM_CM4F/portmacro.h **** #endif
 159:Middlewares/Third_Party/FreeRTOS/Source/portable/GCC/ARM_CM4F/portmacro.h **** 
 160:Middlewares/Third_Party/FreeRTOS/Source/portable/GCC/ARM_CM4F/portmacro.h **** /* portNOP() is not required by this port. */
 161:Middlewares/Third_Party/FreeRTOS/Source/portable/GCC/ARM_CM4F/portmacro.h **** #define portNOP()
 162:Middlewares/Third_Party/FreeRTOS/Source/portable/GCC/ARM_CM4F/portmacro.h **** 
 163:Middlewares/Third_Party/FreeRTOS/Source/portable/GCC/ARM_CM4F/portmacro.h **** #define portINLINE	__inline
 164:Middlewares/Third_Party/FreeRTOS/Source/portable/GCC/ARM_CM4F/portmacro.h **** 
 165:Middlewares/Third_Party/FreeRTOS/Source/portable/GCC/ARM_CM4F/portmacro.h **** #ifndef portFORCE_INLINE
 166:Middlewares/Third_Party/FreeRTOS/Source/portable/GCC/ARM_CM4F/portmacro.h **** 	#define portFORCE_INLINE inline __attribute__(( always_inline))
 167:Middlewares/Third_Party/FreeRTOS/Source/portable/GCC/ARM_CM4F/portmacro.h **** #endif
 168:Middlewares/Third_Party/FreeRTOS/Source/portable/GCC/ARM_CM4F/portmacro.h **** 
 169:Middlewares/Third_Party/FreeRTOS/Source/portable/GCC/ARM_CM4F/portmacro.h **** portFORCE_INLINE static BaseType_t xPortIsInsideInterrupt( void )
 170:Middlewares/Third_Party/FreeRTOS/Source/portable/GCC/ARM_CM4F/portmacro.h **** {
 171:Middlewares/Third_Party/FreeRTOS/Source/portable/GCC/ARM_CM4F/portmacro.h **** uint32_t ulCurrentInterrupt;
 172:Middlewares/Third_Party/FreeRTOS/Source/portable/GCC/ARM_CM4F/portmacro.h **** BaseType_t xReturn;
 173:Middlewares/Third_Party/FreeRTOS/Source/portable/GCC/ARM_CM4F/portmacro.h **** 
 174:Middlewares/Third_Party/FreeRTOS/Source/portable/GCC/ARM_CM4F/portmacro.h **** 	/* Obtain the number of the currently executing interrupt. */
 175:Middlewares/Third_Party/FreeRTOS/Source/portable/GCC/ARM_CM4F/portmacro.h **** 	__asm volatile( "mrs %0, ipsr" : "=r"( ulCurrentInterrupt ) :: "memory" );
 176:Middlewares/Third_Party/FreeRTOS/Source/portable/GCC/ARM_CM4F/portmacro.h **** 
 177:Middlewares/Third_Party/FreeRTOS/Source/portable/GCC/ARM_CM4F/portmacro.h **** 	if( ulCurrentInterrupt == 0 )
 178:Middlewares/Third_Party/FreeRTOS/Source/portable/GCC/ARM_CM4F/portmacro.h **** 	{
 179:Middlewares/Third_Party/FreeRTOS/Source/portable/GCC/ARM_CM4F/portmacro.h **** 		xReturn = pdFALSE;
 180:Middlewares/Third_Party/FreeRTOS/Source/portable/GCC/ARM_CM4F/portmacro.h **** 	}
 181:Middlewares/Third_Party/FreeRTOS/Source/portable/GCC/ARM_CM4F/portmacro.h **** 	else
 182:Middlewares/Third_Party/FreeRTOS/Source/portable/GCC/ARM_CM4F/portmacro.h **** 	{
 183:Middlewares/Third_Party/FreeRTOS/Source/portable/GCC/ARM_CM4F/portmacro.h **** 		xReturn = pdTRUE;
 184:Middlewares/Third_Party/FreeRTOS/Source/portable/GCC/ARM_CM4F/portmacro.h **** 	}
 185:Middlewares/Third_Party/FreeRTOS/Source/portable/GCC/ARM_CM4F/portmacro.h **** 
 186:Middlewares/Third_Party/FreeRTOS/Source/portable/GCC/ARM_CM4F/portmacro.h **** 	return xReturn;
 187:Middlewares/Third_Party/FreeRTOS/Source/portable/GCC/ARM_CM4F/portmacro.h **** }
 188:Middlewares/Third_Party/FreeRTOS/Source/portable/GCC/ARM_CM4F/portmacro.h **** 
 189:Middlewares/Third_Party/FreeRTOS/Source/portable/GCC/ARM_CM4F/portmacro.h **** /*-----------------------------------------------------------*/
 190:Middlewares/Third_Party/FreeRTOS/Source/portable/GCC/ARM_CM4F/portmacro.h **** 
 191:Middlewares/Third_Party/FreeRTOS/Source/portable/GCC/ARM_CM4F/portmacro.h **** portFORCE_INLINE static void vPortRaiseBASEPRI( void )
 293              		.loc 2 191 30 view .LVU110
 294              	.LBB19:
 192:Middlewares/Third_Party/FreeRTOS/Source/portable/GCC/ARM_CM4F/portmacro.h **** {
 193:Middlewares/Third_Party/FreeRTOS/Source/portable/GCC/ARM_CM4F/portmacro.h **** uint32_t ulNewBASEPRI;
 295              		.loc 2 193 1 view .LVU111
 194:Middlewares/Third_Party/FreeRTOS/Source/portable/GCC/ARM_CM4F/portmacro.h **** 
 195:Middlewares/Third_Party/FreeRTOS/Source/portable/GCC/ARM_CM4F/portmacro.h **** 	__asm volatile
 296              		.loc 2 195 2 view .LVU112
 297              		.syntax unified
 298              	@ 195 "Middlewares/Third_Party/FreeRTOS/Source/portable/GCC/ARM_CM4F/portmacro.h" 1
 299 0068 4FF05003 			mov r3, #80												
 300 006c 83F31188 		msr basepri, r3											
 301 0070 BFF36F8F 		isb														
 302 0074 BFF34F8F 		dsb														
 303              	
 304              	@ 0 "" 2
 305              	.LVL19:
 306              		.thumb
 307              		.syntax unified
 308              	.L26:
 309              		.loc 2 195 2 is_stmt 0 view .LVU113
 310              	.LBE19:
ARM GAS  /tmp/ccqqvZQq.s 			page 19


 311              	.LBE18:
 196:Middlewares/Third_Party/FreeRTOS/Source/portable/MemMang/heap_4.c **** 
 312              		.loc 1 196 7 is_stmt 1 discriminator 3 view .LVU114
 196:Middlewares/Third_Party/FreeRTOS/Source/portable/MemMang/heap_4.c **** 
 313              		.loc 1 196 7 discriminator 3 view .LVU115
 196:Middlewares/Third_Party/FreeRTOS/Source/portable/MemMang/heap_4.c **** 
 314              		.loc 1 196 7 discriminator 3 view .LVU116
 196:Middlewares/Third_Party/FreeRTOS/Source/portable/MemMang/heap_4.c **** 
 315              		.loc 1 196 7 discriminator 3 view .LVU117
 196:Middlewares/Third_Party/FreeRTOS/Source/portable/MemMang/heap_4.c **** 
 316              		.loc 1 196 7 discriminator 3 view .LVU118
 196:Middlewares/Third_Party/FreeRTOS/Source/portable/MemMang/heap_4.c **** 
 317              		.loc 1 196 7 discriminator 3 view .LVU119
 318 0078 FEE7     		b	.L26
 319              	.LVL20:
 320              	.L20:
 240:Middlewares/Third_Party/FreeRTOS/Source/portable/MemMang/heap_4.c **** 		}
 321              		.loc 1 240 28 view .LVU120
 243:Middlewares/Third_Party/FreeRTOS/Source/portable/MemMang/heap_4.c **** 	}
 322              		.loc 1 243 39 view .LVU121
 245:Middlewares/Third_Party/FreeRTOS/Source/portable/MemMang/heap_4.c **** 
 323              		.loc 1 245 2 view .LVU122
 245:Middlewares/Third_Party/FreeRTOS/Source/portable/MemMang/heap_4.c **** 
 324              		.loc 1 245 11 is_stmt 0 view .LVU123
 325 007a FFF7FEFF 		bl	xTaskResumeAll
 326              	.LVL21:
 261:Middlewares/Third_Party/FreeRTOS/Source/portable/MemMang/heap_4.c **** 	return pvReturn;
 327              		.loc 1 261 2 is_stmt 1 view .LVU124
 245:Middlewares/Third_Party/FreeRTOS/Source/portable/MemMang/heap_4.c **** 
 328              		.loc 1 245 11 is_stmt 0 view .LVU125
 329 007e 0026     		movs	r6, #0
 330              	.LVL22:
 331              	.L15:
 263:Middlewares/Third_Party/FreeRTOS/Source/portable/MemMang/heap_4.c **** /*-----------------------------------------------------------*/
 332              		.loc 1 263 1 view .LVU126
 333 0080 3046     		mov	r0, r6
 334 0082 BDE8F081 		pop	{r4, r5, r6, r7, r8, pc}
 335              	.LVL23:
 336              	.L25:
 196:Middlewares/Third_Party/FreeRTOS/Source/portable/MemMang/heap_4.c **** 
 337              		.loc 1 196 87 is_stmt 1 discriminator 2 view .LVU127
 200:Middlewares/Third_Party/FreeRTOS/Source/portable/MemMang/heap_4.c **** 						pxBlock->xBlockSize = xWantedSize;
 338              		.loc 1 200 7 discriminator 2 view .LVU128
 200:Middlewares/Third_Party/FreeRTOS/Source/portable/MemMang/heap_4.c **** 						pxBlock->xBlockSize = xWantedSize;
 339              		.loc 1 200 34 is_stmt 0 discriminator 2 view .LVU129
 340 0086 4360     		str	r3, [r0, #4]
 201:Middlewares/Third_Party/FreeRTOS/Source/portable/MemMang/heap_4.c **** 
 341              		.loc 1 201 7 is_stmt 1 discriminator 2 view .LVU130
 201:Middlewares/Third_Party/FreeRTOS/Source/portable/MemMang/heap_4.c **** 
 342              		.loc 1 201 27 is_stmt 0 discriminator 2 view .LVU131
 343 0088 6160     		str	r1, [r4, #4]
 204:Middlewares/Third_Party/FreeRTOS/Source/portable/MemMang/heap_4.c **** 					}
 344              		.loc 1 204 7 is_stmt 1 discriminator 2 view .LVU132
 345 008a FFF7FEFF 		bl	prvInsertBlockIntoFreeList
 346              	.LVL24:
 211:Middlewares/Third_Party/FreeRTOS/Source/portable/MemMang/heap_4.c **** 
 347              		.loc 1 211 36 is_stmt 0 discriminator 2 view .LVU133
ARM GAS  /tmp/ccqqvZQq.s 			page 20


 348 008e 6268     		ldr	r2, [r4, #4]
 349              	.LVL25:
 350              	.L24:
 208:Middlewares/Third_Party/FreeRTOS/Source/portable/MemMang/heap_4.c **** 					}
 351              		.loc 1 208 31 is_stmt 1 view .LVU134
 211:Middlewares/Third_Party/FreeRTOS/Source/portable/MemMang/heap_4.c **** 
 352              		.loc 1 211 6 view .LVU135
 213:Middlewares/Third_Party/FreeRTOS/Source/portable/MemMang/heap_4.c **** 					{
 353              		.loc 1 213 30 is_stmt 0 view .LVU136
 354 0090 2249     		ldr	r1, .L45+12
 213:Middlewares/Third_Party/FreeRTOS/Source/portable/MemMang/heap_4.c **** 					{
 355              		.loc 1 213 8 view .LVU137
 356 0092 0868     		ldr	r0, [r1]
 211:Middlewares/Third_Party/FreeRTOS/Source/portable/MemMang/heap_4.c **** 
 357              		.loc 1 211 26 view .LVU138
 358 0094 BF1A     		subs	r7, r7, r2
 213:Middlewares/Third_Party/FreeRTOS/Source/portable/MemMang/heap_4.c **** 					{
 359              		.loc 1 213 8 view .LVU139
 360 0096 8742     		cmp	r7, r0
 215:Middlewares/Third_Party/FreeRTOS/Source/portable/MemMang/heap_4.c **** 					}
 361              		.loc 1 215 38 view .LVU140
 362 0098 38BF     		it	cc
 363 009a 0F60     		strcc	r7, [r1]
 226:Middlewares/Third_Party/FreeRTOS/Source/portable/MemMang/heap_4.c **** 				}
 364              		.loc 1 226 36 view .LVU141
 365 009c 2049     		ldr	r1, .L45+16
 211:Middlewares/Third_Party/FreeRTOS/Source/portable/MemMang/heap_4.c **** 
 366              		.loc 1 211 26 view .LVU142
 367 009e C8F80070 		str	r7, [r8]
 213:Middlewares/Third_Party/FreeRTOS/Source/portable/MemMang/heap_4.c **** 					{
 368              		.loc 1 213 6 is_stmt 1 view .LVU143
 215:Middlewares/Third_Party/FreeRTOS/Source/portable/MemMang/heap_4.c **** 					}
 369              		.loc 1 215 7 view .LVU144
 219:Middlewares/Third_Party/FreeRTOS/Source/portable/MemMang/heap_4.c **** 					}
 370              		.loc 1 219 31 view .LVU145
 224:Middlewares/Third_Party/FreeRTOS/Source/portable/MemMang/heap_4.c **** 					pxBlock->pxNextFreeBlock = NULL;
 371              		.loc 1 224 6 view .LVU146
 224:Middlewares/Third_Party/FreeRTOS/Source/portable/MemMang/heap_4.c **** 					pxBlock->pxNextFreeBlock = NULL;
 372              		.loc 1 224 26 is_stmt 0 view .LVU147
 373 00a2 2A43     		orrs	r2, r2, r5
 225:Middlewares/Third_Party/FreeRTOS/Source/portable/MemMang/heap_4.c **** 					xNumberOfSuccessfulAllocations++;
 374              		.loc 1 225 31 view .LVU148
 375 00a4 0023     		movs	r3, #0
 376 00a6 C4E90032 		strd	r3, r2, [r4]
 226:Middlewares/Third_Party/FreeRTOS/Source/portable/MemMang/heap_4.c **** 				}
 377              		.loc 1 226 6 is_stmt 1 view .LVU149
 226:Middlewares/Third_Party/FreeRTOS/Source/portable/MemMang/heap_4.c **** 				}
 378              		.loc 1 226 36 is_stmt 0 view .LVU150
 379 00aa 0B68     		ldr	r3, [r1]
 380 00ac 0133     		adds	r3, r3, #1
 381 00ae 0B60     		str	r3, [r1]
 240:Middlewares/Third_Party/FreeRTOS/Source/portable/MemMang/heap_4.c **** 		}
 382              		.loc 1 240 28 is_stmt 1 view .LVU151
 243:Middlewares/Third_Party/FreeRTOS/Source/portable/MemMang/heap_4.c **** 	}
 383              		.loc 1 243 39 view .LVU152
 245:Middlewares/Third_Party/FreeRTOS/Source/portable/MemMang/heap_4.c **** 
 384              		.loc 1 245 2 view .LVU153
ARM GAS  /tmp/ccqqvZQq.s 			page 21


 245:Middlewares/Third_Party/FreeRTOS/Source/portable/MemMang/heap_4.c **** 
 385              		.loc 1 245 11 is_stmt 0 view .LVU154
 386 00b0 FFF7FEFF 		bl	xTaskResumeAll
 387              	.LVL26:
 261:Middlewares/Third_Party/FreeRTOS/Source/portable/MemMang/heap_4.c **** 	return pvReturn;
 388              		.loc 1 261 2 is_stmt 1 view .LVU155
 389 00b4 7307     		lsls	r3, r6, #29
 390 00b6 E3D0     		beq	.L15
 261:Middlewares/Third_Party/FreeRTOS/Source/portable/MemMang/heap_4.c **** 	return pvReturn;
 391              		.loc 1 261 2 view .LVU156
 392              	.LBB20:
 393              	.LBI20:
 191:Middlewares/Third_Party/FreeRTOS/Source/portable/GCC/ARM_CM4F/portmacro.h **** {
 394              		.loc 2 191 30 view .LVU157
 395              	.LBB21:
 193:Middlewares/Third_Party/FreeRTOS/Source/portable/GCC/ARM_CM4F/portmacro.h **** 
 396              		.loc 2 193 1 view .LVU158
 397              		.loc 2 195 2 view .LVU159
 398              		.syntax unified
 399              	@ 195 "Middlewares/Third_Party/FreeRTOS/Source/portable/GCC/ARM_CM4F/portmacro.h" 1
 400 00b8 4FF05003 			mov r3, #80												
 401 00bc 83F31188 		msr basepri, r3											
 402 00c0 BFF36F8F 		isb														
 403 00c4 BFF34F8F 		dsb														
 404              	
 405              	@ 0 "" 2
 406              	.LVL27:
 407              		.thumb
 408              		.syntax unified
 409              	.L29:
 410              		.loc 2 195 2 is_stmt 0 view .LVU160
 411              	.LBE21:
 412              	.LBE20:
 261:Middlewares/Third_Party/FreeRTOS/Source/portable/MemMang/heap_4.c **** 	return pvReturn;
 413              		.loc 1 261 2 is_stmt 1 discriminator 5 view .LVU161
 261:Middlewares/Third_Party/FreeRTOS/Source/portable/MemMang/heap_4.c **** 	return pvReturn;
 414              		.loc 1 261 2 discriminator 5 view .LVU162
 261:Middlewares/Third_Party/FreeRTOS/Source/portable/MemMang/heap_4.c **** 	return pvReturn;
 415              		.loc 1 261 2 discriminator 5 view .LVU163
 261:Middlewares/Third_Party/FreeRTOS/Source/portable/MemMang/heap_4.c **** 	return pvReturn;
 416              		.loc 1 261 2 discriminator 5 view .LVU164
 261:Middlewares/Third_Party/FreeRTOS/Source/portable/MemMang/heap_4.c **** 	return pvReturn;
 417              		.loc 1 261 2 discriminator 5 view .LVU165
 261:Middlewares/Third_Party/FreeRTOS/Source/portable/MemMang/heap_4.c **** 	return pvReturn;
 418              		.loc 1 261 2 discriminator 5 view .LVU166
 419 00c8 FEE7     		b	.L29
 420              	.LVL28:
 421              	.L16:
 126:Middlewares/Third_Party/FreeRTOS/Source/portable/MemMang/heap_4.c **** 		}
 422              		.loc 1 126 4 view .LVU167
 423              	.LBB22:
 424              	.LBI22:
 333:Middlewares/Third_Party/FreeRTOS/Source/portable/MemMang/heap_4.c **** {
 425              		.loc 1 333 13 view .LVU168
 426              	.LBB23:
 335:Middlewares/Third_Party/FreeRTOS/Source/portable/MemMang/heap_4.c **** uint8_t *pucAlignedHeap;
 427              		.loc 1 335 1 view .LVU169
ARM GAS  /tmp/ccqqvZQq.s 			page 22


 336:Middlewares/Third_Party/FreeRTOS/Source/portable/MemMang/heap_4.c **** size_t uxAddress;
 428              		.loc 1 336 1 view .LVU170
 337:Middlewares/Third_Party/FreeRTOS/Source/portable/MemMang/heap_4.c **** size_t xTotalHeapSize = configTOTAL_HEAP_SIZE;
 429              		.loc 1 337 1 view .LVU171
 338:Middlewares/Third_Party/FreeRTOS/Source/portable/MemMang/heap_4.c **** 
 430              		.loc 1 338 1 view .LVU172
 341:Middlewares/Third_Party/FreeRTOS/Source/portable/MemMang/heap_4.c **** 
 431              		.loc 1 341 2 view .LVU173
 341:Middlewares/Third_Party/FreeRTOS/Source/portable/MemMang/heap_4.c **** 
 432              		.loc 1 341 12 is_stmt 0 view .LVU174
 433 00ca 164B     		ldr	r3, .L45+20
 434              	.LVL29:
 343:Middlewares/Third_Party/FreeRTOS/Source/portable/MemMang/heap_4.c **** 	{
 435              		.loc 1 343 2 is_stmt 1 view .LVU175
 373:Middlewares/Third_Party/FreeRTOS/Source/portable/MemMang/heap_4.c **** 	xFreeBytesRemaining = pxFirstFreeBlock->xBlockSize;
 436              		.loc 1 373 33 is_stmt 0 view .LVU176
 437 00cc 1348     		ldr	r0, .L45+12
 377:Middlewares/Third_Party/FreeRTOS/Source/portable/MemMang/heap_4.c **** }
 438              		.loc 1 377 21 view .LVU177
 439 00ce 114F     		ldr	r7, .L45+4
 343:Middlewares/Third_Party/FreeRTOS/Source/portable/MemMang/heap_4.c **** 	{
 440              		.loc 1 343 4 view .LVU178
 441 00d0 5D07     		lsls	r5, r3, #29
 345:Middlewares/Third_Party/FreeRTOS/Source/portable/MemMang/heap_4.c **** 		uxAddress &= ~( ( size_t ) portBYTE_ALIGNMENT_MASK );
 442              		.loc 1 345 13 view .LVU179
 443 00d2 14BF     		ite	ne
 444 00d4 DA1D     		addne	r2, r3, #7
 359:Middlewares/Third_Party/FreeRTOS/Source/portable/MemMang/heap_4.c **** 	uxAddress -= xHeapStructSize;
 445              		.loc 1 359 12 view .LVU180
 446 00d6 1A46     		moveq	r2, r3
 345:Middlewares/Third_Party/FreeRTOS/Source/portable/MemMang/heap_4.c **** 		uxAddress &= ~( ( size_t ) portBYTE_ALIGNMENT_MASK );
 447              		.loc 1 345 3 is_stmt 1 view .LVU181
 448              	.LVL30:
 346:Middlewares/Third_Party/FreeRTOS/Source/portable/MemMang/heap_4.c **** 		xTotalHeapSize -= uxAddress - ( size_t ) ucHeap;
 449              		.loc 1 346 3 view .LVU182
 450 00d8 03F58043 		add	r3, r3, #16384
 360:Middlewares/Third_Party/FreeRTOS/Source/portable/MemMang/heap_4.c **** 	uxAddress &= ~( ( size_t ) portBYTE_ALIGNMENT_MASK );
 451              		.loc 1 360 12 is_stmt 0 view .LVU183
 452 00dc A3F10803 		sub	r3, r3, #8
 361:Middlewares/Third_Party/FreeRTOS/Source/portable/MemMang/heap_4.c **** 	pxEnd = ( void * ) uxAddress;
 453              		.loc 1 361 12 view .LVU184
 454 00e0 23F00703 		bic	r3, r3, #7
 346:Middlewares/Third_Party/FreeRTOS/Source/portable/MemMang/heap_4.c **** 		xTotalHeapSize -= uxAddress - ( size_t ) ucHeap;
 455              		.loc 1 346 13 view .LVU185
 456 00e4 18BF     		it	ne
 457 00e6 22F00702 		bicne	r2, r2, #7
 458              	.LVL31:
 347:Middlewares/Third_Party/FreeRTOS/Source/portable/MemMang/heap_4.c **** 	}
 459              		.loc 1 347 3 is_stmt 1 view .LVU186
 350:Middlewares/Third_Party/FreeRTOS/Source/portable/MemMang/heap_4.c **** 
 460              		.loc 1 350 17 is_stmt 0 view .LVU187
 461 00ea 1146     		mov	r1, r2
 350:Middlewares/Third_Party/FreeRTOS/Source/portable/MemMang/heap_4.c **** 
 462              		.loc 1 350 2 is_stmt 1 view .LVU188
 463              	.LVL32:
 354:Middlewares/Third_Party/FreeRTOS/Source/portable/MemMang/heap_4.c **** 	xStart.xBlockSize = ( size_t ) 0;
 464              		.loc 1 354 2 view .LVU189
ARM GAS  /tmp/ccqqvZQq.s 			page 23


 369:Middlewares/Third_Party/FreeRTOS/Source/portable/MemMang/heap_4.c **** 	pxFirstFreeBlock->pxNextFreeBlock = pxEnd;
 465              		.loc 1 369 43 is_stmt 0 view .LVU190
 466 00ec 9A1A     		subs	r2, r3, r2
 467              	.LVL33:
 373:Middlewares/Third_Party/FreeRTOS/Source/portable/MemMang/heap_4.c **** 	xFreeBytesRemaining = pxFirstFreeBlock->xBlockSize;
 468              		.loc 1 373 33 view .LVU191
 469 00ee 0260     		str	r2, [r0]
 374:Middlewares/Third_Party/FreeRTOS/Source/portable/MemMang/heap_4.c **** 
 470              		.loc 1 374 22 view .LVU192
 471 00f0 0D48     		ldr	r0, .L45+24
 354:Middlewares/Third_Party/FreeRTOS/Source/portable/MemMang/heap_4.c **** 	xStart.xBlockSize = ( size_t ) 0;
 472              		.loc 1 354 25 view .LVU193
 473 00f2 094D     		ldr	r5, .L45+8
 374:Middlewares/Third_Party/FreeRTOS/Source/portable/MemMang/heap_4.c **** 
 474              		.loc 1 374 22 view .LVU194
 475 00f4 0260     		str	r2, [r0]
 355:Middlewares/Third_Party/FreeRTOS/Source/portable/MemMang/heap_4.c **** 
 476              		.loc 1 355 20 view .LVU195
 477 00f6 0020     		movs	r0, #0
 354:Middlewares/Third_Party/FreeRTOS/Source/portable/MemMang/heap_4.c **** 	xStart.xBlockSize = ( size_t ) 0;
 478              		.loc 1 354 25 view .LVU196
 479 00f8 2960     		str	r1, [r5]
 355:Middlewares/Third_Party/FreeRTOS/Source/portable/MemMang/heap_4.c **** 
 480              		.loc 1 355 2 is_stmt 1 view .LVU197
 355:Middlewares/Third_Party/FreeRTOS/Source/portable/MemMang/heap_4.c **** 
 481              		.loc 1 355 20 is_stmt 0 view .LVU198
 482 00fa 6860     		str	r0, [r5, #4]
 359:Middlewares/Third_Party/FreeRTOS/Source/portable/MemMang/heap_4.c **** 	uxAddress -= xHeapStructSize;
 483              		.loc 1 359 2 is_stmt 1 view .LVU199
 484              	.LVL34:
 360:Middlewares/Third_Party/FreeRTOS/Source/portable/MemMang/heap_4.c **** 	uxAddress &= ~( ( size_t ) portBYTE_ALIGNMENT_MASK );
 485              		.loc 1 360 2 view .LVU200
 361:Middlewares/Third_Party/FreeRTOS/Source/portable/MemMang/heap_4.c **** 	pxEnd = ( void * ) uxAddress;
 486              		.loc 1 361 2 view .LVU201
 362:Middlewares/Third_Party/FreeRTOS/Source/portable/MemMang/heap_4.c **** 	pxEnd->xBlockSize = 0;
 487              		.loc 1 362 2 view .LVU202
 363:Middlewares/Third_Party/FreeRTOS/Source/portable/MemMang/heap_4.c **** 	pxEnd->pxNextFreeBlock = NULL;
 488              		.loc 1 363 2 view .LVU203
 377:Middlewares/Third_Party/FreeRTOS/Source/portable/MemMang/heap_4.c **** }
 489              		.loc 1 377 21 is_stmt 0 view .LVU204
 490 00fc 4FF00045 		mov	r5, #-2147483648
 364:Middlewares/Third_Party/FreeRTOS/Source/portable/MemMang/heap_4.c **** 
 491              		.loc 1 364 25 view .LVU205
 492 0100 C3E90000 		strd	r0, r0, [r3]
 368:Middlewares/Third_Party/FreeRTOS/Source/portable/MemMang/heap_4.c **** 	pxFirstFreeBlock->xBlockSize = uxAddress - ( size_t ) pxFirstFreeBlock;
 493              		.loc 1 368 2 is_stmt 1 view .LVU206
 494              	.LVL35:
 369:Middlewares/Third_Party/FreeRTOS/Source/portable/MemMang/heap_4.c **** 	pxFirstFreeBlock->pxNextFreeBlock = pxEnd;
 495              		.loc 1 369 2 view .LVU207
 362:Middlewares/Third_Party/FreeRTOS/Source/portable/MemMang/heap_4.c **** 	pxEnd->xBlockSize = 0;
 496              		.loc 1 362 8 is_stmt 0 view .LVU208
 497 0104 3360     		str	r3, [r6]
 370:Middlewares/Third_Party/FreeRTOS/Source/portable/MemMang/heap_4.c **** 
 498              		.loc 1 370 36 view .LVU209
 499 0106 C1E90032 		strd	r3, r2, [r1]
 373:Middlewares/Third_Party/FreeRTOS/Source/portable/MemMang/heap_4.c **** 	xFreeBytesRemaining = pxFirstFreeBlock->xBlockSize;
 500              		.loc 1 373 2 is_stmt 1 view .LVU210
ARM GAS  /tmp/ccqqvZQq.s 			page 24


 374:Middlewares/Third_Party/FreeRTOS/Source/portable/MemMang/heap_4.c **** 
 501              		.loc 1 374 2 view .LVU211
 377:Middlewares/Third_Party/FreeRTOS/Source/portable/MemMang/heap_4.c **** }
 502              		.loc 1 377 2 view .LVU212
 377:Middlewares/Third_Party/FreeRTOS/Source/portable/MemMang/heap_4.c **** }
 503              		.loc 1 377 21 is_stmt 0 view .LVU213
 504 010a 3D60     		str	r5, [r7]
 378:Middlewares/Third_Party/FreeRTOS/Source/portable/MemMang/heap_4.c **** /*-----------------------------------------------------------*/
 505              		.loc 1 378 1 view .LVU214
 506 010c 83E7     		b	.L17
 507              	.L46:
 508 010e 00BF     		.align	2
 509              	.L45:
 510 0110 00000000 		.word	.LANCHOR1
 511 0114 00000000 		.word	.LANCHOR2
 512 0118 00000000 		.word	.LANCHOR0
 513 011c 00000000 		.word	.LANCHOR3
 514 0120 00000000 		.word	.LANCHOR5
 515 0124 00000000 		.word	ucHeap
 516 0128 00000000 		.word	.LANCHOR4
 517              	.LBE23:
 518              	.LBE22:
 519              		.cfi_endproc
 520              	.LFE5:
 522              		.section	.text.vPortFree,"ax",%progbits
 523              		.align	1
 524              		.p2align 2,,3
 525              		.global	vPortFree
 526              		.syntax unified
 527              		.thumb
 528              		.thumb_func
 530              	vPortFree:
 531              	.LVL36:
 532              	.LFB6:
 267:Middlewares/Third_Party/FreeRTOS/Source/portable/MemMang/heap_4.c **** uint8_t *puc = ( uint8_t * ) pv;
 533              		.loc 1 267 1 is_stmt 1 view -0
 534              		.cfi_startproc
 535              		@ args = 0, pretend = 0, frame = 8
 536              		@ frame_needed = 0, uses_anonymous_args = 0
 268:Middlewares/Third_Party/FreeRTOS/Source/portable/MemMang/heap_4.c **** BlockLink_t *pxLink;
 537              		.loc 1 268 1 view .LVU216
 269:Middlewares/Third_Party/FreeRTOS/Source/portable/MemMang/heap_4.c **** 
 538              		.loc 1 269 1 view .LVU217
 271:Middlewares/Third_Party/FreeRTOS/Source/portable/MemMang/heap_4.c **** 	{
 539              		.loc 1 271 2 view .LVU218
 271:Middlewares/Third_Party/FreeRTOS/Source/portable/MemMang/heap_4.c **** 	{
 540              		.loc 1 271 4 is_stmt 0 view .LVU219
 541 0000 D0B1     		cbz	r0, .L47
 275:Middlewares/Third_Party/FreeRTOS/Source/portable/MemMang/heap_4.c **** 
 542              		.loc 1 275 3 is_stmt 1 view .LVU220
 543              	.LVL37:
 278:Middlewares/Third_Party/FreeRTOS/Source/portable/MemMang/heap_4.c **** 
 544              		.loc 1 278 3 view .LVU221
 281:Middlewares/Third_Party/FreeRTOS/Source/portable/MemMang/heap_4.c **** 		configASSERT( pxLink->pxNextFreeBlock == NULL );
 545              		.loc 1 281 3 view .LVU222
 546 0002 1C4A     		ldr	r2, .L56
 547 0004 50F8043C 		ldr	r3, [r0, #-4]
ARM GAS  /tmp/ccqqvZQq.s 			page 25


 548 0008 1268     		ldr	r2, [r2]
 549 000a 1342     		tst	r3, r2
 550 000c 0BD0     		beq	.L55
 281:Middlewares/Third_Party/FreeRTOS/Source/portable/MemMang/heap_4.c **** 		configASSERT( pxLink->pxNextFreeBlock == NULL );
 551              		.loc 1 281 67 discriminator 2 view .LVU223
 282:Middlewares/Third_Party/FreeRTOS/Source/portable/MemMang/heap_4.c **** 
 552              		.loc 1 282 3 discriminator 2 view .LVU224
 553 000e 50F8081C 		ldr	r1, [r0, #-8]
 554 0012 91B1     		cbz	r1, .L51
 282:Middlewares/Third_Party/FreeRTOS/Source/portable/MemMang/heap_4.c **** 
 555              		.loc 1 282 3 view .LVU225
 556              	.LBB24:
 557              	.LBI24:
 191:Middlewares/Third_Party/FreeRTOS/Source/portable/GCC/ARM_CM4F/portmacro.h **** {
 558              		.loc 2 191 30 view .LVU226
 559              	.LBB25:
 193:Middlewares/Third_Party/FreeRTOS/Source/portable/GCC/ARM_CM4F/portmacro.h **** 
 560              		.loc 2 193 1 view .LVU227
 561              		.loc 2 195 2 view .LVU228
 562              		.syntax unified
 563              	@ 195 "Middlewares/Third_Party/FreeRTOS/Source/portable/GCC/ARM_CM4F/portmacro.h" 1
 564 0014 4FF05003 			mov r3, #80												
 565 0018 83F31188 		msr basepri, r3											
 566 001c BFF36F8F 		isb														
 567 0020 BFF34F8F 		dsb														
 568              	
 569              	@ 0 "" 2
 570              	.LVL38:
 571              		.thumb
 572              		.syntax unified
 573              	.L52:
 574              		.loc 2 195 2 is_stmt 0 view .LVU229
 575              	.LBE25:
 576              	.LBE24:
 282:Middlewares/Third_Party/FreeRTOS/Source/portable/MemMang/heap_4.c **** 
 577              		.loc 1 282 3 is_stmt 1 discriminator 2 view .LVU230
 282:Middlewares/Third_Party/FreeRTOS/Source/portable/MemMang/heap_4.c **** 
 578              		.loc 1 282 3 discriminator 2 view .LVU231
 282:Middlewares/Third_Party/FreeRTOS/Source/portable/MemMang/heap_4.c **** 
 579              		.loc 1 282 3 discriminator 2 view .LVU232
 282:Middlewares/Third_Party/FreeRTOS/Source/portable/MemMang/heap_4.c **** 
 580              		.loc 1 282 3 discriminator 2 view .LVU233
 282:Middlewares/Third_Party/FreeRTOS/Source/portable/MemMang/heap_4.c **** 
 581              		.loc 1 282 3 discriminator 2 view .LVU234
 282:Middlewares/Third_Party/FreeRTOS/Source/portable/MemMang/heap_4.c **** 
 582              		.loc 1 282 3 discriminator 2 view .LVU235
 583 0024 FEE7     		b	.L52
 584              	.L55:
 281:Middlewares/Third_Party/FreeRTOS/Source/portable/MemMang/heap_4.c **** 		configASSERT( pxLink->pxNextFreeBlock == NULL );
 585              		.loc 1 281 3 view .LVU236
 586              	.LBB26:
 587              	.LBI26:
 191:Middlewares/Third_Party/FreeRTOS/Source/portable/GCC/ARM_CM4F/portmacro.h **** {
 588              		.loc 2 191 30 view .LVU237
 589              	.LBB27:
 193:Middlewares/Third_Party/FreeRTOS/Source/portable/GCC/ARM_CM4F/portmacro.h **** 
 590              		.loc 2 193 1 view .LVU238
ARM GAS  /tmp/ccqqvZQq.s 			page 26


 591              		.loc 2 195 2 view .LVU239
 592              		.syntax unified
 593              	@ 195 "Middlewares/Third_Party/FreeRTOS/Source/portable/GCC/ARM_CM4F/portmacro.h" 1
 594 0026 4FF05003 			mov r3, #80												
 595 002a 83F31188 		msr basepri, r3											
 596 002e BFF36F8F 		isb														
 597 0032 BFF34F8F 		dsb														
 598              	
 599              	@ 0 "" 2
 600              	.LVL39:
 601              		.thumb
 602              		.syntax unified
 603              	.L50:
 604              		.loc 2 195 2 is_stmt 0 view .LVU240
 605              	.LBE27:
 606              	.LBE26:
 281:Middlewares/Third_Party/FreeRTOS/Source/portable/MemMang/heap_4.c **** 		configASSERT( pxLink->pxNextFreeBlock == NULL );
 607              		.loc 1 281 3 is_stmt 1 discriminator 1 view .LVU241
 281:Middlewares/Third_Party/FreeRTOS/Source/portable/MemMang/heap_4.c **** 		configASSERT( pxLink->pxNextFreeBlock == NULL );
 608              		.loc 1 281 3 discriminator 1 view .LVU242
 281:Middlewares/Third_Party/FreeRTOS/Source/portable/MemMang/heap_4.c **** 		configASSERT( pxLink->pxNextFreeBlock == NULL );
 609              		.loc 1 281 3 discriminator 1 view .LVU243
 281:Middlewares/Third_Party/FreeRTOS/Source/portable/MemMang/heap_4.c **** 		configASSERT( pxLink->pxNextFreeBlock == NULL );
 610              		.loc 1 281 3 discriminator 1 view .LVU244
 281:Middlewares/Third_Party/FreeRTOS/Source/portable/MemMang/heap_4.c **** 		configASSERT( pxLink->pxNextFreeBlock == NULL );
 611              		.loc 1 281 3 discriminator 1 view .LVU245
 281:Middlewares/Third_Party/FreeRTOS/Source/portable/MemMang/heap_4.c **** 		configASSERT( pxLink->pxNextFreeBlock == NULL );
 612              		.loc 1 281 3 discriminator 1 view .LVU246
 613 0036 FEE7     		b	.L50
 614              	.LVL40:
 615              	.L47:
 281:Middlewares/Third_Party/FreeRTOS/Source/portable/MemMang/heap_4.c **** 		configASSERT( pxLink->pxNextFreeBlock == NULL );
 616              		.loc 1 281 3 is_stmt 0 discriminator 1 view .LVU247
 617 0038 7047     		bx	lr
 618              	.LVL41:
 619              	.L51:
 282:Middlewares/Third_Party/FreeRTOS/Source/portable/MemMang/heap_4.c **** 
 620              		.loc 1 282 50 is_stmt 1 view .LVU248
 284:Middlewares/Third_Party/FreeRTOS/Source/portable/MemMang/heap_4.c **** 		{
 621              		.loc 1 284 3 view .LVU249
 286:Middlewares/Third_Party/FreeRTOS/Source/portable/MemMang/heap_4.c **** 			{
 622              		.loc 1 286 4 view .LVU250
 290:Middlewares/Third_Party/FreeRTOS/Source/portable/MemMang/heap_4.c **** 
 623              		.loc 1 290 5 view .LVU251
 267:Middlewares/Third_Party/FreeRTOS/Source/portable/MemMang/heap_4.c **** uint8_t *puc = ( uint8_t * ) pv;
 624              		.loc 1 267 1 is_stmt 0 view .LVU252
 625 003a 00B5     		push	{lr}
 626              		.cfi_def_cfa_offset 4
 627              		.cfi_offset 14, -4
 290:Middlewares/Third_Party/FreeRTOS/Source/portable/MemMang/heap_4.c **** 
 628              		.loc 1 290 24 view .LVU253
 629 003c 23EA0203 		bic	r3, r3, r2
 267:Middlewares/Third_Party/FreeRTOS/Source/portable/MemMang/heap_4.c **** uint8_t *puc = ( uint8_t * ) pv;
 630              		.loc 1 267 1 view .LVU254
 631 0040 83B0     		sub	sp, sp, #12
 632              		.cfi_def_cfa_offset 16
 290:Middlewares/Third_Party/FreeRTOS/Source/portable/MemMang/heap_4.c **** 
ARM GAS  /tmp/ccqqvZQq.s 			page 27


 633              		.loc 1 290 24 view .LVU255
 634 0042 40F8043C 		str	r3, [r0, #-4]
 635 0046 0190     		str	r0, [sp, #4]
 292:Middlewares/Third_Party/FreeRTOS/Source/portable/MemMang/heap_4.c **** 				{
 636              		.loc 1 292 5 is_stmt 1 view .LVU256
 637 0048 FFF7FEFF 		bl	vTaskSuspendAll
 638              	.LVL42:
 295:Middlewares/Third_Party/FreeRTOS/Source/portable/MemMang/heap_4.c **** 					traceFREE( pv, pxLink->xBlockSize );
 639              		.loc 1 295 6 view .LVU257
 295:Middlewares/Third_Party/FreeRTOS/Source/portable/MemMang/heap_4.c **** 					traceFREE( pv, pxLink->xBlockSize );
 640              		.loc 1 295 26 is_stmt 0 view .LVU258
 641 004c 0A4A     		ldr	r2, .L56+4
 642 004e 0198     		ldr	r0, [sp, #4]
 643 0050 1168     		ldr	r1, [r2]
 644 0052 50F8043C 		ldr	r3, [r0, #-4]
 297:Middlewares/Third_Party/FreeRTOS/Source/portable/MemMang/heap_4.c **** 					xNumberOfSuccessfulFrees++;
 645              		.loc 1 297 6 view .LVU259
 646 0056 0838     		subs	r0, r0, #8
 295:Middlewares/Third_Party/FreeRTOS/Source/portable/MemMang/heap_4.c **** 					traceFREE( pv, pxLink->xBlockSize );
 647              		.loc 1 295 26 view .LVU260
 648 0058 0B44     		add	r3, r3, r1
 649 005a 1360     		str	r3, [r2]
 296:Middlewares/Third_Party/FreeRTOS/Source/portable/MemMang/heap_4.c **** 					prvInsertBlockIntoFreeList( ( ( BlockLink_t * ) pxLink ) );
 650              		.loc 1 296 41 is_stmt 1 view .LVU261
 297:Middlewares/Third_Party/FreeRTOS/Source/portable/MemMang/heap_4.c **** 					xNumberOfSuccessfulFrees++;
 651              		.loc 1 297 6 view .LVU262
 652 005c FFF7FEFF 		bl	prvInsertBlockIntoFreeList
 653              	.LVL43:
 298:Middlewares/Third_Party/FreeRTOS/Source/portable/MemMang/heap_4.c **** 				}
 654              		.loc 1 298 6 view .LVU263
 298:Middlewares/Third_Party/FreeRTOS/Source/portable/MemMang/heap_4.c **** 				}
 655              		.loc 1 298 30 is_stmt 0 view .LVU264
 656 0060 064A     		ldr	r2, .L56+8
 657 0062 1368     		ldr	r3, [r2]
 658 0064 0133     		adds	r3, r3, #1
 659 0066 1360     		str	r3, [r2]
 300:Middlewares/Third_Party/FreeRTOS/Source/portable/MemMang/heap_4.c **** 			}
 660              		.loc 1 300 5 is_stmt 1 view .LVU265
 312:Middlewares/Third_Party/FreeRTOS/Source/portable/MemMang/heap_4.c **** /*-----------------------------------------------------------*/
 661              		.loc 1 312 1 is_stmt 0 view .LVU266
 662 0068 03B0     		add	sp, sp, #12
 663              		.cfi_def_cfa_offset 4
 664              		@ sp needed
 665 006a 5DF804EB 		ldr	lr, [sp], #4
 666              		.cfi_restore 14
 667              		.cfi_def_cfa_offset 0
 668              	.LVL44:
 300:Middlewares/Third_Party/FreeRTOS/Source/portable/MemMang/heap_4.c **** 			}
 669              		.loc 1 300 14 view .LVU267
 670 006e FFF7FEBF 		b	xTaskResumeAll
 671              	.LVL45:
 672              	.L57:
 673 0072 00BF     		.align	2
 674              	.L56:
 675 0074 00000000 		.word	.LANCHOR2
 676 0078 00000000 		.word	.LANCHOR4
 677 007c 00000000 		.word	.LANCHOR6
ARM GAS  /tmp/ccqqvZQq.s 			page 28


 678              		.cfi_endproc
 679              	.LFE6:
 681              		.section	.text.xPortGetFreeHeapSize,"ax",%progbits
 682              		.align	1
 683              		.p2align 2,,3
 684              		.global	xPortGetFreeHeapSize
 685              		.syntax unified
 686              		.thumb
 687              		.thumb_func
 689              	xPortGetFreeHeapSize:
 690              	.LFB7:
 316:Middlewares/Third_Party/FreeRTOS/Source/portable/MemMang/heap_4.c **** 	return xFreeBytesRemaining;
 691              		.loc 1 316 1 is_stmt 1 view -0
 692              		.cfi_startproc
 693              		@ args = 0, pretend = 0, frame = 0
 694              		@ frame_needed = 0, uses_anonymous_args = 0
 695              		@ link register save eliminated.
 317:Middlewares/Third_Party/FreeRTOS/Source/portable/MemMang/heap_4.c **** }
 696              		.loc 1 317 2 view .LVU269
 317:Middlewares/Third_Party/FreeRTOS/Source/portable/MemMang/heap_4.c **** }
 697              		.loc 1 317 9 is_stmt 0 view .LVU270
 698 0000 014B     		ldr	r3, .L59
 318:Middlewares/Third_Party/FreeRTOS/Source/portable/MemMang/heap_4.c **** /*-----------------------------------------------------------*/
 699              		.loc 1 318 1 view .LVU271
 700 0002 1868     		ldr	r0, [r3]
 701 0004 7047     		bx	lr
 702              	.L60:
 703 0006 00BF     		.align	2
 704              	.L59:
 705 0008 00000000 		.word	.LANCHOR4
 706              		.cfi_endproc
 707              	.LFE7:
 709              		.section	.text.xPortGetMinimumEverFreeHeapSize,"ax",%progbits
 710              		.align	1
 711              		.p2align 2,,3
 712              		.global	xPortGetMinimumEverFreeHeapSize
 713              		.syntax unified
 714              		.thumb
 715              		.thumb_func
 717              	xPortGetMinimumEverFreeHeapSize:
 718              	.LFB8:
 322:Middlewares/Third_Party/FreeRTOS/Source/portable/MemMang/heap_4.c **** 	return xMinimumEverFreeBytesRemaining;
 719              		.loc 1 322 1 is_stmt 1 view -0
 720              		.cfi_startproc
 721              		@ args = 0, pretend = 0, frame = 0
 722              		@ frame_needed = 0, uses_anonymous_args = 0
 723              		@ link register save eliminated.
 323:Middlewares/Third_Party/FreeRTOS/Source/portable/MemMang/heap_4.c **** }
 724              		.loc 1 323 2 view .LVU273
 323:Middlewares/Third_Party/FreeRTOS/Source/portable/MemMang/heap_4.c **** }
 725              		.loc 1 323 9 is_stmt 0 view .LVU274
 726 0000 014B     		ldr	r3, .L62
 324:Middlewares/Third_Party/FreeRTOS/Source/portable/MemMang/heap_4.c **** /*-----------------------------------------------------------*/
 727              		.loc 1 324 1 view .LVU275
 728 0002 1868     		ldr	r0, [r3]
 729 0004 7047     		bx	lr
 730              	.L63:
ARM GAS  /tmp/ccqqvZQq.s 			page 29


 731 0006 00BF     		.align	2
 732              	.L62:
 733 0008 00000000 		.word	.LANCHOR3
 734              		.cfi_endproc
 735              	.LFE8:
 737              		.section	.text.vPortInitialiseBlocks,"ax",%progbits
 738              		.align	1
 739              		.p2align 2,,3
 740              		.global	vPortInitialiseBlocks
 741              		.syntax unified
 742              		.thumb
 743              		.thumb_func
 745              	vPortInitialiseBlocks:
 746              	.LFB9:
 328:Middlewares/Third_Party/FreeRTOS/Source/portable/MemMang/heap_4.c **** 	/* This just exists to keep the linker quiet. */
 747              		.loc 1 328 1 is_stmt 1 view -0
 748              		.cfi_startproc
 749              		@ args = 0, pretend = 0, frame = 0
 750              		@ frame_needed = 0, uses_anonymous_args = 0
 751              		@ link register save eliminated.
 330:Middlewares/Third_Party/FreeRTOS/Source/portable/MemMang/heap_4.c **** /*-----------------------------------------------------------*/
 752              		.loc 1 330 1 view .LVU277
 753 0000 7047     		bx	lr
 754              		.cfi_endproc
 755              	.LFE9:
 757 0002 00BF     		.section	.text.vPortGetHeapStats,"ax",%progbits
 758              		.align	1
 759              		.p2align 2,,3
 760              		.global	vPortGetHeapStats
 761              		.syntax unified
 762              		.thumb
 763              		.thumb_func
 765              	vPortGetHeapStats:
 766              	.LVL46:
 767              	.LFB12:
 440:Middlewares/Third_Party/FreeRTOS/Source/portable/MemMang/heap_4.c **** /*-----------------------------------------------------------*/
 441:Middlewares/Third_Party/FreeRTOS/Source/portable/MemMang/heap_4.c **** 
 442:Middlewares/Third_Party/FreeRTOS/Source/portable/MemMang/heap_4.c **** void vPortGetHeapStats( HeapStats_t *pxHeapStats )
 443:Middlewares/Third_Party/FreeRTOS/Source/portable/MemMang/heap_4.c **** {
 768              		.loc 1 443 1 view -0
 769              		.cfi_startproc
 770              		@ args = 0, pretend = 0, frame = 0
 771              		@ frame_needed = 0, uses_anonymous_args = 0
 444:Middlewares/Third_Party/FreeRTOS/Source/portable/MemMang/heap_4.c **** BlockLink_t *pxBlock;
 772              		.loc 1 444 1 view .LVU279
 445:Middlewares/Third_Party/FreeRTOS/Source/portable/MemMang/heap_4.c **** size_t xBlocks = 0, xMaxSize = 0, xMinSize = portMAX_DELAY; /* portMAX_DELAY used as a portable way
 773              		.loc 1 445 1 view .LVU280
 446:Middlewares/Third_Party/FreeRTOS/Source/portable/MemMang/heap_4.c **** 
 447:Middlewares/Third_Party/FreeRTOS/Source/portable/MemMang/heap_4.c **** 	vTaskSuspendAll();
 774              		.loc 1 447 2 view .LVU281
 443:Middlewares/Third_Party/FreeRTOS/Source/portable/MemMang/heap_4.c **** BlockLink_t *pxBlock;
 775              		.loc 1 443 1 is_stmt 0 view .LVU282
 776 0000 F8B5     		push	{r3, r4, r5, r6, r7, lr}
 777              		.cfi_def_cfa_offset 24
 778              		.cfi_offset 3, -24
 779              		.cfi_offset 4, -20
 780              		.cfi_offset 5, -16
ARM GAS  /tmp/ccqqvZQq.s 			page 30


 781              		.cfi_offset 6, -12
 782              		.cfi_offset 7, -8
 783              		.cfi_offset 14, -4
 443:Middlewares/Third_Party/FreeRTOS/Source/portable/MemMang/heap_4.c **** BlockLink_t *pxBlock;
 784              		.loc 1 443 1 view .LVU283
 785 0002 0746     		mov	r7, r0
 786              		.loc 1 447 2 view .LVU284
 787 0004 FFF7FEFF 		bl	vTaskSuspendAll
 788              	.LVL47:
 448:Middlewares/Third_Party/FreeRTOS/Source/portable/MemMang/heap_4.c **** 	{
 449:Middlewares/Third_Party/FreeRTOS/Source/portable/MemMang/heap_4.c **** 		pxBlock = xStart.pxNextFreeBlock;
 789              		.loc 1 449 3 is_stmt 1 view .LVU285
 790              		.loc 1 449 11 is_stmt 0 view .LVU286
 791 0008 184B     		ldr	r3, .L71
 792 000a 1B68     		ldr	r3, [r3]
 793              	.LVL48:
 450:Middlewares/Third_Party/FreeRTOS/Source/portable/MemMang/heap_4.c **** 
 451:Middlewares/Third_Party/FreeRTOS/Source/portable/MemMang/heap_4.c **** 		/* pxBlock will be NULL if the heap has not been initialised.  The heap
 452:Middlewares/Third_Party/FreeRTOS/Source/portable/MemMang/heap_4.c **** 		is initialised automatically when the first allocation is made. */
 453:Middlewares/Third_Party/FreeRTOS/Source/portable/MemMang/heap_4.c **** 		if( pxBlock != NULL )
 794              		.loc 1 453 3 is_stmt 1 view .LVU287
 795              		.loc 1 453 5 is_stmt 0 view .LVU288
 796 000c 43B3     		cbz	r3, .L68
 454:Middlewares/Third_Party/FreeRTOS/Source/portable/MemMang/heap_4.c **** 		{
 455:Middlewares/Third_Party/FreeRTOS/Source/portable/MemMang/heap_4.c **** 			do
 456:Middlewares/Third_Party/FreeRTOS/Source/portable/MemMang/heap_4.c **** 			{
 457:Middlewares/Third_Party/FreeRTOS/Source/portable/MemMang/heap_4.c **** 				/* Increment the number of blocks and record the largest block seen
 458:Middlewares/Third_Party/FreeRTOS/Source/portable/MemMang/heap_4.c **** 				so far. */
 459:Middlewares/Third_Party/FreeRTOS/Source/portable/MemMang/heap_4.c **** 				xBlocks++;
 460:Middlewares/Third_Party/FreeRTOS/Source/portable/MemMang/heap_4.c **** 
 461:Middlewares/Third_Party/FreeRTOS/Source/portable/MemMang/heap_4.c **** 				if( pxBlock->xBlockSize > xMaxSize )
 462:Middlewares/Third_Party/FreeRTOS/Source/portable/MemMang/heap_4.c **** 				{
 463:Middlewares/Third_Party/FreeRTOS/Source/portable/MemMang/heap_4.c **** 					xMaxSize = pxBlock->xBlockSize;
 464:Middlewares/Third_Party/FreeRTOS/Source/portable/MemMang/heap_4.c **** 				}
 465:Middlewares/Third_Party/FreeRTOS/Source/portable/MemMang/heap_4.c **** 
 466:Middlewares/Third_Party/FreeRTOS/Source/portable/MemMang/heap_4.c **** 				if( pxBlock->xBlockSize < xMinSize )
 467:Middlewares/Third_Party/FreeRTOS/Source/portable/MemMang/heap_4.c **** 				{
 468:Middlewares/Third_Party/FreeRTOS/Source/portable/MemMang/heap_4.c **** 					xMinSize = pxBlock->xBlockSize;
 469:Middlewares/Third_Party/FreeRTOS/Source/portable/MemMang/heap_4.c **** 				}
 470:Middlewares/Third_Party/FreeRTOS/Source/portable/MemMang/heap_4.c **** 
 471:Middlewares/Third_Party/FreeRTOS/Source/portable/MemMang/heap_4.c **** 				/* Move to the next block in the chain until the last block is
 472:Middlewares/Third_Party/FreeRTOS/Source/portable/MemMang/heap_4.c **** 				reached. */
 473:Middlewares/Third_Party/FreeRTOS/Source/portable/MemMang/heap_4.c **** 				pxBlock = pxBlock->pxNextFreeBlock;
 474:Middlewares/Third_Party/FreeRTOS/Source/portable/MemMang/heap_4.c **** 			} while( pxBlock != pxEnd );
 797              		.loc 1 474 21 view .LVU289
 798 000e 184A     		ldr	r2, .L71+4
 445:Middlewares/Third_Party/FreeRTOS/Source/portable/MemMang/heap_4.c **** 
 799              		.loc 1 445 21 view .LVU290
 800 0010 0024     		movs	r4, #0
 801              		.loc 1 474 21 view .LVU291
 802 0012 1168     		ldr	r1, [r2]
 445:Middlewares/Third_Party/FreeRTOS/Source/portable/MemMang/heap_4.c **** 
 803              		.loc 1 445 35 view .LVU292
 804 0014 4FF0FF36 		mov	r6, #-1
 445:Middlewares/Third_Party/FreeRTOS/Source/portable/MemMang/heap_4.c **** 
 805              		.loc 1 445 8 view .LVU293
 806 0018 2546     		mov	r5, r4
ARM GAS  /tmp/ccqqvZQq.s 			page 31


 807              	.LVL49:
 808              	.L67:
 455:Middlewares/Third_Party/FreeRTOS/Source/portable/MemMang/heap_4.c **** 			{
 809              		.loc 1 455 4 is_stmt 1 view .LVU294
 459:Middlewares/Third_Party/FreeRTOS/Source/portable/MemMang/heap_4.c **** 
 810              		.loc 1 459 5 view .LVU295
 473:Middlewares/Third_Party/FreeRTOS/Source/portable/MemMang/heap_4.c **** 			} while( pxBlock != pxEnd );
 811              		.loc 1 473 13 is_stmt 0 view .LVU296
 812 001a D3E90032 		ldrd	r3, r2, [r3]
 813              	.LVL50:
 473:Middlewares/Third_Party/FreeRTOS/Source/portable/MemMang/heap_4.c **** 			} while( pxBlock != pxEnd );
 814              		.loc 1 473 13 view .LVU297
 815 001e 9442     		cmp	r4, r2
 816 0020 38BF     		it	cc
 817 0022 1446     		movcc	r4, r2
 818              	.LVL51:
 473:Middlewares/Third_Party/FreeRTOS/Source/portable/MemMang/heap_4.c **** 			} while( pxBlock != pxEnd );
 819              		.loc 1 473 13 view .LVU298
 820 0024 9642     		cmp	r6, r2
 821 0026 28BF     		it	cs
 822 0028 1646     		movcs	r6, r2
 823              	.LVL52:
 824              		.loc 1 474 4 view .LVU299
 825 002a 9942     		cmp	r1, r3
 459:Middlewares/Third_Party/FreeRTOS/Source/portable/MemMang/heap_4.c **** 
 826              		.loc 1 459 12 view .LVU300
 827 002c 05F10105 		add	r5, r5, #1
 828              	.LVL53:
 461:Middlewares/Third_Party/FreeRTOS/Source/portable/MemMang/heap_4.c **** 				{
 829              		.loc 1 461 5 is_stmt 1 view .LVU301
 466:Middlewares/Third_Party/FreeRTOS/Source/portable/MemMang/heap_4.c **** 				{
 830              		.loc 1 466 5 view .LVU302
 473:Middlewares/Third_Party/FreeRTOS/Source/portable/MemMang/heap_4.c **** 			} while( pxBlock != pxEnd );
 831              		.loc 1 473 5 view .LVU303
 832              		.loc 1 474 11 view .LVU304
 833              		.loc 1 474 4 is_stmt 0 view .LVU305
 834 0030 F3D1     		bne	.L67
 835              	.LVL54:
 836              	.L66:
 475:Middlewares/Third_Party/FreeRTOS/Source/portable/MemMang/heap_4.c **** 		}
 476:Middlewares/Third_Party/FreeRTOS/Source/portable/MemMang/heap_4.c **** 	}
 477:Middlewares/Third_Party/FreeRTOS/Source/portable/MemMang/heap_4.c **** 	xTaskResumeAll();
 837              		.loc 1 477 2 is_stmt 1 view .LVU306
 838 0032 FFF7FEFF 		bl	xTaskResumeAll
 839              	.LVL55:
 478:Middlewares/Third_Party/FreeRTOS/Source/portable/MemMang/heap_4.c **** 
 479:Middlewares/Third_Party/FreeRTOS/Source/portable/MemMang/heap_4.c **** 	pxHeapStats->xSizeOfLargestFreeBlockInBytes = xMaxSize;
 840              		.loc 1 479 2 view .LVU307
 480:Middlewares/Third_Party/FreeRTOS/Source/portable/MemMang/heap_4.c **** 	pxHeapStats->xSizeOfSmallestFreeBlockInBytes = xMinSize;
 841              		.loc 1 480 47 is_stmt 0 view .LVU308
 842 0036 C7E90146 		strd	r4, r6, [r7, #4]
 481:Middlewares/Third_Party/FreeRTOS/Source/portable/MemMang/heap_4.c **** 	pxHeapStats->xNumberOfFreeBlocks = xBlocks;
 843              		.loc 1 481 2 is_stmt 1 view .LVU309
 844              		.loc 1 481 35 is_stmt 0 view .LVU310
 845 003a FD60     		str	r5, [r7, #12]
 482:Middlewares/Third_Party/FreeRTOS/Source/portable/MemMang/heap_4.c **** 
 483:Middlewares/Third_Party/FreeRTOS/Source/portable/MemMang/heap_4.c **** 	taskENTER_CRITICAL();
ARM GAS  /tmp/ccqqvZQq.s 			page 32


 846              		.loc 1 483 2 is_stmt 1 view .LVU311
 847 003c FFF7FEFF 		bl	vPortEnterCritical
 848              	.LVL56:
 484:Middlewares/Third_Party/FreeRTOS/Source/portable/MemMang/heap_4.c **** 	{
 485:Middlewares/Third_Party/FreeRTOS/Source/portable/MemMang/heap_4.c **** 		pxHeapStats->xAvailableHeapSpaceInBytes = xFreeBytesRemaining;
 849              		.loc 1 485 3 view .LVU312
 486:Middlewares/Third_Party/FreeRTOS/Source/portable/MemMang/heap_4.c **** 		pxHeapStats->xNumberOfSuccessfulAllocations = xNumberOfSuccessfulAllocations;
 850              		.loc 1 486 47 is_stmt 0 view .LVU313
 851 0040 0C49     		ldr	r1, .L71+8
 487:Middlewares/Third_Party/FreeRTOS/Source/portable/MemMang/heap_4.c **** 		pxHeapStats->xNumberOfSuccessfulFrees = xNumberOfSuccessfulFrees;
 852              		.loc 1 487 41 view .LVU314
 853 0042 0D4A     		ldr	r2, .L71+12
 485:Middlewares/Third_Party/FreeRTOS/Source/portable/MemMang/heap_4.c **** 		pxHeapStats->xNumberOfSuccessfulAllocations = xNumberOfSuccessfulAllocations;
 854              		.loc 1 485 43 view .LVU315
 855 0044 0D48     		ldr	r0, .L71+16
 488:Middlewares/Third_Party/FreeRTOS/Source/portable/MemMang/heap_4.c **** 		pxHeapStats->xMinimumEverFreeBytesRemaining = xMinimumEverFreeBytesRemaining;
 856              		.loc 1 488 47 view .LVU316
 857 0046 0E4B     		ldr	r3, .L71+20
 486:Middlewares/Third_Party/FreeRTOS/Source/portable/MemMang/heap_4.c **** 		pxHeapStats->xNumberOfSuccessfulFrees = xNumberOfSuccessfulFrees;
 858              		.loc 1 486 47 view .LVU317
 859 0048 0968     		ldr	r1, [r1]
 487:Middlewares/Third_Party/FreeRTOS/Source/portable/MemMang/heap_4.c **** 		pxHeapStats->xMinimumEverFreeBytesRemaining = xMinimumEverFreeBytesRemaining;
 860              		.loc 1 487 41 view .LVU318
 861 004a 1268     		ldr	r2, [r2]
 862              		.loc 1 488 47 view .LVU319
 863 004c 1B68     		ldr	r3, [r3]
 485:Middlewares/Third_Party/FreeRTOS/Source/portable/MemMang/heap_4.c **** 		pxHeapStats->xNumberOfSuccessfulAllocations = xNumberOfSuccessfulAllocations;
 864              		.loc 1 485 43 view .LVU320
 865 004e 0068     		ldr	r0, [r0]
 866 0050 3860     		str	r0, [r7]
 486:Middlewares/Third_Party/FreeRTOS/Source/portable/MemMang/heap_4.c **** 		pxHeapStats->xNumberOfSuccessfulFrees = xNumberOfSuccessfulFrees;
 867              		.loc 1 486 3 is_stmt 1 view .LVU321
 487:Middlewares/Third_Party/FreeRTOS/Source/portable/MemMang/heap_4.c **** 		pxHeapStats->xMinimumEverFreeBytesRemaining = xMinimumEverFreeBytesRemaining;
 868              		.loc 1 487 41 is_stmt 0 view .LVU322
 869 0052 C7E90512 		strd	r1, r2, [r7, #20]
 870              		.loc 1 488 3 is_stmt 1 view .LVU323
 871              		.loc 1 488 47 is_stmt 0 view .LVU324
 872 0056 3B61     		str	r3, [r7, #16]
 489:Middlewares/Third_Party/FreeRTOS/Source/portable/MemMang/heap_4.c **** 	}
 490:Middlewares/Third_Party/FreeRTOS/Source/portable/MemMang/heap_4.c **** 	taskEXIT_CRITICAL();
 873              		.loc 1 490 2 is_stmt 1 view .LVU325
 491:Middlewares/Third_Party/FreeRTOS/Source/portable/MemMang/heap_4.c **** }
 874              		.loc 1 491 1 is_stmt 0 view .LVU326
 875 0058 BDE8F840 		pop	{r3, r4, r5, r6, r7, lr}
 876              		.cfi_remember_state
 877              		.cfi_restore 14
 878              		.cfi_restore 7
 879              		.cfi_restore 6
 880              		.cfi_restore 5
 881              		.cfi_restore 4
 882              		.cfi_restore 3
 883              		.cfi_def_cfa_offset 0
 884              	.LVL57:
 490:Middlewares/Third_Party/FreeRTOS/Source/portable/MemMang/heap_4.c **** }
 885              		.loc 1 490 2 view .LVU327
 886 005c FFF7FEBF 		b	vPortExitCritical
 887              	.LVL58:
ARM GAS  /tmp/ccqqvZQq.s 			page 33


 888              	.L68:
 889              		.cfi_restore_state
 445:Middlewares/Third_Party/FreeRTOS/Source/portable/MemMang/heap_4.c **** 
 890              		.loc 1 445 21 view .LVU328
 891 0060 1C46     		mov	r4, r3
 445:Middlewares/Third_Party/FreeRTOS/Source/portable/MemMang/heap_4.c **** 
 892              		.loc 1 445 35 view .LVU329
 893 0062 4FF0FF36 		mov	r6, #-1
 445:Middlewares/Third_Party/FreeRTOS/Source/portable/MemMang/heap_4.c **** 
 894              		.loc 1 445 8 view .LVU330
 895 0066 1D46     		mov	r5, r3
 896 0068 E3E7     		b	.L66
 897              	.L72:
 898 006a 00BF     		.align	2
 899              	.L71:
 900 006c 00000000 		.word	.LANCHOR0
 901 0070 00000000 		.word	.LANCHOR1
 902 0074 00000000 		.word	.LANCHOR5
 903 0078 00000000 		.word	.LANCHOR6
 904 007c 00000000 		.word	.LANCHOR4
 905 0080 00000000 		.word	.LANCHOR3
 906              		.cfi_endproc
 907              	.LFE12:
 909              		.section	.bss.pxEnd,"aw",%nobits
 910              		.align	2
 911              		.set	.LANCHOR1,. + 0
 914              	pxEnd:
 915 0000 00000000 		.space	4
 916              		.section	.bss.ucHeap,"aw",%nobits
 917              		.align	2
 920              	ucHeap:
 921 0000 00000000 		.space	16384
 921      00000000 
 921      00000000 
 921      00000000 
 921      00000000 
 922              		.section	.bss.xBlockAllocatedBit,"aw",%nobits
 923              		.align	2
 924              		.set	.LANCHOR2,. + 0
 927              	xBlockAllocatedBit:
 928 0000 00000000 		.space	4
 929              		.section	.bss.xFreeBytesRemaining,"aw",%nobits
 930              		.align	2
 931              		.set	.LANCHOR4,. + 0
 934              	xFreeBytesRemaining:
 935 0000 00000000 		.space	4
 936              		.section	.bss.xMinimumEverFreeBytesRemaining,"aw",%nobits
 937              		.align	2
 938              		.set	.LANCHOR3,. + 0
 941              	xMinimumEverFreeBytesRemaining:
 942 0000 00000000 		.space	4
 943              		.section	.bss.xNumberOfSuccessfulAllocations,"aw",%nobits
 944              		.align	2
 945              		.set	.LANCHOR5,. + 0
 948              	xNumberOfSuccessfulAllocations:
 949 0000 00000000 		.space	4
 950              		.section	.bss.xNumberOfSuccessfulFrees,"aw",%nobits
ARM GAS  /tmp/ccqqvZQq.s 			page 34


 951              		.align	2
 952              		.set	.LANCHOR6,. + 0
 955              	xNumberOfSuccessfulFrees:
 956 0000 00000000 		.space	4
 957              		.section	.bss.xStart,"aw",%nobits
 958              		.align	2
 959              		.set	.LANCHOR0,. + 0
 962              	xStart:
 963 0000 00000000 		.space	8
 963      00000000 
 964              		.text
 965              	.Letext0:
 966              		.file 3 "/opt/gcc-arm-none-eabi-10.3-2021.10/lib/gcc/arm-none-eabi/10.3.1/include/stddef.h"
 967              		.file 4 "/opt/gcc-arm-none-eabi-10.3-2021.10/arm-none-eabi/include/machine/_default_types.h"
 968              		.file 5 "/opt/gcc-arm-none-eabi-10.3-2021.10/arm-none-eabi/include/sys/_stdint.h"
 969              		.file 6 "Middlewares/Third_Party/FreeRTOS/Source/include/portable.h"
 970              		.file 7 "Middlewares/Third_Party/FreeRTOS/Source/include/task.h"
ARM GAS  /tmp/ccqqvZQq.s 			page 35

