ARM GAS  /tmp/cchQ4tcR.s 			page 1


   1              		.cpu cortex-m4
   2              		.arch armv7e-m
   3              		.fpu fpv4-sp-d16
   4              		.eabi_attribute 27, 1
   5              		.eabi_attribute 28, 1
   6              		.eabi_attribute 20, 1
   7              		.eabi_attribute 21, 1
   8              		.eabi_attribute 23, 3
   9              		.eabi_attribute 24, 1
  10              		.eabi_attribute 25, 1
  11              		.eabi_attribute 26, 1
  12              		.eabi_attribute 30, 2
  13              		.eabi_attribute 34, 1
  14              		.eabi_attribute 18, 4
  15              		.file	"stm32f4xx_hal_rtc_ex.c"
  16              		.text
  17              	.Ltext0:
  18              		.cfi_sections	.debug_frame
  19              		.section	.text.HAL_RTCEx_SetTimeStamp,"ax",%progbits
  20              		.align	1
  21              		.p2align 2,,3
  22              		.global	HAL_RTCEx_SetTimeStamp
  23              		.syntax unified
  24              		.thumb
  25              		.thumb_func
  27              	HAL_RTCEx_SetTimeStamp:
  28              	.LVL0:
  29              	.LFB235:
  30              		.file 1 "Drivers/STM32F4xx_HAL_Driver/Src/stm32f4xx_hal_rtc_ex.c"
   1:Drivers/STM32F4xx_HAL_Driver/Src/stm32f4xx_hal_rtc_ex.c **** /**
   2:Drivers/STM32F4xx_HAL_Driver/Src/stm32f4xx_hal_rtc_ex.c ****   ******************************************************************************
   3:Drivers/STM32F4xx_HAL_Driver/Src/stm32f4xx_hal_rtc_ex.c ****   * @file    stm32f4xx_hal_rtc_ex.c
   4:Drivers/STM32F4xx_HAL_Driver/Src/stm32f4xx_hal_rtc_ex.c ****   * @author  MCD Application Team
   5:Drivers/STM32F4xx_HAL_Driver/Src/stm32f4xx_hal_rtc_ex.c ****   * @brief   RTC HAL module driver.
   6:Drivers/STM32F4xx_HAL_Driver/Src/stm32f4xx_hal_rtc_ex.c ****   *          This file provides firmware functions to manage the following
   7:Drivers/STM32F4xx_HAL_Driver/Src/stm32f4xx_hal_rtc_ex.c ****   *          functionalities of the Real Time Clock (RTC) Extension peripheral:
   8:Drivers/STM32F4xx_HAL_Driver/Src/stm32f4xx_hal_rtc_ex.c ****   *           + RTC Time Stamp functions
   9:Drivers/STM32F4xx_HAL_Driver/Src/stm32f4xx_hal_rtc_ex.c ****   *           + RTC Tamper functions
  10:Drivers/STM32F4xx_HAL_Driver/Src/stm32f4xx_hal_rtc_ex.c ****   *           + RTC Wake-up functions
  11:Drivers/STM32F4xx_HAL_Driver/Src/stm32f4xx_hal_rtc_ex.c ****   *           + Extension Control functions
  12:Drivers/STM32F4xx_HAL_Driver/Src/stm32f4xx_hal_rtc_ex.c ****   *           + Extension RTC features functions
  13:Drivers/STM32F4xx_HAL_Driver/Src/stm32f4xx_hal_rtc_ex.c ****   *
  14:Drivers/STM32F4xx_HAL_Driver/Src/stm32f4xx_hal_rtc_ex.c ****   @verbatim
  15:Drivers/STM32F4xx_HAL_Driver/Src/stm32f4xx_hal_rtc_ex.c ****   ==============================================================================
  16:Drivers/STM32F4xx_HAL_Driver/Src/stm32f4xx_hal_rtc_ex.c ****                   ##### How to use this driver #####
  17:Drivers/STM32F4xx_HAL_Driver/Src/stm32f4xx_hal_rtc_ex.c ****   ==============================================================================
  18:Drivers/STM32F4xx_HAL_Driver/Src/stm32f4xx_hal_rtc_ex.c ****   [..]
  19:Drivers/STM32F4xx_HAL_Driver/Src/stm32f4xx_hal_rtc_ex.c ****     (+) Enable the RTC domain access.
  20:Drivers/STM32F4xx_HAL_Driver/Src/stm32f4xx_hal_rtc_ex.c ****     (+) Configure the RTC Prescaler (Asynchronous and Synchronous) and RTC hour
  21:Drivers/STM32F4xx_HAL_Driver/Src/stm32f4xx_hal_rtc_ex.c ****         format using the HAL_RTC_Init() function.
  22:Drivers/STM32F4xx_HAL_Driver/Src/stm32f4xx_hal_rtc_ex.c **** 
  23:Drivers/STM32F4xx_HAL_Driver/Src/stm32f4xx_hal_rtc_ex.c ****   *** RTC Wake-up configuration ***
  24:Drivers/STM32F4xx_HAL_Driver/Src/stm32f4xx_hal_rtc_ex.c ****   ================================
  25:Drivers/STM32F4xx_HAL_Driver/Src/stm32f4xx_hal_rtc_ex.c ****   [..]
  26:Drivers/STM32F4xx_HAL_Driver/Src/stm32f4xx_hal_rtc_ex.c ****     (+) To configure the RTC Wake-up Clock source and Counter use the HAL_RTCEx_SetWakeUpTimer()
  27:Drivers/STM32F4xx_HAL_Driver/Src/stm32f4xx_hal_rtc_ex.c ****         function. You can also configure the RTC Wake-up timer in interrupt mode
  28:Drivers/STM32F4xx_HAL_Driver/Src/stm32f4xx_hal_rtc_ex.c ****         using the HAL_RTCEx_SetWakeUpTimer_IT() function.
ARM GAS  /tmp/cchQ4tcR.s 			page 2


  29:Drivers/STM32F4xx_HAL_Driver/Src/stm32f4xx_hal_rtc_ex.c ****     (+) To read the RTC Wake-up Counter register, use the HAL_RTCEx_GetWakeUpTimer()
  30:Drivers/STM32F4xx_HAL_Driver/Src/stm32f4xx_hal_rtc_ex.c ****         function.
  31:Drivers/STM32F4xx_HAL_Driver/Src/stm32f4xx_hal_rtc_ex.c **** 
  32:Drivers/STM32F4xx_HAL_Driver/Src/stm32f4xx_hal_rtc_ex.c ****   *** TimeStamp configuration ***
  33:Drivers/STM32F4xx_HAL_Driver/Src/stm32f4xx_hal_rtc_ex.c ****   ===============================
  34:Drivers/STM32F4xx_HAL_Driver/Src/stm32f4xx_hal_rtc_ex.c ****   [..]
  35:Drivers/STM32F4xx_HAL_Driver/Src/stm32f4xx_hal_rtc_ex.c ****     (+) Configure the RTC_AFx trigger and enable the RTC TimeStamp using the
  36:Drivers/STM32F4xx_HAL_Driver/Src/stm32f4xx_hal_rtc_ex.c ****         HAL_RTCEx_SetTimeStamp() function. You can also configure the RTC TimeStamp with
  37:Drivers/STM32F4xx_HAL_Driver/Src/stm32f4xx_hal_rtc_ex.c ****         interrupt mode using the HAL_RTCEx_SetTimeStamp_IT() function.
  38:Drivers/STM32F4xx_HAL_Driver/Src/stm32f4xx_hal_rtc_ex.c ****     (+) To read the RTC TimeStamp Time and Date register, use the HAL_RTCEx_GetTimeStamp()
  39:Drivers/STM32F4xx_HAL_Driver/Src/stm32f4xx_hal_rtc_ex.c ****         function.
  40:Drivers/STM32F4xx_HAL_Driver/Src/stm32f4xx_hal_rtc_ex.c ****     (+) The TIMESTAMP alternate function can be mapped either to RTC_AF1 (PC13)
  41:Drivers/STM32F4xx_HAL_Driver/Src/stm32f4xx_hal_rtc_ex.c ****         or RTC_AF2 (PI8 or PA0 only for STM32F446xx devices) depending on the value of TSINSEL bit 
  42:Drivers/STM32F4xx_HAL_Driver/Src/stm32f4xx_hal_rtc_ex.c ****         RTC_TAFCR register. The corresponding pin is also selected by HAL_RTCEx_SetTimeStamp()
  43:Drivers/STM32F4xx_HAL_Driver/Src/stm32f4xx_hal_rtc_ex.c ****         or HAL_RTCEx_SetTimeStamp_IT() function.
  44:Drivers/STM32F4xx_HAL_Driver/Src/stm32f4xx_hal_rtc_ex.c **** 
  45:Drivers/STM32F4xx_HAL_Driver/Src/stm32f4xx_hal_rtc_ex.c ****   *** Tamper configuration ***
  46:Drivers/STM32F4xx_HAL_Driver/Src/stm32f4xx_hal_rtc_ex.c ****   ============================
  47:Drivers/STM32F4xx_HAL_Driver/Src/stm32f4xx_hal_rtc_ex.c ****   [..]
  48:Drivers/STM32F4xx_HAL_Driver/Src/stm32f4xx_hal_rtc_ex.c ****     (+) Enable the RTC Tamper and configure the Tamper filter count, trigger Edge
  49:Drivers/STM32F4xx_HAL_Driver/Src/stm32f4xx_hal_rtc_ex.c ****         or Level according to the Tamper filter (if equal to 0 Edge else Level)
  50:Drivers/STM32F4xx_HAL_Driver/Src/stm32f4xx_hal_rtc_ex.c ****         value, sampling frequency, precharge or discharge and Pull-UP using the
  51:Drivers/STM32F4xx_HAL_Driver/Src/stm32f4xx_hal_rtc_ex.c ****         HAL_RTCEx_SetTamper() function. You can configure RTC Tamper in interrupt
  52:Drivers/STM32F4xx_HAL_Driver/Src/stm32f4xx_hal_rtc_ex.c ****         mode using HAL_RTCEx_SetTamper_IT() function.
  53:Drivers/STM32F4xx_HAL_Driver/Src/stm32f4xx_hal_rtc_ex.c ****     (+) The TAMPER1 alternate function can be mapped either to RTC_AF1 (PC13)
  54:Drivers/STM32F4xx_HAL_Driver/Src/stm32f4xx_hal_rtc_ex.c ****         or RTC_AF2 (PI8 or PA0 only for STM32F446xx devices) depending on the value of TAMP1INSEL b
  55:Drivers/STM32F4xx_HAL_Driver/Src/stm32f4xx_hal_rtc_ex.c ****         RTC_TAFCR register. The corresponding pin is also selected by HAL_RTCEx_SetTamper()
  56:Drivers/STM32F4xx_HAL_Driver/Src/stm32f4xx_hal_rtc_ex.c ****         or HAL_RTCEx_SetTamper_IT() function.
  57:Drivers/STM32F4xx_HAL_Driver/Src/stm32f4xx_hal_rtc_ex.c **** 
  58:Drivers/STM32F4xx_HAL_Driver/Src/stm32f4xx_hal_rtc_ex.c ****   *** Backup Data Registers configuration ***
  59:Drivers/STM32F4xx_HAL_Driver/Src/stm32f4xx_hal_rtc_ex.c ****   ===========================================
  60:Drivers/STM32F4xx_HAL_Driver/Src/stm32f4xx_hal_rtc_ex.c ****   [..]
  61:Drivers/STM32F4xx_HAL_Driver/Src/stm32f4xx_hal_rtc_ex.c ****     (+) To write to the RTC Backup Data registers, use the HAL_RTCEx_BKUPWrite()
  62:Drivers/STM32F4xx_HAL_Driver/Src/stm32f4xx_hal_rtc_ex.c ****         function.
  63:Drivers/STM32F4xx_HAL_Driver/Src/stm32f4xx_hal_rtc_ex.c ****     (+) To read the RTC Backup Data registers, use the HAL_RTCEx_BKUPRead()
  64:Drivers/STM32F4xx_HAL_Driver/Src/stm32f4xx_hal_rtc_ex.c ****         function.
  65:Drivers/STM32F4xx_HAL_Driver/Src/stm32f4xx_hal_rtc_ex.c **** 
  66:Drivers/STM32F4xx_HAL_Driver/Src/stm32f4xx_hal_rtc_ex.c ****    @endverbatim
  67:Drivers/STM32F4xx_HAL_Driver/Src/stm32f4xx_hal_rtc_ex.c ****   ******************************************************************************
  68:Drivers/STM32F4xx_HAL_Driver/Src/stm32f4xx_hal_rtc_ex.c ****   * @attention
  69:Drivers/STM32F4xx_HAL_Driver/Src/stm32f4xx_hal_rtc_ex.c ****   *
  70:Drivers/STM32F4xx_HAL_Driver/Src/stm32f4xx_hal_rtc_ex.c ****   * <h2><center>&copy; Copyright (c) 2017 STMicroelectronics.
  71:Drivers/STM32F4xx_HAL_Driver/Src/stm32f4xx_hal_rtc_ex.c ****   * All rights reserved.</center></h2>
  72:Drivers/STM32F4xx_HAL_Driver/Src/stm32f4xx_hal_rtc_ex.c ****   *
  73:Drivers/STM32F4xx_HAL_Driver/Src/stm32f4xx_hal_rtc_ex.c ****   * This software component is licensed by ST under BSD 3-Clause license,
  74:Drivers/STM32F4xx_HAL_Driver/Src/stm32f4xx_hal_rtc_ex.c ****   * the "License"; You may not use this file except in compliance with the
  75:Drivers/STM32F4xx_HAL_Driver/Src/stm32f4xx_hal_rtc_ex.c ****   * License. You may obtain a copy of the License at:
  76:Drivers/STM32F4xx_HAL_Driver/Src/stm32f4xx_hal_rtc_ex.c ****   *                        opensource.org/licenses/BSD-3-Clause
  77:Drivers/STM32F4xx_HAL_Driver/Src/stm32f4xx_hal_rtc_ex.c ****   *
  78:Drivers/STM32F4xx_HAL_Driver/Src/stm32f4xx_hal_rtc_ex.c ****   ******************************************************************************
  79:Drivers/STM32F4xx_HAL_Driver/Src/stm32f4xx_hal_rtc_ex.c ****   */
  80:Drivers/STM32F4xx_HAL_Driver/Src/stm32f4xx_hal_rtc_ex.c **** 
  81:Drivers/STM32F4xx_HAL_Driver/Src/stm32f4xx_hal_rtc_ex.c **** /* Includes ------------------------------------------------------------------*/
  82:Drivers/STM32F4xx_HAL_Driver/Src/stm32f4xx_hal_rtc_ex.c **** #include "stm32f4xx_hal.h"
  83:Drivers/STM32F4xx_HAL_Driver/Src/stm32f4xx_hal_rtc_ex.c **** 
  84:Drivers/STM32F4xx_HAL_Driver/Src/stm32f4xx_hal_rtc_ex.c **** /** @addtogroup STM32F4xx_HAL_Driver
  85:Drivers/STM32F4xx_HAL_Driver/Src/stm32f4xx_hal_rtc_ex.c ****   * @{
ARM GAS  /tmp/cchQ4tcR.s 			page 3


  86:Drivers/STM32F4xx_HAL_Driver/Src/stm32f4xx_hal_rtc_ex.c ****   */
  87:Drivers/STM32F4xx_HAL_Driver/Src/stm32f4xx_hal_rtc_ex.c **** 
  88:Drivers/STM32F4xx_HAL_Driver/Src/stm32f4xx_hal_rtc_ex.c **** /** @defgroup RTCEx RTCEx
  89:Drivers/STM32F4xx_HAL_Driver/Src/stm32f4xx_hal_rtc_ex.c ****   * @brief RTC HAL module driver
  90:Drivers/STM32F4xx_HAL_Driver/Src/stm32f4xx_hal_rtc_ex.c ****   * @{
  91:Drivers/STM32F4xx_HAL_Driver/Src/stm32f4xx_hal_rtc_ex.c ****   */
  92:Drivers/STM32F4xx_HAL_Driver/Src/stm32f4xx_hal_rtc_ex.c **** 
  93:Drivers/STM32F4xx_HAL_Driver/Src/stm32f4xx_hal_rtc_ex.c **** #ifdef HAL_RTC_MODULE_ENABLED
  94:Drivers/STM32F4xx_HAL_Driver/Src/stm32f4xx_hal_rtc_ex.c **** 
  95:Drivers/STM32F4xx_HAL_Driver/Src/stm32f4xx_hal_rtc_ex.c **** /* Private typedef -----------------------------------------------------------*/
  96:Drivers/STM32F4xx_HAL_Driver/Src/stm32f4xx_hal_rtc_ex.c **** /* Private define ------------------------------------------------------------*/
  97:Drivers/STM32F4xx_HAL_Driver/Src/stm32f4xx_hal_rtc_ex.c **** /* Private macro -------------------------------------------------------------*/
  98:Drivers/STM32F4xx_HAL_Driver/Src/stm32f4xx_hal_rtc_ex.c **** /* Private variables ---------------------------------------------------------*/
  99:Drivers/STM32F4xx_HAL_Driver/Src/stm32f4xx_hal_rtc_ex.c **** /* Private function prototypes -----------------------------------------------*/
 100:Drivers/STM32F4xx_HAL_Driver/Src/stm32f4xx_hal_rtc_ex.c **** /* Private functions ---------------------------------------------------------*/
 101:Drivers/STM32F4xx_HAL_Driver/Src/stm32f4xx_hal_rtc_ex.c **** 
 102:Drivers/STM32F4xx_HAL_Driver/Src/stm32f4xx_hal_rtc_ex.c **** /** @defgroup RTCEx_Exported_Functions RTCEx Exported Functions
 103:Drivers/STM32F4xx_HAL_Driver/Src/stm32f4xx_hal_rtc_ex.c ****   * @{
 104:Drivers/STM32F4xx_HAL_Driver/Src/stm32f4xx_hal_rtc_ex.c ****   */
 105:Drivers/STM32F4xx_HAL_Driver/Src/stm32f4xx_hal_rtc_ex.c **** 
 106:Drivers/STM32F4xx_HAL_Driver/Src/stm32f4xx_hal_rtc_ex.c **** /** @defgroup RTCEx_Exported_Functions_Group1 RTC TimeStamp and Tamper functions
 107:Drivers/STM32F4xx_HAL_Driver/Src/stm32f4xx_hal_rtc_ex.c ****  *  @brief   RTC TimeStamp and Tamper functions
 108:Drivers/STM32F4xx_HAL_Driver/Src/stm32f4xx_hal_rtc_ex.c ****  *
 109:Drivers/STM32F4xx_HAL_Driver/Src/stm32f4xx_hal_rtc_ex.c **** @verbatim
 110:Drivers/STM32F4xx_HAL_Driver/Src/stm32f4xx_hal_rtc_ex.c ****  ===============================================================================
 111:Drivers/STM32F4xx_HAL_Driver/Src/stm32f4xx_hal_rtc_ex.c ****                  ##### RTC TimeStamp and Tamper functions #####
 112:Drivers/STM32F4xx_HAL_Driver/Src/stm32f4xx_hal_rtc_ex.c ****  ===============================================================================
 113:Drivers/STM32F4xx_HAL_Driver/Src/stm32f4xx_hal_rtc_ex.c **** 
 114:Drivers/STM32F4xx_HAL_Driver/Src/stm32f4xx_hal_rtc_ex.c ****  [..] This section provides functions allowing to configure TimeStamp feature
 115:Drivers/STM32F4xx_HAL_Driver/Src/stm32f4xx_hal_rtc_ex.c **** 
 116:Drivers/STM32F4xx_HAL_Driver/Src/stm32f4xx_hal_rtc_ex.c **** @endverbatim
 117:Drivers/STM32F4xx_HAL_Driver/Src/stm32f4xx_hal_rtc_ex.c ****   * @{
 118:Drivers/STM32F4xx_HAL_Driver/Src/stm32f4xx_hal_rtc_ex.c ****   */
 119:Drivers/STM32F4xx_HAL_Driver/Src/stm32f4xx_hal_rtc_ex.c **** 
 120:Drivers/STM32F4xx_HAL_Driver/Src/stm32f4xx_hal_rtc_ex.c **** /**
 121:Drivers/STM32F4xx_HAL_Driver/Src/stm32f4xx_hal_rtc_ex.c ****   * @brief  Sets TimeStamp.
 122:Drivers/STM32F4xx_HAL_Driver/Src/stm32f4xx_hal_rtc_ex.c ****   * @note   This API must be called before enabling the TimeStamp feature.
 123:Drivers/STM32F4xx_HAL_Driver/Src/stm32f4xx_hal_rtc_ex.c ****   * @param  hrtc pointer to a RTC_HandleTypeDef structure that contains
 124:Drivers/STM32F4xx_HAL_Driver/Src/stm32f4xx_hal_rtc_ex.c ****   *                the configuration information for RTC.
 125:Drivers/STM32F4xx_HAL_Driver/Src/stm32f4xx_hal_rtc_ex.c ****   * @param  TimeStampEdge Specifies the pin edge on which the TimeStamp is
 126:Drivers/STM32F4xx_HAL_Driver/Src/stm32f4xx_hal_rtc_ex.c ****   *         activated.
 127:Drivers/STM32F4xx_HAL_Driver/Src/stm32f4xx_hal_rtc_ex.c ****   *          This parameter can be one of the following values:
 128:Drivers/STM32F4xx_HAL_Driver/Src/stm32f4xx_hal_rtc_ex.c ****   *             @arg RTC_TIMESTAMPEDGE_RISING: the Time stamp event occurs on the
 129:Drivers/STM32F4xx_HAL_Driver/Src/stm32f4xx_hal_rtc_ex.c ****   *                                        rising edge of the related pin.
 130:Drivers/STM32F4xx_HAL_Driver/Src/stm32f4xx_hal_rtc_ex.c ****   *             @arg RTC_TIMESTAMPEDGE_FALLING: the Time stamp event occurs on the
 131:Drivers/STM32F4xx_HAL_Driver/Src/stm32f4xx_hal_rtc_ex.c ****   *                                         falling edge of the related pin.
 132:Drivers/STM32F4xx_HAL_Driver/Src/stm32f4xx_hal_rtc_ex.c ****   * @param  RTC_TimeStampPin specifies the RTC TimeStamp Pin.
 133:Drivers/STM32F4xx_HAL_Driver/Src/stm32f4xx_hal_rtc_ex.c ****   *          This parameter can be one of the following values:
 134:Drivers/STM32F4xx_HAL_Driver/Src/stm32f4xx_hal_rtc_ex.c ****   *             @arg RTC_TIMESTAMPPIN_DEFAULT: PC13 is selected as RTC TimeStamp Pin.
 135:Drivers/STM32F4xx_HAL_Driver/Src/stm32f4xx_hal_rtc_ex.c ****   *             @arg RTC_TIMESTAMPPIN_POS1: PI8/PA0 is selected as RTC TimeStamp Pin.
 136:Drivers/STM32F4xx_HAL_Driver/Src/stm32f4xx_hal_rtc_ex.c ****   *             (not applicable in the case of STM32F412xx, STM32F413xx and STM32F423xx devices)
 137:Drivers/STM32F4xx_HAL_Driver/Src/stm32f4xx_hal_rtc_ex.c ****   *             (PI8 for all STM32 devices except for STM32F446xx devices the PA0 is used)
 138:Drivers/STM32F4xx_HAL_Driver/Src/stm32f4xx_hal_rtc_ex.c ****   *             @arg RTC_TIMESTAMPPIN_PA0: PA0 is selected as RTC TimeStamp Pin only for STM32F446x
 139:Drivers/STM32F4xx_HAL_Driver/Src/stm32f4xx_hal_rtc_ex.c ****   * @retval HAL status
 140:Drivers/STM32F4xx_HAL_Driver/Src/stm32f4xx_hal_rtc_ex.c ****   */
 141:Drivers/STM32F4xx_HAL_Driver/Src/stm32f4xx_hal_rtc_ex.c **** HAL_StatusTypeDef HAL_RTCEx_SetTimeStamp(RTC_HandleTypeDef *hrtc, uint32_t TimeStampEdge, uint32_t 
 142:Drivers/STM32F4xx_HAL_Driver/Src/stm32f4xx_hal_rtc_ex.c **** {
ARM GAS  /tmp/cchQ4tcR.s 			page 4


  31              		.loc 1 142 1 view -0
  32              		.cfi_startproc
  33              		@ args = 0, pretend = 0, frame = 0
  34              		@ frame_needed = 0, uses_anonymous_args = 0
  35              		@ link register save eliminated.
 143:Drivers/STM32F4xx_HAL_Driver/Src/stm32f4xx_hal_rtc_ex.c ****   uint32_t tmpreg = 0U;
  36              		.loc 1 143 3 view .LVU1
 144:Drivers/STM32F4xx_HAL_Driver/Src/stm32f4xx_hal_rtc_ex.c **** 
 145:Drivers/STM32F4xx_HAL_Driver/Src/stm32f4xx_hal_rtc_ex.c ****   /* Check the parameters */
 146:Drivers/STM32F4xx_HAL_Driver/Src/stm32f4xx_hal_rtc_ex.c ****   assert_param(IS_TIMESTAMP_EDGE(TimeStampEdge));
  37              		.loc 1 146 3 view .LVU2
 147:Drivers/STM32F4xx_HAL_Driver/Src/stm32f4xx_hal_rtc_ex.c ****   assert_param(IS_RTC_TIMESTAMP_PIN(RTC_TimeStampPin));
  38              		.loc 1 147 3 view .LVU3
 148:Drivers/STM32F4xx_HAL_Driver/Src/stm32f4xx_hal_rtc_ex.c **** 
 149:Drivers/STM32F4xx_HAL_Driver/Src/stm32f4xx_hal_rtc_ex.c ****   /* Process Locked */
 150:Drivers/STM32F4xx_HAL_Driver/Src/stm32f4xx_hal_rtc_ex.c ****   __HAL_LOCK(hrtc);
  39              		.loc 1 150 3 view .LVU4
  40              		.loc 1 150 3 view .LVU5
  41 0000 037F     		ldrb	r3, [r0, #28]	@ zero_extendqisi2
  42 0002 012B     		cmp	r3, #1
 142:Drivers/STM32F4xx_HAL_Driver/Src/stm32f4xx_hal_rtc_ex.c ****   uint32_t tmpreg = 0U;
  43              		.loc 1 142 1 is_stmt 0 view .LVU6
  44 0004 8446     		mov	ip, r0
  45              		.loc 1 150 3 view .LVU7
  46 0006 23D0     		beq	.L3
  47              		.loc 1 150 3 is_stmt 1 discriminator 2 view .LVU8
  48              		.loc 1 150 3 discriminator 2 view .LVU9
 151:Drivers/STM32F4xx_HAL_Driver/Src/stm32f4xx_hal_rtc_ex.c **** 
 152:Drivers/STM32F4xx_HAL_Driver/Src/stm32f4xx_hal_rtc_ex.c ****   hrtc->State = HAL_RTC_STATE_BUSY;
  49              		.loc 1 152 3 discriminator 2 view .LVU10
 153:Drivers/STM32F4xx_HAL_Driver/Src/stm32f4xx_hal_rtc_ex.c **** 
 154:Drivers/STM32F4xx_HAL_Driver/Src/stm32f4xx_hal_rtc_ex.c ****   /* Get the RTC_CR register and clear the bits to be configured */
 155:Drivers/STM32F4xx_HAL_Driver/Src/stm32f4xx_hal_rtc_ex.c ****   tmpreg = (uint32_t)(hrtc->Instance->CR & (uint32_t)~(RTC_CR_TSEDGE | RTC_CR_TSE));
  50              		.loc 1 155 27 is_stmt 0 discriminator 2 view .LVU11
  51 0008 0368     		ldr	r3, [r0]
 152:Drivers/STM32F4xx_HAL_Driver/Src/stm32f4xx_hal_rtc_ex.c **** 
  52              		.loc 1 152 15 discriminator 2 view .LVU12
  53 000a 0220     		movs	r0, #2
  54              	.LVL1:
 152:Drivers/STM32F4xx_HAL_Driver/Src/stm32f4xx_hal_rtc_ex.c **** 
  55              		.loc 1 152 15 discriminator 2 view .LVU13
  56 000c 8CF81D00 		strb	r0, [ip, #29]
  57              		.loc 1 155 3 is_stmt 1 discriminator 2 view .LVU14
  58              		.loc 1 155 37 is_stmt 0 discriminator 2 view .LVU15
  59 0010 9868     		ldr	r0, [r3, #8]
  60              		.loc 1 155 10 discriminator 2 view .LVU16
  61 0012 20F40060 		bic	r0, r0, #2048
  62 0016 20F00800 		bic	r0, r0, #8
  63              	.LVL2:
 156:Drivers/STM32F4xx_HAL_Driver/Src/stm32f4xx_hal_rtc_ex.c **** 
 157:Drivers/STM32F4xx_HAL_Driver/Src/stm32f4xx_hal_rtc_ex.c ****   tmpreg|= TimeStampEdge;
  64              		.loc 1 157 3 is_stmt 1 discriminator 2 view .LVU17
  65              		.loc 1 157 9 is_stmt 0 discriminator 2 view .LVU18
  66 001a 0843     		orrs	r0, r0, r1
  67              	.LVL3:
 158:Drivers/STM32F4xx_HAL_Driver/Src/stm32f4xx_hal_rtc_ex.c **** 
 159:Drivers/STM32F4xx_HAL_Driver/Src/stm32f4xx_hal_rtc_ex.c ****   /* Disable the write protection for RTC registers */
ARM GAS  /tmp/cchQ4tcR.s 			page 5


 160:Drivers/STM32F4xx_HAL_Driver/Src/stm32f4xx_hal_rtc_ex.c ****   __HAL_RTC_WRITEPROTECTION_DISABLE(hrtc);
  68              		.loc 1 160 3 is_stmt 1 discriminator 2 view .LVU19
  69              		.loc 1 160 3 discriminator 2 view .LVU20
  70 001c CA21     		movs	r1, #202
  71              	.LVL4:
  72              		.loc 1 160 3 is_stmt 0 discriminator 2 view .LVU21
  73 001e 5962     		str	r1, [r3, #36]
  74              		.loc 1 160 3 is_stmt 1 discriminator 2 view .LVU22
  75 0020 5321     		movs	r1, #83
  76 0022 5962     		str	r1, [r3, #36]
  77              		.loc 1 160 3 discriminator 2 view .LVU23
 161:Drivers/STM32F4xx_HAL_Driver/Src/stm32f4xx_hal_rtc_ex.c **** 
 162:Drivers/STM32F4xx_HAL_Driver/Src/stm32f4xx_hal_rtc_ex.c ****   hrtc->Instance->TAFCR &= (uint32_t)~RTC_TAFCR_TSINSEL;
  78              		.loc 1 162 3 discriminator 2 view .LVU24
  79              		.loc 1 162 25 is_stmt 0 discriminator 2 view .LVU25
  80 0024 196C     		ldr	r1, [r3, #64]
  81 0026 21F40031 		bic	r1, r1, #131072
  82 002a 1964     		str	r1, [r3, #64]
 163:Drivers/STM32F4xx_HAL_Driver/Src/stm32f4xx_hal_rtc_ex.c ****   hrtc->Instance->TAFCR |= (uint32_t)(RTC_TimeStampPin);
  83              		.loc 1 163 3 is_stmt 1 discriminator 2 view .LVU26
  84              		.loc 1 163 25 is_stmt 0 discriminator 2 view .LVU27
  85 002c 196C     		ldr	r1, [r3, #64]
  86 002e 0A43     		orrs	r2, r2, r1
  87              	.LVL5:
  88              		.loc 1 163 25 discriminator 2 view .LVU28
  89 0030 1A64     		str	r2, [r3, #64]
 164:Drivers/STM32F4xx_HAL_Driver/Src/stm32f4xx_hal_rtc_ex.c **** 
 165:Drivers/STM32F4xx_HAL_Driver/Src/stm32f4xx_hal_rtc_ex.c ****   /* Configure the Time Stamp TSEDGE and Enable bits */
 166:Drivers/STM32F4xx_HAL_Driver/Src/stm32f4xx_hal_rtc_ex.c ****   hrtc->Instance->CR = (uint32_t)tmpreg;
  90              		.loc 1 166 3 is_stmt 1 discriminator 2 view .LVU29
  91              		.loc 1 166 22 is_stmt 0 discriminator 2 view .LVU30
  92 0032 9860     		str	r0, [r3, #8]
 167:Drivers/STM32F4xx_HAL_Driver/Src/stm32f4xx_hal_rtc_ex.c **** 
 168:Drivers/STM32F4xx_HAL_Driver/Src/stm32f4xx_hal_rtc_ex.c ****   __HAL_RTC_TIMESTAMP_ENABLE(hrtc);
  93              		.loc 1 168 3 is_stmt 1 discriminator 2 view .LVU31
  94 0034 9A68     		ldr	r2, [r3, #8]
  95 0036 42F40062 		orr	r2, r2, #2048
  96 003a 9A60     		str	r2, [r3, #8]
 169:Drivers/STM32F4xx_HAL_Driver/Src/stm32f4xx_hal_rtc_ex.c **** 
 170:Drivers/STM32F4xx_HAL_Driver/Src/stm32f4xx_hal_rtc_ex.c ****   /* Enable the write protection for RTC registers */
 171:Drivers/STM32F4xx_HAL_Driver/Src/stm32f4xx_hal_rtc_ex.c ****   __HAL_RTC_WRITEPROTECTION_ENABLE(hrtc);
  97              		.loc 1 171 3 discriminator 2 view .LVU32
  98              		.loc 1 171 3 discriminator 2 view .LVU33
 172:Drivers/STM32F4xx_HAL_Driver/Src/stm32f4xx_hal_rtc_ex.c **** 
 173:Drivers/STM32F4xx_HAL_Driver/Src/stm32f4xx_hal_rtc_ex.c ****   /* Change RTC state */
 174:Drivers/STM32F4xx_HAL_Driver/Src/stm32f4xx_hal_rtc_ex.c ****   hrtc->State = HAL_RTC_STATE_READY;
 175:Drivers/STM32F4xx_HAL_Driver/Src/stm32f4xx_hal_rtc_ex.c **** 
 176:Drivers/STM32F4xx_HAL_Driver/Src/stm32f4xx_hal_rtc_ex.c ****   /* Process Unlocked */
 177:Drivers/STM32F4xx_HAL_Driver/Src/stm32f4xx_hal_rtc_ex.c ****   __HAL_UNLOCK(hrtc);
  99              		.loc 1 177 3 is_stmt 0 discriminator 2 view .LVU34
 100 003c 0021     		movs	r1, #0
 171:Drivers/STM32F4xx_HAL_Driver/Src/stm32f4xx_hal_rtc_ex.c **** 
 101              		.loc 1 171 3 discriminator 2 view .LVU35
 102 003e FF20     		movs	r0, #255
 103              	.LVL6:
 174:Drivers/STM32F4xx_HAL_Driver/Src/stm32f4xx_hal_rtc_ex.c **** 
 104              		.loc 1 174 15 discriminator 2 view .LVU36
ARM GAS  /tmp/cchQ4tcR.s 			page 6


 105 0040 0122     		movs	r2, #1
 171:Drivers/STM32F4xx_HAL_Driver/Src/stm32f4xx_hal_rtc_ex.c **** 
 106              		.loc 1 171 3 discriminator 2 view .LVU37
 107 0042 5862     		str	r0, [r3, #36]
 171:Drivers/STM32F4xx_HAL_Driver/Src/stm32f4xx_hal_rtc_ex.c **** 
 108              		.loc 1 171 3 is_stmt 1 discriminator 2 view .LVU38
 174:Drivers/STM32F4xx_HAL_Driver/Src/stm32f4xx_hal_rtc_ex.c **** 
 109              		.loc 1 174 3 discriminator 2 view .LVU39
 178:Drivers/STM32F4xx_HAL_Driver/Src/stm32f4xx_hal_rtc_ex.c **** 
 179:Drivers/STM32F4xx_HAL_Driver/Src/stm32f4xx_hal_rtc_ex.c ****   return HAL_OK;
 110              		.loc 1 179 10 is_stmt 0 discriminator 2 view .LVU40
 111 0044 0846     		mov	r0, r1
 174:Drivers/STM32F4xx_HAL_Driver/Src/stm32f4xx_hal_rtc_ex.c **** 
 112              		.loc 1 174 15 discriminator 2 view .LVU41
 113 0046 8CF81D20 		strb	r2, [ip, #29]
 177:Drivers/STM32F4xx_HAL_Driver/Src/stm32f4xx_hal_rtc_ex.c **** 
 114              		.loc 1 177 3 is_stmt 1 discriminator 2 view .LVU42
 177:Drivers/STM32F4xx_HAL_Driver/Src/stm32f4xx_hal_rtc_ex.c **** 
 115              		.loc 1 177 3 discriminator 2 view .LVU43
 116 004a 8CF81C10 		strb	r1, [ip, #28]
 177:Drivers/STM32F4xx_HAL_Driver/Src/stm32f4xx_hal_rtc_ex.c **** 
 117              		.loc 1 177 3 discriminator 2 view .LVU44
 118              		.loc 1 179 3 discriminator 2 view .LVU45
 119              		.loc 1 179 10 is_stmt 0 discriminator 2 view .LVU46
 120 004e 7047     		bx	lr
 121              	.LVL7:
 122              	.L3:
 150:Drivers/STM32F4xx_HAL_Driver/Src/stm32f4xx_hal_rtc_ex.c **** 
 123              		.loc 1 150 3 view .LVU47
 124 0050 0220     		movs	r0, #2
 125              	.LVL8:
 180:Drivers/STM32F4xx_HAL_Driver/Src/stm32f4xx_hal_rtc_ex.c **** }
 126              		.loc 1 180 1 view .LVU48
 127 0052 7047     		bx	lr
 128              		.cfi_endproc
 129              	.LFE235:
 131              		.section	.text.HAL_RTCEx_SetTimeStamp_IT,"ax",%progbits
 132              		.align	1
 133              		.p2align 2,,3
 134              		.global	HAL_RTCEx_SetTimeStamp_IT
 135              		.syntax unified
 136              		.thumb
 137              		.thumb_func
 139              	HAL_RTCEx_SetTimeStamp_IT:
 140              	.LVL9:
 141              	.LFB236:
 181:Drivers/STM32F4xx_HAL_Driver/Src/stm32f4xx_hal_rtc_ex.c **** 
 182:Drivers/STM32F4xx_HAL_Driver/Src/stm32f4xx_hal_rtc_ex.c **** /**
 183:Drivers/STM32F4xx_HAL_Driver/Src/stm32f4xx_hal_rtc_ex.c ****   * @brief  Sets TimeStamp with Interrupt.
 184:Drivers/STM32F4xx_HAL_Driver/Src/stm32f4xx_hal_rtc_ex.c ****   * @param  hrtc pointer to a RTC_HandleTypeDef structure that contains
 185:Drivers/STM32F4xx_HAL_Driver/Src/stm32f4xx_hal_rtc_ex.c ****   *                the configuration information for RTC.
 186:Drivers/STM32F4xx_HAL_Driver/Src/stm32f4xx_hal_rtc_ex.c ****   * @note   This API must be called before enabling the TimeStamp feature.
 187:Drivers/STM32F4xx_HAL_Driver/Src/stm32f4xx_hal_rtc_ex.c ****   * @param  TimeStampEdge Specifies the pin edge on which the TimeStamp is
 188:Drivers/STM32F4xx_HAL_Driver/Src/stm32f4xx_hal_rtc_ex.c ****   *         activated.
 189:Drivers/STM32F4xx_HAL_Driver/Src/stm32f4xx_hal_rtc_ex.c ****   *          This parameter can be one of the following values:
 190:Drivers/STM32F4xx_HAL_Driver/Src/stm32f4xx_hal_rtc_ex.c ****   *             @arg RTC_TIMESTAMPEDGE_RISING: the Time stamp event occurs on the
 191:Drivers/STM32F4xx_HAL_Driver/Src/stm32f4xx_hal_rtc_ex.c ****   *                                        rising edge of the related pin.
ARM GAS  /tmp/cchQ4tcR.s 			page 7


 192:Drivers/STM32F4xx_HAL_Driver/Src/stm32f4xx_hal_rtc_ex.c ****   *             @arg RTC_TIMESTAMPEDGE_FALLING: the Time stamp event occurs on the
 193:Drivers/STM32F4xx_HAL_Driver/Src/stm32f4xx_hal_rtc_ex.c ****   *                                         falling edge of the related pin.
 194:Drivers/STM32F4xx_HAL_Driver/Src/stm32f4xx_hal_rtc_ex.c ****   * @param  RTC_TimeStampPin Specifies the RTC TimeStamp Pin.
 195:Drivers/STM32F4xx_HAL_Driver/Src/stm32f4xx_hal_rtc_ex.c ****   *          This parameter can be one of the following values:
 196:Drivers/STM32F4xx_HAL_Driver/Src/stm32f4xx_hal_rtc_ex.c ****   *             @arg RTC_TIMESTAMPPIN_DEFAULT: PC13 is selected as RTC TimeStamp Pin.
 197:Drivers/STM32F4xx_HAL_Driver/Src/stm32f4xx_hal_rtc_ex.c ****   *             @arg RTC_TIMESTAMPPIN_PI8: PI8 is selected as RTC TimeStamp Pin. (not applicable in
 198:Drivers/STM32F4xx_HAL_Driver/Src/stm32f4xx_hal_rtc_ex.c ****   *             @arg RTC_TIMESTAMPPIN_PA0: PA0 is selected as RTC TimeStamp Pin only for STM32F446x
 199:Drivers/STM32F4xx_HAL_Driver/Src/stm32f4xx_hal_rtc_ex.c ****   * @retval HAL status
 200:Drivers/STM32F4xx_HAL_Driver/Src/stm32f4xx_hal_rtc_ex.c ****   */
 201:Drivers/STM32F4xx_HAL_Driver/Src/stm32f4xx_hal_rtc_ex.c **** HAL_StatusTypeDef HAL_RTCEx_SetTimeStamp_IT(RTC_HandleTypeDef *hrtc, uint32_t TimeStampEdge, uint32
 202:Drivers/STM32F4xx_HAL_Driver/Src/stm32f4xx_hal_rtc_ex.c **** {
 142              		.loc 1 202 1 is_stmt 1 view -0
 143              		.cfi_startproc
 144              		@ args = 0, pretend = 0, frame = 0
 145              		@ frame_needed = 0, uses_anonymous_args = 0
 146              		@ link register save eliminated.
 203:Drivers/STM32F4xx_HAL_Driver/Src/stm32f4xx_hal_rtc_ex.c ****   uint32_t tmpreg = 0U;
 147              		.loc 1 203 3 view .LVU50
 204:Drivers/STM32F4xx_HAL_Driver/Src/stm32f4xx_hal_rtc_ex.c **** 
 205:Drivers/STM32F4xx_HAL_Driver/Src/stm32f4xx_hal_rtc_ex.c ****   /* Check the parameters */
 206:Drivers/STM32F4xx_HAL_Driver/Src/stm32f4xx_hal_rtc_ex.c ****   assert_param(IS_TIMESTAMP_EDGE(TimeStampEdge));
 148              		.loc 1 206 3 view .LVU51
 207:Drivers/STM32F4xx_HAL_Driver/Src/stm32f4xx_hal_rtc_ex.c ****   assert_param(IS_RTC_TIMESTAMP_PIN(RTC_TimeStampPin));
 149              		.loc 1 207 3 view .LVU52
 208:Drivers/STM32F4xx_HAL_Driver/Src/stm32f4xx_hal_rtc_ex.c **** 
 209:Drivers/STM32F4xx_HAL_Driver/Src/stm32f4xx_hal_rtc_ex.c ****   /* Process Locked */
 210:Drivers/STM32F4xx_HAL_Driver/Src/stm32f4xx_hal_rtc_ex.c ****   __HAL_LOCK(hrtc);
 150              		.loc 1 210 3 view .LVU53
 151              		.loc 1 210 3 view .LVU54
 152 0000 037F     		ldrb	r3, [r0, #28]	@ zero_extendqisi2
 153 0002 012B     		cmp	r3, #1
 154 0004 39D0     		beq	.L7
 155              		.loc 1 210 3 discriminator 2 view .LVU55
 156              		.loc 1 210 3 discriminator 2 view .LVU56
 211:Drivers/STM32F4xx_HAL_Driver/Src/stm32f4xx_hal_rtc_ex.c **** 
 212:Drivers/STM32F4xx_HAL_Driver/Src/stm32f4xx_hal_rtc_ex.c ****   hrtc->State = HAL_RTC_STATE_BUSY;
 157              		.loc 1 212 3 discriminator 2 view .LVU57
 158 0006 8446     		mov	ip, r0
 213:Drivers/STM32F4xx_HAL_Driver/Src/stm32f4xx_hal_rtc_ex.c **** 
 214:Drivers/STM32F4xx_HAL_Driver/Src/stm32f4xx_hal_rtc_ex.c ****   /* Get the RTC_CR register and clear the bits to be configured */
 215:Drivers/STM32F4xx_HAL_Driver/Src/stm32f4xx_hal_rtc_ex.c ****   tmpreg = (uint32_t)(hrtc->Instance->CR & (uint32_t)~(RTC_CR_TSEDGE | RTC_CR_TSE));
 159              		.loc 1 215 27 is_stmt 0 discriminator 2 view .LVU58
 160 0008 0368     		ldr	r3, [r0]
 212:Drivers/STM32F4xx_HAL_Driver/Src/stm32f4xx_hal_rtc_ex.c **** 
 161              		.loc 1 212 15 discriminator 2 view .LVU59
 162 000a 0220     		movs	r0, #2
 163              	.LVL10:
 202:Drivers/STM32F4xx_HAL_Driver/Src/stm32f4xx_hal_rtc_ex.c ****   uint32_t tmpreg = 0U;
 164              		.loc 1 202 1 discriminator 2 view .LVU60
 165 000c 10B4     		push	{r4}
 166              		.cfi_def_cfa_offset 4
 167              		.cfi_offset 4, -4
 212:Drivers/STM32F4xx_HAL_Driver/Src/stm32f4xx_hal_rtc_ex.c **** 
 168              		.loc 1 212 15 discriminator 2 view .LVU61
 169 000e 8CF81D00 		strb	r0, [ip, #29]
 170              		.loc 1 215 3 is_stmt 1 discriminator 2 view .LVU62
 171              		.loc 1 215 37 is_stmt 0 discriminator 2 view .LVU63
ARM GAS  /tmp/cchQ4tcR.s 			page 8


 172 0012 9868     		ldr	r0, [r3, #8]
 173              		.loc 1 215 10 discriminator 2 view .LVU64
 174 0014 20F40060 		bic	r0, r0, #2048
 175 0018 20F00800 		bic	r0, r0, #8
 176              	.LVL11:
 216:Drivers/STM32F4xx_HAL_Driver/Src/stm32f4xx_hal_rtc_ex.c **** 
 217:Drivers/STM32F4xx_HAL_Driver/Src/stm32f4xx_hal_rtc_ex.c ****   tmpreg |= TimeStampEdge;
 177              		.loc 1 217 3 is_stmt 1 discriminator 2 view .LVU65
 178              		.loc 1 217 10 is_stmt 0 discriminator 2 view .LVU66
 179 001c 0843     		orrs	r0, r0, r1
 180              	.LVL12:
 218:Drivers/STM32F4xx_HAL_Driver/Src/stm32f4xx_hal_rtc_ex.c **** 
 219:Drivers/STM32F4xx_HAL_Driver/Src/stm32f4xx_hal_rtc_ex.c ****   /* Disable the write protection for RTC registers */
 220:Drivers/STM32F4xx_HAL_Driver/Src/stm32f4xx_hal_rtc_ex.c ****   __HAL_RTC_WRITEPROTECTION_DISABLE(hrtc);
 181              		.loc 1 220 3 is_stmt 1 discriminator 2 view .LVU67
 182              		.loc 1 220 3 discriminator 2 view .LVU68
 183 001e CA21     		movs	r1, #202
 184              	.LVL13:
 185              		.loc 1 220 3 is_stmt 0 discriminator 2 view .LVU69
 186 0020 5962     		str	r1, [r3, #36]
 187              		.loc 1 220 3 is_stmt 1 discriminator 2 view .LVU70
 188 0022 5321     		movs	r1, #83
 189 0024 5962     		str	r1, [r3, #36]
 190              		.loc 1 220 3 discriminator 2 view .LVU71
 221:Drivers/STM32F4xx_HAL_Driver/Src/stm32f4xx_hal_rtc_ex.c **** 
 222:Drivers/STM32F4xx_HAL_Driver/Src/stm32f4xx_hal_rtc_ex.c ****   /* Configure the Time Stamp TSEDGE and Enable bits */
 223:Drivers/STM32F4xx_HAL_Driver/Src/stm32f4xx_hal_rtc_ex.c ****   hrtc->Instance->CR = (uint32_t)tmpreg;
 191              		.loc 1 223 3 discriminator 2 view .LVU72
 192              		.loc 1 223 22 is_stmt 0 discriminator 2 view .LVU73
 193 0026 9860     		str	r0, [r3, #8]
 224:Drivers/STM32F4xx_HAL_Driver/Src/stm32f4xx_hal_rtc_ex.c **** 
 225:Drivers/STM32F4xx_HAL_Driver/Src/stm32f4xx_hal_rtc_ex.c ****   hrtc->Instance->TAFCR &= (uint32_t)~RTC_TAFCR_TSINSEL;
 194              		.loc 1 225 3 is_stmt 1 discriminator 2 view .LVU74
 195              		.loc 1 225 25 is_stmt 0 discriminator 2 view .LVU75
 196 0028 186C     		ldr	r0, [r3, #64]
 197              	.LVL14:
 226:Drivers/STM32F4xx_HAL_Driver/Src/stm32f4xx_hal_rtc_ex.c ****   hrtc->Instance->TAFCR |= (uint32_t)(RTC_TimeStampPin);
 227:Drivers/STM32F4xx_HAL_Driver/Src/stm32f4xx_hal_rtc_ex.c **** 
 228:Drivers/STM32F4xx_HAL_Driver/Src/stm32f4xx_hal_rtc_ex.c ****   /* Clear RTC Timestamp flag */
 229:Drivers/STM32F4xx_HAL_Driver/Src/stm32f4xx_hal_rtc_ex.c ****   __HAL_RTC_TIMESTAMP_CLEAR_FLAG(hrtc, RTC_FLAG_TSF);
 230:Drivers/STM32F4xx_HAL_Driver/Src/stm32f4xx_hal_rtc_ex.c **** 
 231:Drivers/STM32F4xx_HAL_Driver/Src/stm32f4xx_hal_rtc_ex.c ****   __HAL_RTC_TIMESTAMP_ENABLE(hrtc);
 232:Drivers/STM32F4xx_HAL_Driver/Src/stm32f4xx_hal_rtc_ex.c **** 
 233:Drivers/STM32F4xx_HAL_Driver/Src/stm32f4xx_hal_rtc_ex.c ****   /* Enable IT timestamp */
 234:Drivers/STM32F4xx_HAL_Driver/Src/stm32f4xx_hal_rtc_ex.c ****   __HAL_RTC_TIMESTAMP_ENABLE_IT(hrtc,RTC_IT_TS);
 235:Drivers/STM32F4xx_HAL_Driver/Src/stm32f4xx_hal_rtc_ex.c **** 
 236:Drivers/STM32F4xx_HAL_Driver/Src/stm32f4xx_hal_rtc_ex.c ****   /* RTC timestamp Interrupt Configuration: EXTI configuration */
 237:Drivers/STM32F4xx_HAL_Driver/Src/stm32f4xx_hal_rtc_ex.c ****   __HAL_RTC_TAMPER_TIMESTAMP_EXTI_ENABLE_IT();
 198              		.loc 1 237 3 discriminator 2 view .LVU76
 199 002a 1549     		ldr	r1, .L12
 225:Drivers/STM32F4xx_HAL_Driver/Src/stm32f4xx_hal_rtc_ex.c ****   hrtc->Instance->TAFCR |= (uint32_t)(RTC_TimeStampPin);
 200              		.loc 1 225 25 discriminator 2 view .LVU77
 201 002c 20F40030 		bic	r0, r0, #131072
 202 0030 1864     		str	r0, [r3, #64]
 203              	.LVL15:
 226:Drivers/STM32F4xx_HAL_Driver/Src/stm32f4xx_hal_rtc_ex.c ****   hrtc->Instance->TAFCR |= (uint32_t)(RTC_TimeStampPin);
 204              		.loc 1 226 3 is_stmt 1 discriminator 2 view .LVU78
ARM GAS  /tmp/cchQ4tcR.s 			page 9


 226:Drivers/STM32F4xx_HAL_Driver/Src/stm32f4xx_hal_rtc_ex.c ****   hrtc->Instance->TAFCR |= (uint32_t)(RTC_TimeStampPin);
 205              		.loc 1 226 25 is_stmt 0 discriminator 2 view .LVU79
 206 0032 186C     		ldr	r0, [r3, #64]
 207 0034 0243     		orrs	r2, r2, r0
 208              	.LVL16:
 226:Drivers/STM32F4xx_HAL_Driver/Src/stm32f4xx_hal_rtc_ex.c ****   hrtc->Instance->TAFCR |= (uint32_t)(RTC_TimeStampPin);
 209              		.loc 1 226 25 discriminator 2 view .LVU80
 210 0036 1A64     		str	r2, [r3, #64]
 229:Drivers/STM32F4xx_HAL_Driver/Src/stm32f4xx_hal_rtc_ex.c **** 
 211              		.loc 1 229 3 is_stmt 1 discriminator 2 view .LVU81
 212 0038 DA68     		ldr	r2, [r3, #12]
 213 003a D2B2     		uxtb	r2, r2
 214 003c 62F40862 		orn	r2, r2, #2176
 215 0040 DA60     		str	r2, [r3, #12]
 231:Drivers/STM32F4xx_HAL_Driver/Src/stm32f4xx_hal_rtc_ex.c **** 
 216              		.loc 1 231 3 discriminator 2 view .LVU82
 217 0042 9A68     		ldr	r2, [r3, #8]
 218 0044 42F40062 		orr	r2, r2, #2048
 219 0048 9A60     		str	r2, [r3, #8]
 234:Drivers/STM32F4xx_HAL_Driver/Src/stm32f4xx_hal_rtc_ex.c **** 
 220              		.loc 1 234 3 discriminator 2 view .LVU83
 221 004a 9A68     		ldr	r2, [r3, #8]
 222 004c 42F40042 		orr	r2, r2, #32768
 223 0050 9A60     		str	r2, [r3, #8]
 224              		.loc 1 237 3 discriminator 2 view .LVU84
 225 0052 0A68     		ldr	r2, [r1]
 226 0054 42F40012 		orr	r2, r2, #2097152
 227 0058 0A60     		str	r2, [r1]
 238:Drivers/STM32F4xx_HAL_Driver/Src/stm32f4xx_hal_rtc_ex.c **** 
 239:Drivers/STM32F4xx_HAL_Driver/Src/stm32f4xx_hal_rtc_ex.c ****   EXTI->RTSR |= RTC_EXTI_LINE_TAMPER_TIMESTAMP_EVENT;
 228              		.loc 1 239 3 discriminator 2 view .LVU85
 229              		.loc 1 239 14 is_stmt 0 discriminator 2 view .LVU86
 230 005a 8A68     		ldr	r2, [r1, #8]
 231 005c 42F40012 		orr	r2, r2, #2097152
 232 0060 8A60     		str	r2, [r1, #8]
 240:Drivers/STM32F4xx_HAL_Driver/Src/stm32f4xx_hal_rtc_ex.c **** 
 241:Drivers/STM32F4xx_HAL_Driver/Src/stm32f4xx_hal_rtc_ex.c ****   /* Enable the write protection for RTC registers */
 242:Drivers/STM32F4xx_HAL_Driver/Src/stm32f4xx_hal_rtc_ex.c ****   __HAL_RTC_WRITEPROTECTION_ENABLE(hrtc);
 233              		.loc 1 242 3 is_stmt 1 discriminator 2 view .LVU87
 234              		.loc 1 242 3 discriminator 2 view .LVU88
 243:Drivers/STM32F4xx_HAL_Driver/Src/stm32f4xx_hal_rtc_ex.c **** 
 244:Drivers/STM32F4xx_HAL_Driver/Src/stm32f4xx_hal_rtc_ex.c ****   hrtc->State = HAL_RTC_STATE_READY;
 245:Drivers/STM32F4xx_HAL_Driver/Src/stm32f4xx_hal_rtc_ex.c **** 
 246:Drivers/STM32F4xx_HAL_Driver/Src/stm32f4xx_hal_rtc_ex.c ****   /* Process Unlocked */
 247:Drivers/STM32F4xx_HAL_Driver/Src/stm32f4xx_hal_rtc_ex.c ****   __HAL_UNLOCK(hrtc);
 235              		.loc 1 247 3 is_stmt 0 discriminator 2 view .LVU89
 236 0062 0024     		movs	r4, #0
 242:Drivers/STM32F4xx_HAL_Driver/Src/stm32f4xx_hal_rtc_ex.c **** 
 237              		.loc 1 242 3 discriminator 2 view .LVU90
 238 0064 FF21     		movs	r1, #255
 244:Drivers/STM32F4xx_HAL_Driver/Src/stm32f4xx_hal_rtc_ex.c **** 
 239              		.loc 1 244 15 discriminator 2 view .LVU91
 240 0066 0122     		movs	r2, #1
 242:Drivers/STM32F4xx_HAL_Driver/Src/stm32f4xx_hal_rtc_ex.c **** 
 241              		.loc 1 242 3 discriminator 2 view .LVU92
 242 0068 5962     		str	r1, [r3, #36]
 242:Drivers/STM32F4xx_HAL_Driver/Src/stm32f4xx_hal_rtc_ex.c **** 
ARM GAS  /tmp/cchQ4tcR.s 			page 10


 243              		.loc 1 242 3 is_stmt 1 discriminator 2 view .LVU93
 244:Drivers/STM32F4xx_HAL_Driver/Src/stm32f4xx_hal_rtc_ex.c **** 
 244              		.loc 1 244 3 discriminator 2 view .LVU94
 244:Drivers/STM32F4xx_HAL_Driver/Src/stm32f4xx_hal_rtc_ex.c **** 
 245              		.loc 1 244 15 is_stmt 0 discriminator 2 view .LVU95
 246 006a 8CF81D20 		strb	r2, [ip, #29]
 247              		.loc 1 247 3 is_stmt 1 discriminator 2 view .LVU96
 248              		.loc 1 247 3 discriminator 2 view .LVU97
 249 006e 8CF81C40 		strb	r4, [ip, #28]
 250              		.loc 1 247 3 discriminator 2 view .LVU98
 248:Drivers/STM32F4xx_HAL_Driver/Src/stm32f4xx_hal_rtc_ex.c **** 
 249:Drivers/STM32F4xx_HAL_Driver/Src/stm32f4xx_hal_rtc_ex.c ****   return HAL_OK;
 251              		.loc 1 249 3 discriminator 2 view .LVU99
 252              		.loc 1 249 10 is_stmt 0 discriminator 2 view .LVU100
 253 0072 2046     		mov	r0, r4
 250:Drivers/STM32F4xx_HAL_Driver/Src/stm32f4xx_hal_rtc_ex.c **** }
 254              		.loc 1 250 1 discriminator 2 view .LVU101
 255 0074 5DF8044B 		ldr	r4, [sp], #4
 256              		.cfi_restore 4
 257              		.cfi_def_cfa_offset 0
 258 0078 7047     		bx	lr
 259              	.LVL17:
 260              	.L7:
 210:Drivers/STM32F4xx_HAL_Driver/Src/stm32f4xx_hal_rtc_ex.c **** 
 261              		.loc 1 210 3 view .LVU102
 262 007a 0220     		movs	r0, #2
 263              	.LVL18:
 264              		.loc 1 250 1 view .LVU103
 265 007c 7047     		bx	lr
 266              	.L13:
 267 007e 00BF     		.align	2
 268              	.L12:
 269 0080 003C0140 		.word	1073822720
 270              		.cfi_endproc
 271              	.LFE236:
 273              		.section	.text.HAL_RTCEx_DeactivateTimeStamp,"ax",%progbits
 274              		.align	1
 275              		.p2align 2,,3
 276              		.global	HAL_RTCEx_DeactivateTimeStamp
 277              		.syntax unified
 278              		.thumb
 279              		.thumb_func
 281              	HAL_RTCEx_DeactivateTimeStamp:
 282              	.LVL19:
 283              	.LFB237:
 251:Drivers/STM32F4xx_HAL_Driver/Src/stm32f4xx_hal_rtc_ex.c **** 
 252:Drivers/STM32F4xx_HAL_Driver/Src/stm32f4xx_hal_rtc_ex.c **** /**
 253:Drivers/STM32F4xx_HAL_Driver/Src/stm32f4xx_hal_rtc_ex.c ****   * @brief  Deactivates TimeStamp.
 254:Drivers/STM32F4xx_HAL_Driver/Src/stm32f4xx_hal_rtc_ex.c ****   * @param  hrtc pointer to a RTC_HandleTypeDef structure that contains
 255:Drivers/STM32F4xx_HAL_Driver/Src/stm32f4xx_hal_rtc_ex.c ****   *                the configuration information for RTC.
 256:Drivers/STM32F4xx_HAL_Driver/Src/stm32f4xx_hal_rtc_ex.c ****   * @retval HAL status
 257:Drivers/STM32F4xx_HAL_Driver/Src/stm32f4xx_hal_rtc_ex.c ****   */
 258:Drivers/STM32F4xx_HAL_Driver/Src/stm32f4xx_hal_rtc_ex.c **** HAL_StatusTypeDef HAL_RTCEx_DeactivateTimeStamp(RTC_HandleTypeDef *hrtc)
 259:Drivers/STM32F4xx_HAL_Driver/Src/stm32f4xx_hal_rtc_ex.c **** {
 284              		.loc 1 259 1 is_stmt 1 view -0
 285              		.cfi_startproc
 286              		@ args = 0, pretend = 0, frame = 0
ARM GAS  /tmp/cchQ4tcR.s 			page 11


 287              		@ frame_needed = 0, uses_anonymous_args = 0
 288              		@ link register save eliminated.
 260:Drivers/STM32F4xx_HAL_Driver/Src/stm32f4xx_hal_rtc_ex.c ****   uint32_t tmpreg = 0U;
 289              		.loc 1 260 3 view .LVU105
 261:Drivers/STM32F4xx_HAL_Driver/Src/stm32f4xx_hal_rtc_ex.c **** 
 262:Drivers/STM32F4xx_HAL_Driver/Src/stm32f4xx_hal_rtc_ex.c ****   /* Process Locked */
 263:Drivers/STM32F4xx_HAL_Driver/Src/stm32f4xx_hal_rtc_ex.c ****   __HAL_LOCK(hrtc);
 290              		.loc 1 263 3 view .LVU106
 291              		.loc 1 263 3 view .LVU107
 292 0000 037F     		ldrb	r3, [r0, #28]	@ zero_extendqisi2
 293 0002 012B     		cmp	r3, #1
 294 0004 1BD0     		beq	.L16
 295              		.loc 1 263 3 discriminator 2 view .LVU108
 296              		.loc 1 263 3 discriminator 2 view .LVU109
 264:Drivers/STM32F4xx_HAL_Driver/Src/stm32f4xx_hal_rtc_ex.c **** 
 265:Drivers/STM32F4xx_HAL_Driver/Src/stm32f4xx_hal_rtc_ex.c ****   hrtc->State = HAL_RTC_STATE_BUSY;
 297              		.loc 1 265 3 discriminator 2 view .LVU110
 266:Drivers/STM32F4xx_HAL_Driver/Src/stm32f4xx_hal_rtc_ex.c **** 
 267:Drivers/STM32F4xx_HAL_Driver/Src/stm32f4xx_hal_rtc_ex.c ****   /* Disable the write protection for RTC registers */
 268:Drivers/STM32F4xx_HAL_Driver/Src/stm32f4xx_hal_rtc_ex.c ****   __HAL_RTC_WRITEPROTECTION_DISABLE(hrtc);
 298              		.loc 1 268 3 is_stmt 0 discriminator 2 view .LVU111
 299 0006 0368     		ldr	r3, [r0]
 259:Drivers/STM32F4xx_HAL_Driver/Src/stm32f4xx_hal_rtc_ex.c ****   uint32_t tmpreg = 0U;
 300              		.loc 1 259 1 discriminator 2 view .LVU112
 301 0008 10B4     		push	{r4}
 302              		.cfi_def_cfa_offset 4
 303              		.cfi_offset 4, -4
 304              		.loc 1 268 3 discriminator 2 view .LVU113
 305 000a CA21     		movs	r1, #202
 265:Drivers/STM32F4xx_HAL_Driver/Src/stm32f4xx_hal_rtc_ex.c **** 
 306              		.loc 1 265 15 discriminator 2 view .LVU114
 307 000c 0224     		movs	r4, #2
 308              		.loc 1 268 3 discriminator 2 view .LVU115
 309 000e 5322     		movs	r2, #83
 265:Drivers/STM32F4xx_HAL_Driver/Src/stm32f4xx_hal_rtc_ex.c **** 
 310              		.loc 1 265 15 discriminator 2 view .LVU116
 311 0010 4477     		strb	r4, [r0, #29]
 312              		.loc 1 268 3 is_stmt 1 discriminator 2 view .LVU117
 313              		.loc 1 268 3 discriminator 2 view .LVU118
 314 0012 5962     		str	r1, [r3, #36]
 315              		.loc 1 268 3 discriminator 2 view .LVU119
 316 0014 5A62     		str	r2, [r3, #36]
 317              		.loc 1 268 3 discriminator 2 view .LVU120
 269:Drivers/STM32F4xx_HAL_Driver/Src/stm32f4xx_hal_rtc_ex.c **** 
 270:Drivers/STM32F4xx_HAL_Driver/Src/stm32f4xx_hal_rtc_ex.c ****   /* In case of interrupt mode is used, the interrupt source must disabled */
 271:Drivers/STM32F4xx_HAL_Driver/Src/stm32f4xx_hal_rtc_ex.c ****   __HAL_RTC_TIMESTAMP_DISABLE_IT(hrtc, RTC_IT_TS);
 318              		.loc 1 271 3 discriminator 2 view .LVU121
 319 0016 9A68     		ldr	r2, [r3, #8]
 320 0018 22F40042 		bic	r2, r2, #32768
 321 001c 9A60     		str	r2, [r3, #8]
 272:Drivers/STM32F4xx_HAL_Driver/Src/stm32f4xx_hal_rtc_ex.c **** 
 273:Drivers/STM32F4xx_HAL_Driver/Src/stm32f4xx_hal_rtc_ex.c ****   /* Get the RTC_CR register and clear the bits to be configured */
 274:Drivers/STM32F4xx_HAL_Driver/Src/stm32f4xx_hal_rtc_ex.c ****   tmpreg = (uint32_t)(hrtc->Instance->CR & (uint32_t)~(RTC_CR_TSEDGE | RTC_CR_TSE));
 322              		.loc 1 274 3 discriminator 2 view .LVU122
 323              		.loc 1 274 37 is_stmt 0 discriminator 2 view .LVU123
 324 001e 9A68     		ldr	r2, [r3, #8]
 325              		.loc 1 274 10 discriminator 2 view .LVU124
ARM GAS  /tmp/cchQ4tcR.s 			page 12


 326 0020 22F40062 		bic	r2, r2, #2048
 275:Drivers/STM32F4xx_HAL_Driver/Src/stm32f4xx_hal_rtc_ex.c **** 
 276:Drivers/STM32F4xx_HAL_Driver/Src/stm32f4xx_hal_rtc_ex.c ****   /* Configure the Time Stamp TSEDGE and Enable bits */
 277:Drivers/STM32F4xx_HAL_Driver/Src/stm32f4xx_hal_rtc_ex.c ****   hrtc->Instance->CR = (uint32_t)tmpreg;
 278:Drivers/STM32F4xx_HAL_Driver/Src/stm32f4xx_hal_rtc_ex.c **** 
 279:Drivers/STM32F4xx_HAL_Driver/Src/stm32f4xx_hal_rtc_ex.c ****   /* Enable the write protection for RTC registers */
 280:Drivers/STM32F4xx_HAL_Driver/Src/stm32f4xx_hal_rtc_ex.c ****   __HAL_RTC_WRITEPROTECTION_ENABLE(hrtc);
 327              		.loc 1 280 3 discriminator 2 view .LVU125
 328 0024 FF24     		movs	r4, #255
 274:Drivers/STM32F4xx_HAL_Driver/Src/stm32f4xx_hal_rtc_ex.c **** 
 329              		.loc 1 274 10 discriminator 2 view .LVU126
 330 0026 22F00802 		bic	r2, r2, #8
 331              	.LVL20:
 277:Drivers/STM32F4xx_HAL_Driver/Src/stm32f4xx_hal_rtc_ex.c **** 
 332              		.loc 1 277 3 is_stmt 1 discriminator 2 view .LVU127
 277:Drivers/STM32F4xx_HAL_Driver/Src/stm32f4xx_hal_rtc_ex.c **** 
 333              		.loc 1 277 22 is_stmt 0 discriminator 2 view .LVU128
 334 002a 9A60     		str	r2, [r3, #8]
 335              		.loc 1 280 3 is_stmt 1 discriminator 2 view .LVU129
 336              		.loc 1 280 3 discriminator 2 view .LVU130
 281:Drivers/STM32F4xx_HAL_Driver/Src/stm32f4xx_hal_rtc_ex.c **** 
 282:Drivers/STM32F4xx_HAL_Driver/Src/stm32f4xx_hal_rtc_ex.c ****   hrtc->State = HAL_RTC_STATE_READY;
 283:Drivers/STM32F4xx_HAL_Driver/Src/stm32f4xx_hal_rtc_ex.c **** 
 284:Drivers/STM32F4xx_HAL_Driver/Src/stm32f4xx_hal_rtc_ex.c ****   /* Process Unlocked */
 285:Drivers/STM32F4xx_HAL_Driver/Src/stm32f4xx_hal_rtc_ex.c ****   __HAL_UNLOCK(hrtc);
 337              		.loc 1 285 3 is_stmt 0 discriminator 2 view .LVU131
 338 002c 0021     		movs	r1, #0
 280:Drivers/STM32F4xx_HAL_Driver/Src/stm32f4xx_hal_rtc_ex.c **** 
 339              		.loc 1 280 3 discriminator 2 view .LVU132
 340 002e 5C62     		str	r4, [r3, #36]
 280:Drivers/STM32F4xx_HAL_Driver/Src/stm32f4xx_hal_rtc_ex.c **** 
 341              		.loc 1 280 3 is_stmt 1 discriminator 2 view .LVU133
 282:Drivers/STM32F4xx_HAL_Driver/Src/stm32f4xx_hal_rtc_ex.c **** 
 342              		.loc 1 282 3 discriminator 2 view .LVU134
 282:Drivers/STM32F4xx_HAL_Driver/Src/stm32f4xx_hal_rtc_ex.c **** 
 343              		.loc 1 282 15 is_stmt 0 discriminator 2 view .LVU135
 344 0030 0123     		movs	r3, #1
 345 0032 4377     		strb	r3, [r0, #29]
 346              		.loc 1 285 3 is_stmt 1 discriminator 2 view .LVU136
 347              		.loc 1 285 3 discriminator 2 view .LVU137
 348 0034 0177     		strb	r1, [r0, #28]
 349              		.loc 1 285 3 discriminator 2 view .LVU138
 286:Drivers/STM32F4xx_HAL_Driver/Src/stm32f4xx_hal_rtc_ex.c **** 
 287:Drivers/STM32F4xx_HAL_Driver/Src/stm32f4xx_hal_rtc_ex.c ****   return HAL_OK;
 350              		.loc 1 287 3 discriminator 2 view .LVU139
 288:Drivers/STM32F4xx_HAL_Driver/Src/stm32f4xx_hal_rtc_ex.c **** }
 351              		.loc 1 288 1 is_stmt 0 discriminator 2 view .LVU140
 352 0036 5DF8044B 		ldr	r4, [sp], #4
 353              		.cfi_restore 4
 354              		.cfi_def_cfa_offset 0
 287:Drivers/STM32F4xx_HAL_Driver/Src/stm32f4xx_hal_rtc_ex.c **** }
 355              		.loc 1 287 10 discriminator 2 view .LVU141
 356 003a 0846     		mov	r0, r1
 357              	.LVL21:
 358              		.loc 1 288 1 discriminator 2 view .LVU142
 359 003c 7047     		bx	lr
 360              	.LVL22:
ARM GAS  /tmp/cchQ4tcR.s 			page 13


 361              	.L16:
 263:Drivers/STM32F4xx_HAL_Driver/Src/stm32f4xx_hal_rtc_ex.c **** 
 362              		.loc 1 263 3 view .LVU143
 363 003e 0220     		movs	r0, #2
 364              	.LVL23:
 365              		.loc 1 288 1 view .LVU144
 366 0040 7047     		bx	lr
 367              		.cfi_endproc
 368              	.LFE237:
 370 0042 00BF     		.section	.text.HAL_RTCEx_GetTimeStamp,"ax",%progbits
 371              		.align	1
 372              		.p2align 2,,3
 373              		.global	HAL_RTCEx_GetTimeStamp
 374              		.syntax unified
 375              		.thumb
 376              		.thumb_func
 378              	HAL_RTCEx_GetTimeStamp:
 379              	.LVL24:
 380              	.LFB238:
 289:Drivers/STM32F4xx_HAL_Driver/Src/stm32f4xx_hal_rtc_ex.c **** 
 290:Drivers/STM32F4xx_HAL_Driver/Src/stm32f4xx_hal_rtc_ex.c **** /**
 291:Drivers/STM32F4xx_HAL_Driver/Src/stm32f4xx_hal_rtc_ex.c ****   * @brief  Gets the RTC TimeStamp value.
 292:Drivers/STM32F4xx_HAL_Driver/Src/stm32f4xx_hal_rtc_ex.c ****   * @param  hrtc pointer to a RTC_HandleTypeDef structure that contains
 293:Drivers/STM32F4xx_HAL_Driver/Src/stm32f4xx_hal_rtc_ex.c ****   *                the configuration information for RTC.
 294:Drivers/STM32F4xx_HAL_Driver/Src/stm32f4xx_hal_rtc_ex.c ****   * @param  sTimeStamp Pointer to Time structure
 295:Drivers/STM32F4xx_HAL_Driver/Src/stm32f4xx_hal_rtc_ex.c ****   * @param  sTimeStampDate Pointer to Date structure
 296:Drivers/STM32F4xx_HAL_Driver/Src/stm32f4xx_hal_rtc_ex.c ****   * @param  Format specifies the format of the entered parameters.
 297:Drivers/STM32F4xx_HAL_Driver/Src/stm32f4xx_hal_rtc_ex.c ****   *          This parameter can be one of the following values:
 298:Drivers/STM32F4xx_HAL_Driver/Src/stm32f4xx_hal_rtc_ex.c ****   *             RTC_FORMAT_BIN: Binary data format
 299:Drivers/STM32F4xx_HAL_Driver/Src/stm32f4xx_hal_rtc_ex.c ****   *             RTC_FORMAT_BCD: BCD data format
 300:Drivers/STM32F4xx_HAL_Driver/Src/stm32f4xx_hal_rtc_ex.c ****   * @retval HAL status
 301:Drivers/STM32F4xx_HAL_Driver/Src/stm32f4xx_hal_rtc_ex.c ****   */
 302:Drivers/STM32F4xx_HAL_Driver/Src/stm32f4xx_hal_rtc_ex.c **** HAL_StatusTypeDef HAL_RTCEx_GetTimeStamp(RTC_HandleTypeDef *hrtc, RTC_TimeTypeDef* sTimeStamp, RTC_
 303:Drivers/STM32F4xx_HAL_Driver/Src/stm32f4xx_hal_rtc_ex.c **** {
 381              		.loc 1 303 1 is_stmt 1 view -0
 382              		.cfi_startproc
 383              		@ args = 0, pretend = 0, frame = 0
 384              		@ frame_needed = 0, uses_anonymous_args = 0
 304:Drivers/STM32F4xx_HAL_Driver/Src/stm32f4xx_hal_rtc_ex.c ****   uint32_t tmptime = 0U, tmpdate = 0U;
 385              		.loc 1 304 3 view .LVU146
 305:Drivers/STM32F4xx_HAL_Driver/Src/stm32f4xx_hal_rtc_ex.c **** 
 306:Drivers/STM32F4xx_HAL_Driver/Src/stm32f4xx_hal_rtc_ex.c ****   /* Check the parameters */
 307:Drivers/STM32F4xx_HAL_Driver/Src/stm32f4xx_hal_rtc_ex.c ****   assert_param(IS_RTC_FORMAT(Format));
 386              		.loc 1 307 3 view .LVU147
 308:Drivers/STM32F4xx_HAL_Driver/Src/stm32f4xx_hal_rtc_ex.c **** 
 309:Drivers/STM32F4xx_HAL_Driver/Src/stm32f4xx_hal_rtc_ex.c ****   /* Get the TimeStamp time and date registers values */
 310:Drivers/STM32F4xx_HAL_Driver/Src/stm32f4xx_hal_rtc_ex.c ****   tmptime = (uint32_t)(hrtc->Instance->TSTR & RTC_TR_RESERVED_MASK);
 387              		.loc 1 310 3 view .LVU148
 303:Drivers/STM32F4xx_HAL_Driver/Src/stm32f4xx_hal_rtc_ex.c ****   uint32_t tmptime = 0U, tmpdate = 0U;
 388              		.loc 1 303 1 is_stmt 0 view .LVU149
 389 0000 F8B5     		push	{r3, r4, r5, r6, r7, lr}
 390              		.cfi_def_cfa_offset 24
 391              		.cfi_offset 3, -24
 392              		.cfi_offset 4, -20
 393              		.cfi_offset 5, -16
 394              		.cfi_offset 6, -12
 395              		.cfi_offset 7, -8
ARM GAS  /tmp/cchQ4tcR.s 			page 14


 396              		.cfi_offset 14, -4
 397              		.loc 1 310 28 view .LVU150
 398 0002 0668     		ldr	r6, [r0]
 303:Drivers/STM32F4xx_HAL_Driver/Src/stm32f4xx_hal_rtc_ex.c ****   uint32_t tmptime = 0U, tmpdate = 0U;
 399              		.loc 1 303 1 view .LVU151
 400 0004 0746     		mov	r7, r0
 401              		.loc 1 310 38 view .LVU152
 402 0006 306B     		ldr	r0, [r6, #48]
 403              	.LVL25:
 303:Drivers/STM32F4xx_HAL_Driver/Src/stm32f4xx_hal_rtc_ex.c ****   uint32_t tmptime = 0U, tmpdate = 0U;
 404              		.loc 1 303 1 view .LVU153
 405 0008 0C46     		mov	r4, r1
 406 000a 1546     		mov	r5, r2
 407              		.loc 1 310 11 view .LVU154
 408 000c 00F07F32 		and	r2, r0, #2139062143
 409              	.LVL26:
 410              		.loc 1 310 11 view .LVU155
 411 0010 22F0FE42 		bic	r2, r2, #2130706432
 412              	.LVL27:
 311:Drivers/STM32F4xx_HAL_Driver/Src/stm32f4xx_hal_rtc_ex.c ****   tmpdate = (uint32_t)(hrtc->Instance->TSDR & RTC_DR_RESERVED_MASK);
 413              		.loc 1 311 3 is_stmt 1 view .LVU156
 414              		.loc 1 311 38 is_stmt 0 view .LVU157
 415 0014 716B     		ldr	r1, [r6, #52]
 416              	.LVL28:
 312:Drivers/STM32F4xx_HAL_Driver/Src/stm32f4xx_hal_rtc_ex.c **** 
 313:Drivers/STM32F4xx_HAL_Driver/Src/stm32f4xx_hal_rtc_ex.c ****   /* Fill the Time structure fields with the read parameters */
 314:Drivers/STM32F4xx_HAL_Driver/Src/stm32f4xx_hal_rtc_ex.c ****   sTimeStamp->Hours = (uint8_t)((tmptime & (RTC_TR_HT | RTC_TR_HU)) >> 16U);
 315:Drivers/STM32F4xx_HAL_Driver/Src/stm32f4xx_hal_rtc_ex.c ****   sTimeStamp->Minutes = (uint8_t)((tmptime & (RTC_TR_MNT | RTC_TR_MNU)) >> 8U);
 316:Drivers/STM32F4xx_HAL_Driver/Src/stm32f4xx_hal_rtc_ex.c ****   sTimeStamp->Seconds = (uint8_t)(tmptime & (RTC_TR_ST | RTC_TR_SU));
 417              		.loc 1 316 25 view .LVU158
 418 0016 A270     		strb	r2, [r4, #2]
 315:Drivers/STM32F4xx_HAL_Driver/Src/stm32f4xx_hal_rtc_ex.c ****   sTimeStamp->Seconds = (uint8_t)(tmptime & (RTC_TR_ST | RTC_TR_SU));
 419              		.loc 1 315 73 view .LVU159
 420 0018 120A     		lsrs	r2, r2, #8
 421              	.LVL29:
 315:Drivers/STM32F4xx_HAL_Driver/Src/stm32f4xx_hal_rtc_ex.c ****   sTimeStamp->Seconds = (uint8_t)(tmptime & (RTC_TR_ST | RTC_TR_SU));
 422              		.loc 1 315 25 view .LVU160
 423 001a 6270     		strb	r2, [r4, #1]
 314:Drivers/STM32F4xx_HAL_Driver/Src/stm32f4xx_hal_rtc_ex.c ****   sTimeStamp->Minutes = (uint8_t)((tmptime & (RTC_TR_MNT | RTC_TR_MNU)) >> 8U);
 424              		.loc 1 314 23 view .LVU161
 425 001c C0F30642 		ubfx	r2, r0, #16, #7
 317:Drivers/STM32F4xx_HAL_Driver/Src/stm32f4xx_hal_rtc_ex.c ****   sTimeStamp->TimeFormat = (uint8_t)((tmptime & (RTC_TR_PM)) >> 16U);
 426              		.loc 1 317 28 view .LVU162
 427 0020 02F04002 		and	r2, r2, #64
 314:Drivers/STM32F4xx_HAL_Driver/Src/stm32f4xx_hal_rtc_ex.c ****   sTimeStamp->Minutes = (uint8_t)((tmptime & (RTC_TR_MNT | RTC_TR_MNU)) >> 8U);
 428              		.loc 1 314 23 view .LVU163
 429 0024 C0F30540 		ubfx	r0, r0, #16, #6
 430              	.LVL30:
 431              		.loc 1 317 26 view .LVU164
 432 0028 E270     		strb	r2, [r4, #3]
 314:Drivers/STM32F4xx_HAL_Driver/Src/stm32f4xx_hal_rtc_ex.c ****   sTimeStamp->Minutes = (uint8_t)((tmptime & (RTC_TR_MNT | RTC_TR_MNU)) >> 8U);
 433              		.loc 1 314 21 view .LVU165
 434 002a 2070     		strb	r0, [r4]
 311:Drivers/STM32F4xx_HAL_Driver/Src/stm32f4xx_hal_rtc_ex.c **** 
 435              		.loc 1 311 11 view .LVU166
 436 002c 21F07F42 		bic	r2, r1, #-16777216
 318:Drivers/STM32F4xx_HAL_Driver/Src/stm32f4xx_hal_rtc_ex.c ****   sTimeStamp->SubSeconds = (uint32_t) hrtc->Instance->TSSSR;
ARM GAS  /tmp/cchQ4tcR.s 			page 15


 437              		.loc 1 318 53 view .LVU167
 438 0030 D6F838C0 		ldr	ip, [r6, #56]
 439              		.loc 1 318 26 view .LVU168
 440 0034 C4F804C0 		str	ip, [r4, #4]
 311:Drivers/STM32F4xx_HAL_Driver/Src/stm32f4xx_hal_rtc_ex.c **** 
 441              		.loc 1 311 11 view .LVU169
 442 0038 22F0C002 		bic	r2, r2, #192
 443              	.LVL31:
 314:Drivers/STM32F4xx_HAL_Driver/Src/stm32f4xx_hal_rtc_ex.c ****   sTimeStamp->Minutes = (uint8_t)((tmptime & (RTC_TR_MNT | RTC_TR_MNU)) >> 8U);
 444              		.loc 1 314 3 is_stmt 1 view .LVU170
 315:Drivers/STM32F4xx_HAL_Driver/Src/stm32f4xx_hal_rtc_ex.c ****   sTimeStamp->Seconds = (uint8_t)(tmptime & (RTC_TR_ST | RTC_TR_SU));
 445              		.loc 1 315 3 view .LVU171
 316:Drivers/STM32F4xx_HAL_Driver/Src/stm32f4xx_hal_rtc_ex.c ****   sTimeStamp->TimeFormat = (uint8_t)((tmptime & (RTC_TR_PM)) >> 16U);
 446              		.loc 1 316 3 view .LVU172
 317:Drivers/STM32F4xx_HAL_Driver/Src/stm32f4xx_hal_rtc_ex.c ****   sTimeStamp->SubSeconds = (uint32_t) hrtc->Instance->TSSSR;
 447              		.loc 1 317 3 view .LVU173
 448              		.loc 1 318 3 view .LVU174
 319:Drivers/STM32F4xx_HAL_Driver/Src/stm32f4xx_hal_rtc_ex.c **** 
 320:Drivers/STM32F4xx_HAL_Driver/Src/stm32f4xx_hal_rtc_ex.c ****   /* Fill the Date structure fields with the read parameters */
 321:Drivers/STM32F4xx_HAL_Driver/Src/stm32f4xx_hal_rtc_ex.c ****   sTimeStampDate->Year = 0U;
 449              		.loc 1 321 3 view .LVU175
 322:Drivers/STM32F4xx_HAL_Driver/Src/stm32f4xx_hal_rtc_ex.c ****   sTimeStampDate->Month = (uint8_t)((tmpdate & (RTC_DR_MT | RTC_DR_MU)) >> 8U);
 323:Drivers/STM32F4xx_HAL_Driver/Src/stm32f4xx_hal_rtc_ex.c ****   sTimeStampDate->Date = (uint8_t)(tmpdate & (RTC_DR_DT | RTC_DR_DU));
 450              		.loc 1 323 26 is_stmt 0 view .LVU176
 451 003c AA70     		strb	r2, [r5, #2]
 324:Drivers/STM32F4xx_HAL_Driver/Src/stm32f4xx_hal_rtc_ex.c ****   sTimeStampDate->WeekDay = (uint8_t)((tmpdate & (RTC_DR_WDU)) >> 13U);
 452              		.loc 1 324 29 view .LVU177
 453 003e C2F34232 		ubfx	r2, r2, #13, #3
 454              	.LVL32:
 322:Drivers/STM32F4xx_HAL_Driver/Src/stm32f4xx_hal_rtc_ex.c ****   sTimeStampDate->Month = (uint8_t)((tmpdate & (RTC_DR_MT | RTC_DR_MU)) >> 8U);
 455              		.loc 1 322 27 view .LVU178
 456 0042 C1F30421 		ubfx	r1, r1, #8, #5
 457              	.LVL33:
 458              		.loc 1 324 27 view .LVU179
 459 0046 2A70     		strb	r2, [r5]
 321:Drivers/STM32F4xx_HAL_Driver/Src/stm32f4xx_hal_rtc_ex.c ****   sTimeStampDate->Month = (uint8_t)((tmpdate & (RTC_DR_MT | RTC_DR_MU)) >> 8U);
 460              		.loc 1 321 24 view .LVU180
 461 0048 0022     		movs	r2, #0
 322:Drivers/STM32F4xx_HAL_Driver/Src/stm32f4xx_hal_rtc_ex.c ****   sTimeStampDate->Month = (uint8_t)((tmpdate & (RTC_DR_MT | RTC_DR_MU)) >> 8U);
 462              		.loc 1 322 25 view .LVU181
 463 004a 6970     		strb	r1, [r5, #1]
 321:Drivers/STM32F4xx_HAL_Driver/Src/stm32f4xx_hal_rtc_ex.c ****   sTimeStampDate->Month = (uint8_t)((tmpdate & (RTC_DR_MT | RTC_DR_MU)) >> 8U);
 464              		.loc 1 321 24 view .LVU182
 465 004c EA70     		strb	r2, [r5, #3]
 322:Drivers/STM32F4xx_HAL_Driver/Src/stm32f4xx_hal_rtc_ex.c ****   sTimeStampDate->Month = (uint8_t)((tmpdate & (RTC_DR_MT | RTC_DR_MU)) >> 8U);
 466              		.loc 1 322 3 is_stmt 1 view .LVU183
 323:Drivers/STM32F4xx_HAL_Driver/Src/stm32f4xx_hal_rtc_ex.c ****   sTimeStampDate->WeekDay = (uint8_t)((tmpdate & (RTC_DR_WDU)) >> 13U);
 467              		.loc 1 323 3 view .LVU184
 468              		.loc 1 324 3 view .LVU185
 325:Drivers/STM32F4xx_HAL_Driver/Src/stm32f4xx_hal_rtc_ex.c **** 
 326:Drivers/STM32F4xx_HAL_Driver/Src/stm32f4xx_hal_rtc_ex.c ****   /* Check the input parameters format */
 327:Drivers/STM32F4xx_HAL_Driver/Src/stm32f4xx_hal_rtc_ex.c ****   if(Format == RTC_FORMAT_BIN)
 469              		.loc 1 327 3 view .LVU186
 470              		.loc 1 327 5 is_stmt 0 view .LVU187
 471 004e 33B1     		cbz	r3, .L24
 472              	.LVL34:
 473              	.L22:
ARM GAS  /tmp/cchQ4tcR.s 			page 16


 328:Drivers/STM32F4xx_HAL_Driver/Src/stm32f4xx_hal_rtc_ex.c ****   {
 329:Drivers/STM32F4xx_HAL_Driver/Src/stm32f4xx_hal_rtc_ex.c ****     /* Convert the TimeStamp structure parameters to Binary format */
 330:Drivers/STM32F4xx_HAL_Driver/Src/stm32f4xx_hal_rtc_ex.c ****     sTimeStamp->Hours = (uint8_t)RTC_Bcd2ToByte(sTimeStamp->Hours);
 331:Drivers/STM32F4xx_HAL_Driver/Src/stm32f4xx_hal_rtc_ex.c ****     sTimeStamp->Minutes = (uint8_t)RTC_Bcd2ToByte(sTimeStamp->Minutes);
 332:Drivers/STM32F4xx_HAL_Driver/Src/stm32f4xx_hal_rtc_ex.c ****     sTimeStamp->Seconds = (uint8_t)RTC_Bcd2ToByte(sTimeStamp->Seconds);
 333:Drivers/STM32F4xx_HAL_Driver/Src/stm32f4xx_hal_rtc_ex.c **** 
 334:Drivers/STM32F4xx_HAL_Driver/Src/stm32f4xx_hal_rtc_ex.c ****     /* Convert the DateTimeStamp structure parameters to Binary format */
 335:Drivers/STM32F4xx_HAL_Driver/Src/stm32f4xx_hal_rtc_ex.c ****     sTimeStampDate->Month = (uint8_t)RTC_Bcd2ToByte(sTimeStampDate->Month);
 336:Drivers/STM32F4xx_HAL_Driver/Src/stm32f4xx_hal_rtc_ex.c ****     sTimeStampDate->Date = (uint8_t)RTC_Bcd2ToByte(sTimeStampDate->Date);
 337:Drivers/STM32F4xx_HAL_Driver/Src/stm32f4xx_hal_rtc_ex.c ****     sTimeStampDate->WeekDay = (uint8_t)RTC_Bcd2ToByte(sTimeStampDate->WeekDay);
 338:Drivers/STM32F4xx_HAL_Driver/Src/stm32f4xx_hal_rtc_ex.c ****   }
 339:Drivers/STM32F4xx_HAL_Driver/Src/stm32f4xx_hal_rtc_ex.c **** 
 340:Drivers/STM32F4xx_HAL_Driver/Src/stm32f4xx_hal_rtc_ex.c ****   /* Clear the TIMESTAMP Flag */
 341:Drivers/STM32F4xx_HAL_Driver/Src/stm32f4xx_hal_rtc_ex.c ****   __HAL_RTC_TIMESTAMP_CLEAR_FLAG(hrtc, RTC_FLAG_TSF);
 474              		.loc 1 341 3 is_stmt 1 view .LVU188
 475 0050 F368     		ldr	r3, [r6, #12]
 476 0052 DBB2     		uxtb	r3, r3
 477 0054 63F40863 		orn	r3, r3, #2176
 342:Drivers/STM32F4xx_HAL_Driver/Src/stm32f4xx_hal_rtc_ex.c **** 
 343:Drivers/STM32F4xx_HAL_Driver/Src/stm32f4xx_hal_rtc_ex.c ****   return HAL_OK;
 344:Drivers/STM32F4xx_HAL_Driver/Src/stm32f4xx_hal_rtc_ex.c **** }
 478              		.loc 1 344 1 is_stmt 0 view .LVU189
 479 0058 0020     		movs	r0, #0
 341:Drivers/STM32F4xx_HAL_Driver/Src/stm32f4xx_hal_rtc_ex.c **** 
 480              		.loc 1 341 3 view .LVU190
 481 005a F360     		str	r3, [r6, #12]
 343:Drivers/STM32F4xx_HAL_Driver/Src/stm32f4xx_hal_rtc_ex.c **** }
 482              		.loc 1 343 3 is_stmt 1 view .LVU191
 483              		.loc 1 344 1 is_stmt 0 view .LVU192
 484 005c F8BD     		pop	{r3, r4, r5, r6, r7, pc}
 485              	.LVL35:
 486              	.L24:
 330:Drivers/STM32F4xx_HAL_Driver/Src/stm32f4xx_hal_rtc_ex.c ****     sTimeStamp->Minutes = (uint8_t)RTC_Bcd2ToByte(sTimeStamp->Minutes);
 487              		.loc 1 330 5 is_stmt 1 view .LVU193
 330:Drivers/STM32F4xx_HAL_Driver/Src/stm32f4xx_hal_rtc_ex.c ****     sTimeStamp->Minutes = (uint8_t)RTC_Bcd2ToByte(sTimeStamp->Minutes);
 488              		.loc 1 330 34 is_stmt 0 view .LVU194
 489 005e FFF7FEFF 		bl	RTC_Bcd2ToByte
 490              	.LVL36:
 330:Drivers/STM32F4xx_HAL_Driver/Src/stm32f4xx_hal_rtc_ex.c ****     sTimeStamp->Minutes = (uint8_t)RTC_Bcd2ToByte(sTimeStamp->Minutes);
 491              		.loc 1 330 23 view .LVU195
 492 0062 2070     		strb	r0, [r4]
 331:Drivers/STM32F4xx_HAL_Driver/Src/stm32f4xx_hal_rtc_ex.c ****     sTimeStamp->Seconds = (uint8_t)RTC_Bcd2ToByte(sTimeStamp->Seconds);
 493              		.loc 1 331 5 is_stmt 1 view .LVU196
 331:Drivers/STM32F4xx_HAL_Driver/Src/stm32f4xx_hal_rtc_ex.c ****     sTimeStamp->Seconds = (uint8_t)RTC_Bcd2ToByte(sTimeStamp->Seconds);
 494              		.loc 1 331 36 is_stmt 0 view .LVU197
 495 0064 6078     		ldrb	r0, [r4, #1]	@ zero_extendqisi2
 496 0066 FFF7FEFF 		bl	RTC_Bcd2ToByte
 497              	.LVL37:
 331:Drivers/STM32F4xx_HAL_Driver/Src/stm32f4xx_hal_rtc_ex.c ****     sTimeStamp->Seconds = (uint8_t)RTC_Bcd2ToByte(sTimeStamp->Seconds);
 498              		.loc 1 331 25 view .LVU198
 499 006a 6070     		strb	r0, [r4, #1]
 332:Drivers/STM32F4xx_HAL_Driver/Src/stm32f4xx_hal_rtc_ex.c **** 
 500              		.loc 1 332 5 is_stmt 1 view .LVU199
 332:Drivers/STM32F4xx_HAL_Driver/Src/stm32f4xx_hal_rtc_ex.c **** 
 501              		.loc 1 332 36 is_stmt 0 view .LVU200
 502 006c A078     		ldrb	r0, [r4, #2]	@ zero_extendqisi2
 503 006e FFF7FEFF 		bl	RTC_Bcd2ToByte
ARM GAS  /tmp/cchQ4tcR.s 			page 17


 504              	.LVL38:
 332:Drivers/STM32F4xx_HAL_Driver/Src/stm32f4xx_hal_rtc_ex.c **** 
 505              		.loc 1 332 25 view .LVU201
 506 0072 A070     		strb	r0, [r4, #2]
 335:Drivers/STM32F4xx_HAL_Driver/Src/stm32f4xx_hal_rtc_ex.c ****     sTimeStampDate->Date = (uint8_t)RTC_Bcd2ToByte(sTimeStampDate->Date);
 507              		.loc 1 335 5 is_stmt 1 view .LVU202
 335:Drivers/STM32F4xx_HAL_Driver/Src/stm32f4xx_hal_rtc_ex.c ****     sTimeStampDate->Date = (uint8_t)RTC_Bcd2ToByte(sTimeStampDate->Date);
 508              		.loc 1 335 38 is_stmt 0 view .LVU203
 509 0074 6878     		ldrb	r0, [r5, #1]	@ zero_extendqisi2
 510 0076 FFF7FEFF 		bl	RTC_Bcd2ToByte
 511              	.LVL39:
 335:Drivers/STM32F4xx_HAL_Driver/Src/stm32f4xx_hal_rtc_ex.c ****     sTimeStampDate->Date = (uint8_t)RTC_Bcd2ToByte(sTimeStampDate->Date);
 512              		.loc 1 335 27 view .LVU204
 513 007a 6870     		strb	r0, [r5, #1]
 336:Drivers/STM32F4xx_HAL_Driver/Src/stm32f4xx_hal_rtc_ex.c ****     sTimeStampDate->WeekDay = (uint8_t)RTC_Bcd2ToByte(sTimeStampDate->WeekDay);
 514              		.loc 1 336 5 is_stmt 1 view .LVU205
 336:Drivers/STM32F4xx_HAL_Driver/Src/stm32f4xx_hal_rtc_ex.c ****     sTimeStampDate->WeekDay = (uint8_t)RTC_Bcd2ToByte(sTimeStampDate->WeekDay);
 515              		.loc 1 336 37 is_stmt 0 view .LVU206
 516 007c A878     		ldrb	r0, [r5, #2]	@ zero_extendqisi2
 517 007e FFF7FEFF 		bl	RTC_Bcd2ToByte
 518              	.LVL40:
 336:Drivers/STM32F4xx_HAL_Driver/Src/stm32f4xx_hal_rtc_ex.c ****     sTimeStampDate->WeekDay = (uint8_t)RTC_Bcd2ToByte(sTimeStampDate->WeekDay);
 519              		.loc 1 336 26 view .LVU207
 520 0082 A870     		strb	r0, [r5, #2]
 337:Drivers/STM32F4xx_HAL_Driver/Src/stm32f4xx_hal_rtc_ex.c ****   }
 521              		.loc 1 337 5 is_stmt 1 view .LVU208
 337:Drivers/STM32F4xx_HAL_Driver/Src/stm32f4xx_hal_rtc_ex.c ****   }
 522              		.loc 1 337 40 is_stmt 0 view .LVU209
 523 0084 2878     		ldrb	r0, [r5]	@ zero_extendqisi2
 524 0086 FFF7FEFF 		bl	RTC_Bcd2ToByte
 525              	.LVL41:
 337:Drivers/STM32F4xx_HAL_Driver/Src/stm32f4xx_hal_rtc_ex.c ****   }
 526              		.loc 1 337 29 view .LVU210
 527 008a 2870     		strb	r0, [r5]
 341:Drivers/STM32F4xx_HAL_Driver/Src/stm32f4xx_hal_rtc_ex.c **** 
 528              		.loc 1 341 3 view .LVU211
 529 008c 3E68     		ldr	r6, [r7]
 530 008e DFE7     		b	.L22
 531              		.cfi_endproc
 532              	.LFE238:
 534              		.section	.text.HAL_RTCEx_SetTamper,"ax",%progbits
 535              		.align	1
 536              		.p2align 2,,3
 537              		.global	HAL_RTCEx_SetTamper
 538              		.syntax unified
 539              		.thumb
 540              		.thumb_func
 542              	HAL_RTCEx_SetTamper:
 543              	.LVL42:
 544              	.LFB239:
 345:Drivers/STM32F4xx_HAL_Driver/Src/stm32f4xx_hal_rtc_ex.c **** 
 346:Drivers/STM32F4xx_HAL_Driver/Src/stm32f4xx_hal_rtc_ex.c **** /**
 347:Drivers/STM32F4xx_HAL_Driver/Src/stm32f4xx_hal_rtc_ex.c ****   * @brief  Sets Tamper
 348:Drivers/STM32F4xx_HAL_Driver/Src/stm32f4xx_hal_rtc_ex.c ****   * @note   By calling this API we disable the tamper interrupt for all tampers.
 349:Drivers/STM32F4xx_HAL_Driver/Src/stm32f4xx_hal_rtc_ex.c ****   * @param  hrtc pointer to a RTC_HandleTypeDef structure that contains
 350:Drivers/STM32F4xx_HAL_Driver/Src/stm32f4xx_hal_rtc_ex.c ****   *                the configuration information for RTC.
 351:Drivers/STM32F4xx_HAL_Driver/Src/stm32f4xx_hal_rtc_ex.c ****   * @param  sTamper Pointer to Tamper Structure.
ARM GAS  /tmp/cchQ4tcR.s 			page 18


 352:Drivers/STM32F4xx_HAL_Driver/Src/stm32f4xx_hal_rtc_ex.c ****   * @retval HAL status
 353:Drivers/STM32F4xx_HAL_Driver/Src/stm32f4xx_hal_rtc_ex.c ****   */
 354:Drivers/STM32F4xx_HAL_Driver/Src/stm32f4xx_hal_rtc_ex.c **** HAL_StatusTypeDef HAL_RTCEx_SetTamper(RTC_HandleTypeDef *hrtc, RTC_TamperTypeDef* sTamper)
 355:Drivers/STM32F4xx_HAL_Driver/Src/stm32f4xx_hal_rtc_ex.c **** {
 545              		.loc 1 355 1 is_stmt 1 view -0
 546              		.cfi_startproc
 547              		@ args = 0, pretend = 0, frame = 0
 548              		@ frame_needed = 0, uses_anonymous_args = 0
 549              		@ link register save eliminated.
 356:Drivers/STM32F4xx_HAL_Driver/Src/stm32f4xx_hal_rtc_ex.c ****   uint32_t tmpreg = 0U;
 550              		.loc 1 356 3 view .LVU213
 357:Drivers/STM32F4xx_HAL_Driver/Src/stm32f4xx_hal_rtc_ex.c **** 
 358:Drivers/STM32F4xx_HAL_Driver/Src/stm32f4xx_hal_rtc_ex.c ****   /* Check the parameters */
 359:Drivers/STM32F4xx_HAL_Driver/Src/stm32f4xx_hal_rtc_ex.c ****   assert_param(IS_RTC_TAMPER(sTamper->Tamper));
 551              		.loc 1 359 3 view .LVU214
 360:Drivers/STM32F4xx_HAL_Driver/Src/stm32f4xx_hal_rtc_ex.c ****   assert_param(IS_RTC_TAMPER_PIN(sTamper->PinSelection));
 552              		.loc 1 360 3 view .LVU215
 361:Drivers/STM32F4xx_HAL_Driver/Src/stm32f4xx_hal_rtc_ex.c ****   assert_param(IS_RTC_TAMPER_TRIGGER(sTamper->Trigger));
 553              		.loc 1 361 3 view .LVU216
 362:Drivers/STM32F4xx_HAL_Driver/Src/stm32f4xx_hal_rtc_ex.c ****   assert_param(IS_RTC_TAMPER_FILTER(sTamper->Filter));
 554              		.loc 1 362 3 view .LVU217
 363:Drivers/STM32F4xx_HAL_Driver/Src/stm32f4xx_hal_rtc_ex.c ****   assert_param(IS_RTC_TAMPER_SAMPLING_FREQ(sTamper->SamplingFrequency));
 555              		.loc 1 363 3 view .LVU218
 364:Drivers/STM32F4xx_HAL_Driver/Src/stm32f4xx_hal_rtc_ex.c ****   assert_param(IS_RTC_TAMPER_PRECHARGE_DURATION(sTamper->PrechargeDuration));
 556              		.loc 1 364 3 view .LVU219
 365:Drivers/STM32F4xx_HAL_Driver/Src/stm32f4xx_hal_rtc_ex.c ****   assert_param(IS_RTC_TAMPER_PULLUP_STATE(sTamper->TamperPullUp));
 557              		.loc 1 365 3 view .LVU220
 366:Drivers/STM32F4xx_HAL_Driver/Src/stm32f4xx_hal_rtc_ex.c ****   assert_param(IS_RTC_TAMPER_TIMESTAMPONTAMPER_DETECTION(sTamper->TimeStampOnTamperDetection));
 558              		.loc 1 366 3 view .LVU221
 367:Drivers/STM32F4xx_HAL_Driver/Src/stm32f4xx_hal_rtc_ex.c **** 
 368:Drivers/STM32F4xx_HAL_Driver/Src/stm32f4xx_hal_rtc_ex.c ****   /* Process Locked */
 369:Drivers/STM32F4xx_HAL_Driver/Src/stm32f4xx_hal_rtc_ex.c ****   __HAL_LOCK(hrtc);
 559              		.loc 1 369 3 view .LVU222
 560              		.loc 1 369 3 view .LVU223
 561 0000 037F     		ldrb	r3, [r0, #28]	@ zero_extendqisi2
 562 0002 012B     		cmp	r3, #1
 563 0004 2DD0     		beq	.L29
 564              		.loc 1 369 3 discriminator 2 view .LVU224
 565              		.loc 1 369 3 discriminator 2 view .LVU225
 370:Drivers/STM32F4xx_HAL_Driver/Src/stm32f4xx_hal_rtc_ex.c **** 
 371:Drivers/STM32F4xx_HAL_Driver/Src/stm32f4xx_hal_rtc_ex.c ****   hrtc->State = HAL_RTC_STATE_BUSY;
 566              		.loc 1 371 3 discriminator 2 view .LVU226
 567              		.loc 1 371 15 is_stmt 0 discriminator 2 view .LVU227
 568 0006 0223     		movs	r3, #2
 355:Drivers/STM32F4xx_HAL_Driver/Src/stm32f4xx_hal_rtc_ex.c ****   uint32_t tmpreg = 0U;
 569              		.loc 1 355 1 discriminator 2 view .LVU228
 570 0008 70B4     		push	{r4, r5, r6}
 571              		.cfi_def_cfa_offset 12
 572              		.cfi_offset 4, -12
 573              		.cfi_offset 5, -8
 574              		.cfi_offset 6, -4
 575              		.loc 1 371 15 discriminator 2 view .LVU229
 576 000a 4377     		strb	r3, [r0, #29]
 372:Drivers/STM32F4xx_HAL_Driver/Src/stm32f4xx_hal_rtc_ex.c **** 
 373:Drivers/STM32F4xx_HAL_Driver/Src/stm32f4xx_hal_rtc_ex.c ****   if(sTamper->Trigger != RTC_TAMPERTRIGGER_RISINGEDGE)
 577              		.loc 1 373 3 is_stmt 1 discriminator 2 view .LVU230
 374:Drivers/STM32F4xx_HAL_Driver/Src/stm32f4xx_hal_rtc_ex.c ****   {
ARM GAS  /tmp/cchQ4tcR.s 			page 19


 375:Drivers/STM32F4xx_HAL_Driver/Src/stm32f4xx_hal_rtc_ex.c ****     sTamper->Trigger = (uint32_t)(sTamper->Tamper << 1U);
 578              		.loc 1 375 42 is_stmt 0 discriminator 2 view .LVU231
 579 000c 0D68     		ldr	r5, [r1]
 373:Drivers/STM32F4xx_HAL_Driver/Src/stm32f4xx_hal_rtc_ex.c ****   {
 580              		.loc 1 373 13 discriminator 2 view .LVU232
 581 000e 8C68     		ldr	r4, [r1, #8]
 582 0010 8446     		mov	ip, r0
 583              		.loc 1 375 51 discriminator 2 view .LVU233
 584 0012 6A00     		lsls	r2, r5, #1
 373:Drivers/STM32F4xx_HAL_Driver/Src/stm32f4xx_hal_rtc_ex.c ****   {
 585              		.loc 1 373 5 discriminator 2 view .LVU234
 586 0014 0CB1     		cbz	r4, .L28
 587              		.loc 1 375 5 is_stmt 1 view .LVU235
 588              		.loc 1 375 22 is_stmt 0 view .LVU236
 589 0016 8A60     		str	r2, [r1, #8]
 590 0018 1446     		mov	r4, r2
 591              	.L28:
 376:Drivers/STM32F4xx_HAL_Driver/Src/stm32f4xx_hal_rtc_ex.c ****   }
 377:Drivers/STM32F4xx_HAL_Driver/Src/stm32f4xx_hal_rtc_ex.c **** 
 378:Drivers/STM32F4xx_HAL_Driver/Src/stm32f4xx_hal_rtc_ex.c ****   tmpreg = ((uint32_t)sTamper->Tamper | (uint32_t)sTamper->PinSelection | (uint32_t)sTamper->Trigge
 592              		.loc 1 378 3 is_stmt 1 view .LVU237
 593 001a CE68     		ldr	r6, [r1, #12]
 594 001c 4B68     		ldr	r3, [r1, #4]
 379:Drivers/STM32F4xx_HAL_Driver/Src/stm32f4xx_hal_rtc_ex.c ****             (uint32_t)sTamper->Filter | (uint32_t)sTamper->SamplingFrequency | (uint32_t)sTamper->P
 380:Drivers/STM32F4xx_HAL_Driver/Src/stm32f4xx_hal_rtc_ex.c ****             (uint32_t)sTamper->TamperPullUp | sTamper->TimeStampOnTamperDetection);
 381:Drivers/STM32F4xx_HAL_Driver/Src/stm32f4xx_hal_rtc_ex.c **** 
 382:Drivers/STM32F4xx_HAL_Driver/Src/stm32f4xx_hal_rtc_ex.c ****   hrtc->Instance->TAFCR &= (uint32_t)~((uint32_t)sTamper->Tamper | (uint32_t)(sTamper->Tamper << 1U
 595              		.loc 1 382 7 is_stmt 0 view .LVU238
 596 001e DCF80000 		ldr	r0, [ip]
 597              	.LVL43:
 598              		.loc 1 382 66 view .LVU239
 599 0022 2A43     		orrs	r2, r2, r5
 600 0024 3343     		orrs	r3, r3, r6
 383:Drivers/STM32F4xx_HAL_Driver/Src/stm32f4xx_hal_rtc_ex.c ****                                        (uint32_t)RTC_TAFCR_TAMPFREQ | (uint32_t)RTC_TAFCR_TAMPFLT |
 384:Drivers/STM32F4xx_HAL_Driver/Src/stm32f4xx_hal_rtc_ex.c ****                                        (uint32_t)RTC_TAFCR_TAMPPUDIS | (uint32_t)RTC_TAFCR_TAMPINSE
 601              		.loc 1 384 102 view .LVU240
 602 0026 42F4FF32 		orr	r2, r2, #130560
 382:Drivers/STM32F4xx_HAL_Driver/Src/stm32f4xx_hal_rtc_ex.c ****                                        (uint32_t)RTC_TAFCR_TAMPFREQ | (uint32_t)RTC_TAFCR_TAMPFLT |
 603              		.loc 1 382 25 view .LVU241
 604 002a 066C     		ldr	r6, [r0, #64]
 605              		.loc 1 384 102 view .LVU242
 606 002c 42F4C272 		orr	r2, r2, #388
 382:Drivers/STM32F4xx_HAL_Driver/Src/stm32f4xx_hal_rtc_ex.c ****                                        (uint32_t)RTC_TAFCR_TAMPFREQ | (uint32_t)RTC_TAFCR_TAMPFLT |
 607              		.loc 1 382 25 view .LVU243
 608 0030 26EA0202 		bic	r2, r6, r2
 609 0034 0E69     		ldr	r6, [r1, #16]
 610 0036 3343     		orrs	r3, r3, r6
 611 0038 4E69     		ldr	r6, [r1, #20]
 612 003a 3343     		orrs	r3, r3, r6
 613 003c 8E69     		ldr	r6, [r1, #24]
 614 003e C969     		ldr	r1, [r1, #28]
 615              	.LVL44:
 382:Drivers/STM32F4xx_HAL_Driver/Src/stm32f4xx_hal_rtc_ex.c ****                                        (uint32_t)RTC_TAFCR_TAMPFREQ | (uint32_t)RTC_TAFCR_TAMPFLT |
 616              		.loc 1 382 25 view .LVU244
 617 0040 0264     		str	r2, [r0, #64]
 385:Drivers/STM32F4xx_HAL_Driver/Src/stm32f4xx_hal_rtc_ex.c **** 
 386:Drivers/STM32F4xx_HAL_Driver/Src/stm32f4xx_hal_rtc_ex.c ****   hrtc->Instance->TAFCR |= tmpreg;
ARM GAS  /tmp/cchQ4tcR.s 			page 20


 618              		.loc 1 386 25 view .LVU245
 619 0042 026C     		ldr	r2, [r0, #64]
 620 0044 3343     		orrs	r3, r3, r6
 621 0046 0B43     		orrs	r3, r3, r1
 622              	.LVL45:
 382:Drivers/STM32F4xx_HAL_Driver/Src/stm32f4xx_hal_rtc_ex.c ****                                        (uint32_t)RTC_TAFCR_TAMPFREQ | (uint32_t)RTC_TAFCR_TAMPFLT |
 623              		.loc 1 382 3 is_stmt 1 view .LVU246
 624              		.loc 1 386 3 view .LVU247
 625              		.loc 1 386 25 is_stmt 0 view .LVU248
 626 0048 1343     		orrs	r3, r3, r2
 627 004a 2B43     		orrs	r3, r3, r5
 387:Drivers/STM32F4xx_HAL_Driver/Src/stm32f4xx_hal_rtc_ex.c **** 
 388:Drivers/STM32F4xx_HAL_Driver/Src/stm32f4xx_hal_rtc_ex.c ****   hrtc->State = HAL_RTC_STATE_READY;
 389:Drivers/STM32F4xx_HAL_Driver/Src/stm32f4xx_hal_rtc_ex.c **** 
 390:Drivers/STM32F4xx_HAL_Driver/Src/stm32f4xx_hal_rtc_ex.c ****   /* Process Unlocked */
 391:Drivers/STM32F4xx_HAL_Driver/Src/stm32f4xx_hal_rtc_ex.c ****   __HAL_UNLOCK(hrtc);
 628              		.loc 1 391 3 view .LVU249
 629 004c 0022     		movs	r2, #0
 386:Drivers/STM32F4xx_HAL_Driver/Src/stm32f4xx_hal_rtc_ex.c **** 
 630              		.loc 1 386 25 view .LVU250
 631 004e 2343     		orrs	r3, r3, r4
 388:Drivers/STM32F4xx_HAL_Driver/Src/stm32f4xx_hal_rtc_ex.c **** 
 632              		.loc 1 388 15 view .LVU251
 633 0050 0121     		movs	r1, #1
 634              	.LVL46:
 386:Drivers/STM32F4xx_HAL_Driver/Src/stm32f4xx_hal_rtc_ex.c **** 
 635              		.loc 1 386 25 view .LVU252
 636 0052 0364     		str	r3, [r0, #64]
 388:Drivers/STM32F4xx_HAL_Driver/Src/stm32f4xx_hal_rtc_ex.c **** 
 637              		.loc 1 388 3 is_stmt 1 view .LVU253
 388:Drivers/STM32F4xx_HAL_Driver/Src/stm32f4xx_hal_rtc_ex.c **** 
 638              		.loc 1 388 15 is_stmt 0 view .LVU254
 639 0054 8CF81D10 		strb	r1, [ip, #29]
 640              	.LVL47:
 641              		.loc 1 391 3 is_stmt 1 view .LVU255
 642              		.loc 1 391 3 view .LVU256
 643 0058 8CF81C20 		strb	r2, [ip, #28]
 644              		.loc 1 391 3 view .LVU257
 392:Drivers/STM32F4xx_HAL_Driver/Src/stm32f4xx_hal_rtc_ex.c **** 
 393:Drivers/STM32F4xx_HAL_Driver/Src/stm32f4xx_hal_rtc_ex.c ****   return HAL_OK;
 645              		.loc 1 393 3 view .LVU258
 646              		.loc 1 393 10 is_stmt 0 view .LVU259
 647 005c 1046     		mov	r0, r2
 394:Drivers/STM32F4xx_HAL_Driver/Src/stm32f4xx_hal_rtc_ex.c **** }
 648              		.loc 1 394 1 view .LVU260
 649 005e 70BC     		pop	{r4, r5, r6}
 650              		.cfi_restore 6
 651              		.cfi_restore 5
 652              		.cfi_restore 4
 653              		.cfi_def_cfa_offset 0
 654 0060 7047     		bx	lr
 655              	.LVL48:
 656              	.L29:
 369:Drivers/STM32F4xx_HAL_Driver/Src/stm32f4xx_hal_rtc_ex.c **** 
 657              		.loc 1 369 3 view .LVU261
 658 0062 0220     		movs	r0, #2
 659              	.LVL49:
ARM GAS  /tmp/cchQ4tcR.s 			page 21


 660              		.loc 1 394 1 view .LVU262
 661 0064 7047     		bx	lr
 662              		.cfi_endproc
 663              	.LFE239:
 665 0066 00BF     		.section	.text.HAL_RTCEx_SetTamper_IT,"ax",%progbits
 666              		.align	1
 667              		.p2align 2,,3
 668              		.global	HAL_RTCEx_SetTamper_IT
 669              		.syntax unified
 670              		.thumb
 671              		.thumb_func
 673              	HAL_RTCEx_SetTamper_IT:
 674              	.LVL50:
 675              	.LFB240:
 395:Drivers/STM32F4xx_HAL_Driver/Src/stm32f4xx_hal_rtc_ex.c **** 
 396:Drivers/STM32F4xx_HAL_Driver/Src/stm32f4xx_hal_rtc_ex.c **** /**
 397:Drivers/STM32F4xx_HAL_Driver/Src/stm32f4xx_hal_rtc_ex.c ****   * @brief  Sets Tamper with interrupt.
 398:Drivers/STM32F4xx_HAL_Driver/Src/stm32f4xx_hal_rtc_ex.c ****   * @note   By calling this API we force the tamper interrupt for all tampers.
 399:Drivers/STM32F4xx_HAL_Driver/Src/stm32f4xx_hal_rtc_ex.c ****   * @param  hrtc pointer to a RTC_HandleTypeDef structure that contains
 400:Drivers/STM32F4xx_HAL_Driver/Src/stm32f4xx_hal_rtc_ex.c ****   *                the configuration information for RTC.
 401:Drivers/STM32F4xx_HAL_Driver/Src/stm32f4xx_hal_rtc_ex.c ****   * @param  sTamper Pointer to RTC Tamper.
 402:Drivers/STM32F4xx_HAL_Driver/Src/stm32f4xx_hal_rtc_ex.c ****   * @retval HAL status
 403:Drivers/STM32F4xx_HAL_Driver/Src/stm32f4xx_hal_rtc_ex.c ****   */
 404:Drivers/STM32F4xx_HAL_Driver/Src/stm32f4xx_hal_rtc_ex.c **** HAL_StatusTypeDef HAL_RTCEx_SetTamper_IT(RTC_HandleTypeDef *hrtc, RTC_TamperTypeDef* sTamper)
 405:Drivers/STM32F4xx_HAL_Driver/Src/stm32f4xx_hal_rtc_ex.c **** {
 676              		.loc 1 405 1 is_stmt 1 view -0
 677              		.cfi_startproc
 678              		@ args = 0, pretend = 0, frame = 0
 679              		@ frame_needed = 0, uses_anonymous_args = 0
 680              		@ link register save eliminated.
 406:Drivers/STM32F4xx_HAL_Driver/Src/stm32f4xx_hal_rtc_ex.c ****   uint32_t tmpreg = 0U;
 681              		.loc 1 406 3 view .LVU264
 407:Drivers/STM32F4xx_HAL_Driver/Src/stm32f4xx_hal_rtc_ex.c **** 
 408:Drivers/STM32F4xx_HAL_Driver/Src/stm32f4xx_hal_rtc_ex.c ****   /* Check the parameters */
 409:Drivers/STM32F4xx_HAL_Driver/Src/stm32f4xx_hal_rtc_ex.c ****   assert_param(IS_RTC_TAMPER(sTamper->Tamper));
 682              		.loc 1 409 3 view .LVU265
 410:Drivers/STM32F4xx_HAL_Driver/Src/stm32f4xx_hal_rtc_ex.c ****   assert_param(IS_RTC_TAMPER_PIN(sTamper->PinSelection));
 683              		.loc 1 410 3 view .LVU266
 411:Drivers/STM32F4xx_HAL_Driver/Src/stm32f4xx_hal_rtc_ex.c ****   assert_param(IS_RTC_TAMPER_TRIGGER(sTamper->Trigger));
 684              		.loc 1 411 3 view .LVU267
 412:Drivers/STM32F4xx_HAL_Driver/Src/stm32f4xx_hal_rtc_ex.c ****   assert_param(IS_RTC_TAMPER_FILTER(sTamper->Filter));
 685              		.loc 1 412 3 view .LVU268
 413:Drivers/STM32F4xx_HAL_Driver/Src/stm32f4xx_hal_rtc_ex.c ****   assert_param(IS_RTC_TAMPER_SAMPLING_FREQ(sTamper->SamplingFrequency));
 686              		.loc 1 413 3 view .LVU269
 414:Drivers/STM32F4xx_HAL_Driver/Src/stm32f4xx_hal_rtc_ex.c ****   assert_param(IS_RTC_TAMPER_PRECHARGE_DURATION(sTamper->PrechargeDuration));
 687              		.loc 1 414 3 view .LVU270
 415:Drivers/STM32F4xx_HAL_Driver/Src/stm32f4xx_hal_rtc_ex.c ****   assert_param(IS_RTC_TAMPER_PULLUP_STATE(sTamper->TamperPullUp));
 688              		.loc 1 415 3 view .LVU271
 416:Drivers/STM32F4xx_HAL_Driver/Src/stm32f4xx_hal_rtc_ex.c ****   assert_param(IS_RTC_TAMPER_TIMESTAMPONTAMPER_DETECTION(sTamper->TimeStampOnTamperDetection));
 689              		.loc 1 416 3 view .LVU272
 417:Drivers/STM32F4xx_HAL_Driver/Src/stm32f4xx_hal_rtc_ex.c **** 
 418:Drivers/STM32F4xx_HAL_Driver/Src/stm32f4xx_hal_rtc_ex.c ****   /* Process Locked */
 419:Drivers/STM32F4xx_HAL_Driver/Src/stm32f4xx_hal_rtc_ex.c ****   __HAL_LOCK(hrtc);
 690              		.loc 1 419 3 view .LVU273
 691              		.loc 1 419 3 view .LVU274
 692 0000 037F     		ldrb	r3, [r0, #28]	@ zero_extendqisi2
 693 0002 012B     		cmp	r3, #1
ARM GAS  /tmp/cchQ4tcR.s 			page 22


 694 0004 47D0     		beq	.L40
 695              		.loc 1 419 3 discriminator 2 view .LVU275
 696 0006 0246     		mov	r2, r0
 420:Drivers/STM32F4xx_HAL_Driver/Src/stm32f4xx_hal_rtc_ex.c **** 
 421:Drivers/STM32F4xx_HAL_Driver/Src/stm32f4xx_hal_rtc_ex.c ****   hrtc->State = HAL_RTC_STATE_BUSY;
 697              		.loc 1 421 15 is_stmt 0 discriminator 2 view .LVU276
 698 0008 0223     		movs	r3, #2
 419:Drivers/STM32F4xx_HAL_Driver/Src/stm32f4xx_hal_rtc_ex.c **** 
 699              		.loc 1 419 3 discriminator 2 view .LVU277
 700 000a 0120     		movs	r0, #1
 701              	.LVL51:
 405:Drivers/STM32F4xx_HAL_Driver/Src/stm32f4xx_hal_rtc_ex.c ****   uint32_t tmpreg = 0U;
 702              		.loc 1 405 1 discriminator 2 view .LVU278
 703 000c F0B4     		push	{r4, r5, r6, r7}
 704              		.cfi_def_cfa_offset 16
 705              		.cfi_offset 4, -16
 706              		.cfi_offset 5, -12
 707              		.cfi_offset 6, -8
 708              		.cfi_offset 7, -4
 419:Drivers/STM32F4xx_HAL_Driver/Src/stm32f4xx_hal_rtc_ex.c **** 
 709              		.loc 1 419 3 discriminator 2 view .LVU279
 710 000e 1077     		strb	r0, [r2, #28]
 419:Drivers/STM32F4xx_HAL_Driver/Src/stm32f4xx_hal_rtc_ex.c **** 
 711              		.loc 1 419 3 is_stmt 1 discriminator 2 view .LVU280
 712              		.loc 1 421 3 discriminator 2 view .LVU281
 713              		.loc 1 421 15 is_stmt 0 discriminator 2 view .LVU282
 714 0010 5377     		strb	r3, [r2, #29]
 422:Drivers/STM32F4xx_HAL_Driver/Src/stm32f4xx_hal_rtc_ex.c **** 
 423:Drivers/STM32F4xx_HAL_Driver/Src/stm32f4xx_hal_rtc_ex.c ****   /* Configure the tamper trigger */
 424:Drivers/STM32F4xx_HAL_Driver/Src/stm32f4xx_hal_rtc_ex.c ****   if(sTamper->Trigger != RTC_TAMPERTRIGGER_RISINGEDGE)
 715              		.loc 1 424 3 is_stmt 1 discriminator 2 view .LVU283
 716              		.loc 1 424 13 is_stmt 0 discriminator 2 view .LVU284
 717 0012 8D68     		ldr	r5, [r1, #8]
 425:Drivers/STM32F4xx_HAL_Driver/Src/stm32f4xx_hal_rtc_ex.c ****   {
 426:Drivers/STM32F4xx_HAL_Driver/Src/stm32f4xx_hal_rtc_ex.c ****     sTamper->Trigger = (uint32_t)(sTamper->Tamper << 1U);
 718              		.loc 1 426 42 discriminator 2 view .LVU285
 719 0014 0C68     		ldr	r4, [r1]
 424:Drivers/STM32F4xx_HAL_Driver/Src/stm32f4xx_hal_rtc_ex.c ****   {
 720              		.loc 1 424 5 discriminator 2 view .LVU286
 721 0016 002D     		cmp	r5, #0
 722 0018 39D1     		bne	.L36
 723              		.loc 1 426 51 view .LVU287
 724 001a 04FA00F3 		lsl	r3, r4, r0
 725              	.L37:
 427:Drivers/STM32F4xx_HAL_Driver/Src/stm32f4xx_hal_rtc_ex.c ****   }
 428:Drivers/STM32F4xx_HAL_Driver/Src/stm32f4xx_hal_rtc_ex.c **** 
 429:Drivers/STM32F4xx_HAL_Driver/Src/stm32f4xx_hal_rtc_ex.c ****   tmpreg = ((uint32_t)sTamper->Tamper | (uint32_t)sTamper->PinSelection | (uint32_t)sTamper->Trigge
 726              		.loc 1 429 3 is_stmt 1 view .LVU288
 727 001e CE68     		ldr	r6, [r1, #12]
 728 0020 0F69     		ldr	r7, [r1, #16]
 430:Drivers/STM32F4xx_HAL_Driver/Src/stm32f4xx_hal_rtc_ex.c ****             (uint32_t)sTamper->Filter | (uint32_t)sTamper->SamplingFrequency | (uint32_t)sTamper->P
 431:Drivers/STM32F4xx_HAL_Driver/Src/stm32f4xx_hal_rtc_ex.c ****             (uint32_t)sTamper->TamperPullUp | sTamper->TimeStampOnTamperDetection);
 432:Drivers/STM32F4xx_HAL_Driver/Src/stm32f4xx_hal_rtc_ex.c **** 
 433:Drivers/STM32F4xx_HAL_Driver/Src/stm32f4xx_hal_rtc_ex.c ****   hrtc->Instance->TAFCR &= (uint32_t)~((uint32_t)sTamper->Tamper | (uint32_t)(sTamper->Tamper << 1U
 729              		.loc 1 433 7 is_stmt 0 view .LVU289
 730 0022 1068     		ldr	r0, [r2]
 731              		.loc 1 433 66 view .LVU290
ARM GAS  /tmp/cchQ4tcR.s 			page 23


 732 0024 44EA030C 		orr	ip, r4, r3
 733 0028 4B68     		ldr	r3, [r1, #4]
 734 002a 3343     		orrs	r3, r3, r6
 735 002c 3B43     		orrs	r3, r3, r7
 736 002e 4F69     		ldr	r7, [r1, #20]
 737              		.loc 1 433 25 view .LVU291
 738 0030 066C     		ldr	r6, [r0, #64]
 434:Drivers/STM32F4xx_HAL_Driver/Src/stm32f4xx_hal_rtc_ex.c ****                                        (uint32_t)RTC_TAFCR_TAMPFREQ | (uint32_t)RTC_TAFCR_TAMPFLT |
 435:Drivers/STM32F4xx_HAL_Driver/Src/stm32f4xx_hal_rtc_ex.c ****                                        (uint32_t)RTC_TAFCR_TAMPPUDIS | (uint32_t)RTC_TAFCR_TAMPINSE
 739              		.loc 1 435 70 view .LVU292
 740 0032 4CF4FF3C 		orr	ip, ip, #130560
 741 0036 3B43     		orrs	r3, r3, r7
 742 0038 4CF4C07C 		orr	ip, ip, #384
 743 003c 8F69     		ldr	r7, [r1, #24]
 744 003e C969     		ldr	r1, [r1, #28]
 745              	.LVL52:
 433:Drivers/STM32F4xx_HAL_Driver/Src/stm32f4xx_hal_rtc_ex.c ****                                        (uint32_t)RTC_TAFCR_TAMPFREQ | (uint32_t)RTC_TAFCR_TAMPFLT |
 746              		.loc 1 433 25 view .LVU293
 747 0040 26EA0C06 		bic	r6, r6, ip
 748 0044 0664     		str	r6, [r0, #64]
 749 0046 3B43     		orrs	r3, r3, r7
 750 0048 0B43     		orrs	r3, r3, r1
 751              	.LVL53:
 433:Drivers/STM32F4xx_HAL_Driver/Src/stm32f4xx_hal_rtc_ex.c ****                                        (uint32_t)RTC_TAFCR_TAMPFREQ | (uint32_t)RTC_TAFCR_TAMPFLT |
 752              		.loc 1 433 3 is_stmt 1 view .LVU294
 436:Drivers/STM32F4xx_HAL_Driver/Src/stm32f4xx_hal_rtc_ex.c **** 
 437:Drivers/STM32F4xx_HAL_Driver/Src/stm32f4xx_hal_rtc_ex.c ****   hrtc->Instance->TAFCR |= tmpreg;
 753              		.loc 1 437 3 view .LVU295
 754              		.loc 1 437 25 is_stmt 0 view .LVU296
 755 004a 016C     		ldr	r1, [r0, #64]
 756              	.LVL54:
 757              		.loc 1 437 25 view .LVU297
 758 004c 0B43     		orrs	r3, r3, r1
 759 004e 2343     		orrs	r3, r3, r4
 760 0050 2B43     		orrs	r3, r3, r5
 761 0052 0364     		str	r3, [r0, #64]
 438:Drivers/STM32F4xx_HAL_Driver/Src/stm32f4xx_hal_rtc_ex.c **** 
 439:Drivers/STM32F4xx_HAL_Driver/Src/stm32f4xx_hal_rtc_ex.c ****   /* Configure the Tamper Interrupt in the RTC_TAFCR */
 440:Drivers/STM32F4xx_HAL_Driver/Src/stm32f4xx_hal_rtc_ex.c ****   hrtc->Instance->TAFCR |= (uint32_t)RTC_TAFCR_TAMPIE;
 762              		.loc 1 440 3 is_stmt 1 view .LVU298
 763              		.loc 1 440 25 is_stmt 0 view .LVU299
 764 0054 036C     		ldr	r3, [r0, #64]
 765 0056 43F00403 		orr	r3, r3, #4
 766 005a 0364     		str	r3, [r0, #64]
 441:Drivers/STM32F4xx_HAL_Driver/Src/stm32f4xx_hal_rtc_ex.c **** 
 442:Drivers/STM32F4xx_HAL_Driver/Src/stm32f4xx_hal_rtc_ex.c ****   if(sTamper->Tamper == RTC_TAMPER_1)
 767              		.loc 1 442 3 is_stmt 1 view .LVU300
 443:Drivers/STM32F4xx_HAL_Driver/Src/stm32f4xx_hal_rtc_ex.c ****   {
 444:Drivers/STM32F4xx_HAL_Driver/Src/stm32f4xx_hal_rtc_ex.c ****     /* Clear RTC Tamper 1 flag */
 445:Drivers/STM32F4xx_HAL_Driver/Src/stm32f4xx_hal_rtc_ex.c ****     __HAL_RTC_TAMPER_CLEAR_FLAG(hrtc, RTC_FLAG_TAMP1F);
 768              		.loc 1 445 5 is_stmt 0 view .LVU301
 769 005c C368     		ldr	r3, [r0, #12]
 442:Drivers/STM32F4xx_HAL_Driver/Src/stm32f4xx_hal_rtc_ex.c ****   {
 770              		.loc 1 442 5 view .LVU302
 771 005e 012C     		cmp	r4, #1
 772              		.loc 1 445 5 is_stmt 1 view .LVU303
 773 0060 DBB2     		uxtb	r3, r3
ARM GAS  /tmp/cchQ4tcR.s 			page 24


 774 0062 0CBF     		ite	eq
 775 0064 63F40253 		orneq	r3, r3, #8320
 446:Drivers/STM32F4xx_HAL_Driver/Src/stm32f4xx_hal_rtc_ex.c ****   }
 447:Drivers/STM32F4xx_HAL_Driver/Src/stm32f4xx_hal_rtc_ex.c ****   else
 448:Drivers/STM32F4xx_HAL_Driver/Src/stm32f4xx_hal_rtc_ex.c ****   {
 449:Drivers/STM32F4xx_HAL_Driver/Src/stm32f4xx_hal_rtc_ex.c ****     /* Clear RTC Tamper 2 flag */
 450:Drivers/STM32F4xx_HAL_Driver/Src/stm32f4xx_hal_rtc_ex.c ****     __HAL_RTC_TAMPER_CLEAR_FLAG(hrtc, RTC_FLAG_TAMP2F);
 776              		.loc 1 450 5 view .LVU304
 777 0068 63F48143 		ornne	r3, r3, #16512
 778 006c C360     		str	r3, [r0, #12]
 779              	.LVL55:
 451:Drivers/STM32F4xx_HAL_Driver/Src/stm32f4xx_hal_rtc_ex.c ****   }
 452:Drivers/STM32F4xx_HAL_Driver/Src/stm32f4xx_hal_rtc_ex.c **** 
 453:Drivers/STM32F4xx_HAL_Driver/Src/stm32f4xx_hal_rtc_ex.c ****   /* RTC Tamper Interrupt Configuration: EXTI configuration */
 454:Drivers/STM32F4xx_HAL_Driver/Src/stm32f4xx_hal_rtc_ex.c ****   __HAL_RTC_TAMPER_TIMESTAMP_EXTI_ENABLE_IT();
 780              		.loc 1 454 3 view .LVU305
 781 006e 0B4B     		ldr	r3, .L45
 782 0070 1968     		ldr	r1, [r3]
 783 0072 41F40011 		orr	r1, r1, #2097152
 784 0076 1960     		str	r1, [r3]
 455:Drivers/STM32F4xx_HAL_Driver/Src/stm32f4xx_hal_rtc_ex.c **** 
 456:Drivers/STM32F4xx_HAL_Driver/Src/stm32f4xx_hal_rtc_ex.c ****   EXTI->RTSR |= RTC_EXTI_LINE_TAMPER_TIMESTAMP_EVENT;
 785              		.loc 1 456 3 view .LVU306
 786              		.loc 1 456 14 is_stmt 0 view .LVU307
 787 0078 9968     		ldr	r1, [r3, #8]
 457:Drivers/STM32F4xx_HAL_Driver/Src/stm32f4xx_hal_rtc_ex.c **** 
 458:Drivers/STM32F4xx_HAL_Driver/Src/stm32f4xx_hal_rtc_ex.c ****   hrtc->State = HAL_RTC_STATE_READY;
 459:Drivers/STM32F4xx_HAL_Driver/Src/stm32f4xx_hal_rtc_ex.c **** 
 460:Drivers/STM32F4xx_HAL_Driver/Src/stm32f4xx_hal_rtc_ex.c ****   /* Process Unlocked */
 461:Drivers/STM32F4xx_HAL_Driver/Src/stm32f4xx_hal_rtc_ex.c ****   __HAL_UNLOCK(hrtc);
 788              		.loc 1 461 3 view .LVU308
 789 007a 0024     		movs	r4, #0
 458:Drivers/STM32F4xx_HAL_Driver/Src/stm32f4xx_hal_rtc_ex.c **** 
 790              		.loc 1 458 15 view .LVU309
 791 007c 0125     		movs	r5, #1
 456:Drivers/STM32F4xx_HAL_Driver/Src/stm32f4xx_hal_rtc_ex.c **** 
 792              		.loc 1 456 14 view .LVU310
 793 007e 41F40011 		orr	r1, r1, #2097152
 794 0082 9960     		str	r1, [r3, #8]
 458:Drivers/STM32F4xx_HAL_Driver/Src/stm32f4xx_hal_rtc_ex.c **** 
 795              		.loc 1 458 3 is_stmt 1 view .LVU311
 458:Drivers/STM32F4xx_HAL_Driver/Src/stm32f4xx_hal_rtc_ex.c **** 
 796              		.loc 1 458 15 is_stmt 0 view .LVU312
 797 0084 5577     		strb	r5, [r2, #29]
 798              		.loc 1 461 3 is_stmt 1 view .LVU313
 799              		.loc 1 461 3 view .LVU314
 800 0086 1477     		strb	r4, [r2, #28]
 801              		.loc 1 461 3 view .LVU315
 462:Drivers/STM32F4xx_HAL_Driver/Src/stm32f4xx_hal_rtc_ex.c **** 
 463:Drivers/STM32F4xx_HAL_Driver/Src/stm32f4xx_hal_rtc_ex.c ****   return HAL_OK;
 802              		.loc 1 463 3 view .LVU316
 803              		.loc 1 463 10 is_stmt 0 view .LVU317
 804 0088 2046     		mov	r0, r4
 464:Drivers/STM32F4xx_HAL_Driver/Src/stm32f4xx_hal_rtc_ex.c **** }
 805              		.loc 1 464 1 view .LVU318
 806 008a F0BC     		pop	{r4, r5, r6, r7}
 807              		.cfi_remember_state
ARM GAS  /tmp/cchQ4tcR.s 			page 25


 808              		.cfi_restore 7
 809              		.cfi_restore 6
 810              		.cfi_restore 5
 811              		.cfi_restore 4
 812              		.cfi_def_cfa_offset 0
 813 008c 7047     		bx	lr
 814              	.LVL56:
 815              	.L36:
 816              		.cfi_restore_state
 426:Drivers/STM32F4xx_HAL_Driver/Src/stm32f4xx_hal_rtc_ex.c ****   }
 817              		.loc 1 426 5 is_stmt 1 view .LVU319
 426:Drivers/STM32F4xx_HAL_Driver/Src/stm32f4xx_hal_rtc_ex.c ****   }
 818              		.loc 1 426 51 is_stmt 0 view .LVU320
 819 008e 6300     		lsls	r3, r4, #1
 426:Drivers/STM32F4xx_HAL_Driver/Src/stm32f4xx_hal_rtc_ex.c ****   }
 820              		.loc 1 426 22 view .LVU321
 821 0090 8B60     		str	r3, [r1, #8]
 822 0092 1D46     		mov	r5, r3
 823 0094 C3E7     		b	.L37
 824              	.LVL57:
 825              	.L40:
 826              		.cfi_def_cfa_offset 0
 827              		.cfi_restore 4
 828              		.cfi_restore 5
 829              		.cfi_restore 6
 830              		.cfi_restore 7
 419:Drivers/STM32F4xx_HAL_Driver/Src/stm32f4xx_hal_rtc_ex.c **** 
 831              		.loc 1 419 3 view .LVU322
 832 0096 0220     		movs	r0, #2
 833              	.LVL58:
 834              		.loc 1 464 1 view .LVU323
 835 0098 7047     		bx	lr
 836              	.L46:
 837 009a 00BF     		.align	2
 838              	.L45:
 839 009c 003C0140 		.word	1073822720
 840              		.cfi_endproc
 841              	.LFE240:
 843              		.section	.text.HAL_RTCEx_DeactivateTamper,"ax",%progbits
 844              		.align	1
 845              		.p2align 2,,3
 846              		.global	HAL_RTCEx_DeactivateTamper
 847              		.syntax unified
 848              		.thumb
 849              		.thumb_func
 851              	HAL_RTCEx_DeactivateTamper:
 852              	.LVL59:
 853              	.LFB241:
 465:Drivers/STM32F4xx_HAL_Driver/Src/stm32f4xx_hal_rtc_ex.c **** 
 466:Drivers/STM32F4xx_HAL_Driver/Src/stm32f4xx_hal_rtc_ex.c **** /**
 467:Drivers/STM32F4xx_HAL_Driver/Src/stm32f4xx_hal_rtc_ex.c ****   * @brief  Deactivates Tamper.
 468:Drivers/STM32F4xx_HAL_Driver/Src/stm32f4xx_hal_rtc_ex.c ****   * @param  hrtc pointer to a RTC_HandleTypeDef structure that contains
 469:Drivers/STM32F4xx_HAL_Driver/Src/stm32f4xx_hal_rtc_ex.c ****   *                the configuration information for RTC.
 470:Drivers/STM32F4xx_HAL_Driver/Src/stm32f4xx_hal_rtc_ex.c ****   * @param  Tamper Selected tamper pin.
 471:Drivers/STM32F4xx_HAL_Driver/Src/stm32f4xx_hal_rtc_ex.c ****   *          This parameter can be RTC_Tamper_1 and/or RTC_TAMPER_2.
 472:Drivers/STM32F4xx_HAL_Driver/Src/stm32f4xx_hal_rtc_ex.c ****   * @retval HAL status
 473:Drivers/STM32F4xx_HAL_Driver/Src/stm32f4xx_hal_rtc_ex.c ****   */
ARM GAS  /tmp/cchQ4tcR.s 			page 26


 474:Drivers/STM32F4xx_HAL_Driver/Src/stm32f4xx_hal_rtc_ex.c **** HAL_StatusTypeDef HAL_RTCEx_DeactivateTamper(RTC_HandleTypeDef *hrtc, uint32_t Tamper)
 475:Drivers/STM32F4xx_HAL_Driver/Src/stm32f4xx_hal_rtc_ex.c **** {
 854              		.loc 1 475 1 is_stmt 1 view -0
 855              		.cfi_startproc
 856              		@ args = 0, pretend = 0, frame = 0
 857              		@ frame_needed = 0, uses_anonymous_args = 0
 858              		@ link register save eliminated.
 476:Drivers/STM32F4xx_HAL_Driver/Src/stm32f4xx_hal_rtc_ex.c ****   assert_param(IS_RTC_TAMPER(Tamper));
 859              		.loc 1 476 3 view .LVU325
 477:Drivers/STM32F4xx_HAL_Driver/Src/stm32f4xx_hal_rtc_ex.c **** 
 478:Drivers/STM32F4xx_HAL_Driver/Src/stm32f4xx_hal_rtc_ex.c ****   /* Process Locked */
 479:Drivers/STM32F4xx_HAL_Driver/Src/stm32f4xx_hal_rtc_ex.c ****   __HAL_LOCK(hrtc);
 860              		.loc 1 479 3 view .LVU326
 861              		.loc 1 479 3 view .LVU327
 862 0000 027F     		ldrb	r2, [r0, #28]	@ zero_extendqisi2
 863 0002 012A     		cmp	r2, #1
 475:Drivers/STM32F4xx_HAL_Driver/Src/stm32f4xx_hal_rtc_ex.c ****   assert_param(IS_RTC_TAMPER(Tamper));
 864              		.loc 1 475 1 is_stmt 0 view .LVU328
 865 0004 0346     		mov	r3, r0
 866              		.loc 1 479 3 view .LVU329
 867 0006 0ED0     		beq	.L49
 868              		.loc 1 479 3 is_stmt 1 discriminator 2 view .LVU330
 869              		.loc 1 479 3 discriminator 2 view .LVU331
 480:Drivers/STM32F4xx_HAL_Driver/Src/stm32f4xx_hal_rtc_ex.c **** 
 481:Drivers/STM32F4xx_HAL_Driver/Src/stm32f4xx_hal_rtc_ex.c ****   hrtc->State = HAL_RTC_STATE_BUSY;
 870              		.loc 1 481 3 discriminator 2 view .LVU332
 482:Drivers/STM32F4xx_HAL_Driver/Src/stm32f4xx_hal_rtc_ex.c **** 
 483:Drivers/STM32F4xx_HAL_Driver/Src/stm32f4xx_hal_rtc_ex.c ****   /* Disable the selected Tamper pin */
 484:Drivers/STM32F4xx_HAL_Driver/Src/stm32f4xx_hal_rtc_ex.c ****   hrtc->Instance->TAFCR &= (uint32_t)~Tamper;
 871              		.loc 1 484 7 is_stmt 0 discriminator 2 view .LVU333
 872 0008 0068     		ldr	r0, [r0]
 873              	.LVL60:
 481:Drivers/STM32F4xx_HAL_Driver/Src/stm32f4xx_hal_rtc_ex.c **** 
 874              		.loc 1 481 15 discriminator 2 view .LVU334
 875 000a 0222     		movs	r2, #2
 876 000c 5A77     		strb	r2, [r3, #29]
 877              		.loc 1 484 3 is_stmt 1 discriminator 2 view .LVU335
 878              		.loc 1 484 25 is_stmt 0 discriminator 2 view .LVU336
 879 000e 026C     		ldr	r2, [r0, #64]
 485:Drivers/STM32F4xx_HAL_Driver/Src/stm32f4xx_hal_rtc_ex.c **** 
 486:Drivers/STM32F4xx_HAL_Driver/Src/stm32f4xx_hal_rtc_ex.c ****   hrtc->State = HAL_RTC_STATE_READY;
 487:Drivers/STM32F4xx_HAL_Driver/Src/stm32f4xx_hal_rtc_ex.c **** 
 488:Drivers/STM32F4xx_HAL_Driver/Src/stm32f4xx_hal_rtc_ex.c ****   /* Process Unlocked */
 489:Drivers/STM32F4xx_HAL_Driver/Src/stm32f4xx_hal_rtc_ex.c ****   __HAL_UNLOCK(hrtc);
 880              		.loc 1 489 3 discriminator 2 view .LVU337
 881 0010 4FF0000C 		mov	ip, #0
 484:Drivers/STM32F4xx_HAL_Driver/Src/stm32f4xx_hal_rtc_ex.c **** 
 882              		.loc 1 484 25 discriminator 2 view .LVU338
 883 0014 22EA0101 		bic	r1, r2, r1
 884              	.LVL61:
 486:Drivers/STM32F4xx_HAL_Driver/Src/stm32f4xx_hal_rtc_ex.c **** 
 885              		.loc 1 486 15 discriminator 2 view .LVU339
 886 0018 0122     		movs	r2, #1
 484:Drivers/STM32F4xx_HAL_Driver/Src/stm32f4xx_hal_rtc_ex.c **** 
 887              		.loc 1 484 25 discriminator 2 view .LVU340
 888 001a 0164     		str	r1, [r0, #64]
 486:Drivers/STM32F4xx_HAL_Driver/Src/stm32f4xx_hal_rtc_ex.c **** 
ARM GAS  /tmp/cchQ4tcR.s 			page 27


 889              		.loc 1 486 3 is_stmt 1 discriminator 2 view .LVU341
 490:Drivers/STM32F4xx_HAL_Driver/Src/stm32f4xx_hal_rtc_ex.c **** 
 491:Drivers/STM32F4xx_HAL_Driver/Src/stm32f4xx_hal_rtc_ex.c ****   return HAL_OK;
 890              		.loc 1 491 10 is_stmt 0 discriminator 2 view .LVU342
 891 001c 6046     		mov	r0, ip
 486:Drivers/STM32F4xx_HAL_Driver/Src/stm32f4xx_hal_rtc_ex.c **** 
 892              		.loc 1 486 15 discriminator 2 view .LVU343
 893 001e 5A77     		strb	r2, [r3, #29]
 489:Drivers/STM32F4xx_HAL_Driver/Src/stm32f4xx_hal_rtc_ex.c **** 
 894              		.loc 1 489 3 is_stmt 1 discriminator 2 view .LVU344
 489:Drivers/STM32F4xx_HAL_Driver/Src/stm32f4xx_hal_rtc_ex.c **** 
 895              		.loc 1 489 3 discriminator 2 view .LVU345
 896 0020 83F81CC0 		strb	ip, [r3, #28]
 489:Drivers/STM32F4xx_HAL_Driver/Src/stm32f4xx_hal_rtc_ex.c **** 
 897              		.loc 1 489 3 discriminator 2 view .LVU346
 898              		.loc 1 491 3 discriminator 2 view .LVU347
 899              		.loc 1 491 10 is_stmt 0 discriminator 2 view .LVU348
 900 0024 7047     		bx	lr
 901              	.LVL62:
 902              	.L49:
 479:Drivers/STM32F4xx_HAL_Driver/Src/stm32f4xx_hal_rtc_ex.c **** 
 903              		.loc 1 479 3 view .LVU349
 904 0026 0220     		movs	r0, #2
 905              	.LVL63:
 492:Drivers/STM32F4xx_HAL_Driver/Src/stm32f4xx_hal_rtc_ex.c **** }
 906              		.loc 1 492 1 view .LVU350
 907 0028 7047     		bx	lr
 908              		.cfi_endproc
 909              	.LFE241:
 911 002a 00BF     		.section	.text.HAL_RTCEx_TimeStampEventCallback,"ax",%progbits
 912              		.align	1
 913              		.p2align 2,,3
 914              		.weak	HAL_RTCEx_TimeStampEventCallback
 915              		.syntax unified
 916              		.thumb
 917              		.thumb_func
 919              	HAL_RTCEx_TimeStampEventCallback:
 920              	.LFB273:
 921              		.cfi_startproc
 922              		@ args = 0, pretend = 0, frame = 0
 923              		@ frame_needed = 0, uses_anonymous_args = 0
 924              		@ link register save eliminated.
 925 0000 7047     		bx	lr
 926              		.cfi_endproc
 927              	.LFE273:
 929 0002 00BF     		.section	.text.HAL_RTCEx_Tamper1EventCallback,"ax",%progbits
 930              		.align	1
 931              		.p2align 2,,3
 932              		.weak	HAL_RTCEx_Tamper1EventCallback
 933              		.syntax unified
 934              		.thumb
 935              		.thumb_func
 937              	HAL_RTCEx_Tamper1EventCallback:
 938              	.LVL64:
 939              	.LFB244:
 493:Drivers/STM32F4xx_HAL_Driver/Src/stm32f4xx_hal_rtc_ex.c **** 
 494:Drivers/STM32F4xx_HAL_Driver/Src/stm32f4xx_hal_rtc_ex.c **** /**
ARM GAS  /tmp/cchQ4tcR.s 			page 28


 495:Drivers/STM32F4xx_HAL_Driver/Src/stm32f4xx_hal_rtc_ex.c ****   * @brief  This function handles TimeStamp interrupt request.
 496:Drivers/STM32F4xx_HAL_Driver/Src/stm32f4xx_hal_rtc_ex.c ****   * @param  hrtc pointer to a RTC_HandleTypeDef structure that contains
 497:Drivers/STM32F4xx_HAL_Driver/Src/stm32f4xx_hal_rtc_ex.c ****   *                the configuration information for RTC.
 498:Drivers/STM32F4xx_HAL_Driver/Src/stm32f4xx_hal_rtc_ex.c ****   * @retval None
 499:Drivers/STM32F4xx_HAL_Driver/Src/stm32f4xx_hal_rtc_ex.c ****   */
 500:Drivers/STM32F4xx_HAL_Driver/Src/stm32f4xx_hal_rtc_ex.c **** void HAL_RTCEx_TamperTimeStampIRQHandler(RTC_HandleTypeDef *hrtc)
 501:Drivers/STM32F4xx_HAL_Driver/Src/stm32f4xx_hal_rtc_ex.c **** {
 502:Drivers/STM32F4xx_HAL_Driver/Src/stm32f4xx_hal_rtc_ex.c ****   /* Get the TimeStamp interrupt source enable status */
 503:Drivers/STM32F4xx_HAL_Driver/Src/stm32f4xx_hal_rtc_ex.c ****   if(__HAL_RTC_TIMESTAMP_GET_IT_SOURCE(hrtc, RTC_IT_TS) != (uint32_t)RESET)
 504:Drivers/STM32F4xx_HAL_Driver/Src/stm32f4xx_hal_rtc_ex.c ****   {
 505:Drivers/STM32F4xx_HAL_Driver/Src/stm32f4xx_hal_rtc_ex.c ****     /* Get the pending status of the TIMESTAMP Interrupt */
 506:Drivers/STM32F4xx_HAL_Driver/Src/stm32f4xx_hal_rtc_ex.c ****     if(__HAL_RTC_TIMESTAMP_GET_FLAG(hrtc, RTC_FLAG_TSF) != (uint32_t)RESET)
 507:Drivers/STM32F4xx_HAL_Driver/Src/stm32f4xx_hal_rtc_ex.c ****     {
 508:Drivers/STM32F4xx_HAL_Driver/Src/stm32f4xx_hal_rtc_ex.c ****       /* TIMESTAMP callback */
 509:Drivers/STM32F4xx_HAL_Driver/Src/stm32f4xx_hal_rtc_ex.c **** #if (USE_HAL_RTC_REGISTER_CALLBACKS == 1)
 510:Drivers/STM32F4xx_HAL_Driver/Src/stm32f4xx_hal_rtc_ex.c ****       hrtc->TimeStampEventCallback(hrtc);
 511:Drivers/STM32F4xx_HAL_Driver/Src/stm32f4xx_hal_rtc_ex.c **** #else
 512:Drivers/STM32F4xx_HAL_Driver/Src/stm32f4xx_hal_rtc_ex.c ****       HAL_RTCEx_TimeStampEventCallback(hrtc);
 513:Drivers/STM32F4xx_HAL_Driver/Src/stm32f4xx_hal_rtc_ex.c **** #endif /* USE_HAL_RTC_REGISTER_CALLBACKS */
 514:Drivers/STM32F4xx_HAL_Driver/Src/stm32f4xx_hal_rtc_ex.c **** 
 515:Drivers/STM32F4xx_HAL_Driver/Src/stm32f4xx_hal_rtc_ex.c ****       /* Clear the TIMESTAMP interrupt pending bit */
 516:Drivers/STM32F4xx_HAL_Driver/Src/stm32f4xx_hal_rtc_ex.c ****       __HAL_RTC_TIMESTAMP_CLEAR_FLAG(hrtc,RTC_FLAG_TSF);
 517:Drivers/STM32F4xx_HAL_Driver/Src/stm32f4xx_hal_rtc_ex.c ****     }
 518:Drivers/STM32F4xx_HAL_Driver/Src/stm32f4xx_hal_rtc_ex.c ****   }
 519:Drivers/STM32F4xx_HAL_Driver/Src/stm32f4xx_hal_rtc_ex.c **** 
 520:Drivers/STM32F4xx_HAL_Driver/Src/stm32f4xx_hal_rtc_ex.c ****   /* Get the Tamper1 interrupt source enable status */
 521:Drivers/STM32F4xx_HAL_Driver/Src/stm32f4xx_hal_rtc_ex.c ****   if(__HAL_RTC_TAMPER_GET_IT_SOURCE(hrtc, RTC_IT_TAMP) != (uint32_t)RESET)
 522:Drivers/STM32F4xx_HAL_Driver/Src/stm32f4xx_hal_rtc_ex.c ****   {
 523:Drivers/STM32F4xx_HAL_Driver/Src/stm32f4xx_hal_rtc_ex.c ****     /* Get the pending status of the Tamper1 Interrupt */
 524:Drivers/STM32F4xx_HAL_Driver/Src/stm32f4xx_hal_rtc_ex.c ****     if(__HAL_RTC_TAMPER_GET_FLAG(hrtc, RTC_FLAG_TAMP1F) != (uint32_t)RESET)
 525:Drivers/STM32F4xx_HAL_Driver/Src/stm32f4xx_hal_rtc_ex.c ****     {
 526:Drivers/STM32F4xx_HAL_Driver/Src/stm32f4xx_hal_rtc_ex.c ****       /* Tamper callback */
 527:Drivers/STM32F4xx_HAL_Driver/Src/stm32f4xx_hal_rtc_ex.c **** #if (USE_HAL_RTC_REGISTER_CALLBACKS == 1)
 528:Drivers/STM32F4xx_HAL_Driver/Src/stm32f4xx_hal_rtc_ex.c ****       hrtc->Tamper1EventCallback(hrtc);
 529:Drivers/STM32F4xx_HAL_Driver/Src/stm32f4xx_hal_rtc_ex.c **** #else
 530:Drivers/STM32F4xx_HAL_Driver/Src/stm32f4xx_hal_rtc_ex.c ****       HAL_RTCEx_Tamper1EventCallback(hrtc);
 531:Drivers/STM32F4xx_HAL_Driver/Src/stm32f4xx_hal_rtc_ex.c **** #endif /* USE_HAL_RTC_REGISTER_CALLBACKS */
 532:Drivers/STM32F4xx_HAL_Driver/Src/stm32f4xx_hal_rtc_ex.c **** 
 533:Drivers/STM32F4xx_HAL_Driver/Src/stm32f4xx_hal_rtc_ex.c ****       /* Clear the Tamper interrupt pending bit */
 534:Drivers/STM32F4xx_HAL_Driver/Src/stm32f4xx_hal_rtc_ex.c ****       __HAL_RTC_TAMPER_CLEAR_FLAG(hrtc,RTC_FLAG_TAMP1F);
 535:Drivers/STM32F4xx_HAL_Driver/Src/stm32f4xx_hal_rtc_ex.c ****     }
 536:Drivers/STM32F4xx_HAL_Driver/Src/stm32f4xx_hal_rtc_ex.c ****   }
 537:Drivers/STM32F4xx_HAL_Driver/Src/stm32f4xx_hal_rtc_ex.c **** 
 538:Drivers/STM32F4xx_HAL_Driver/Src/stm32f4xx_hal_rtc_ex.c ****   /* Get the Tamper2 interrupt source enable status */
 539:Drivers/STM32F4xx_HAL_Driver/Src/stm32f4xx_hal_rtc_ex.c ****   if(__HAL_RTC_TAMPER_GET_IT_SOURCE(hrtc, RTC_IT_TAMP) != (uint32_t)RESET)
 540:Drivers/STM32F4xx_HAL_Driver/Src/stm32f4xx_hal_rtc_ex.c ****   {
 541:Drivers/STM32F4xx_HAL_Driver/Src/stm32f4xx_hal_rtc_ex.c ****     /* Get the pending status of the Tamper2 Interrupt */
 542:Drivers/STM32F4xx_HAL_Driver/Src/stm32f4xx_hal_rtc_ex.c ****     if(__HAL_RTC_TAMPER_GET_FLAG(hrtc, RTC_FLAG_TAMP2F) != (uint32_t)RESET)
 543:Drivers/STM32F4xx_HAL_Driver/Src/stm32f4xx_hal_rtc_ex.c ****     {
 544:Drivers/STM32F4xx_HAL_Driver/Src/stm32f4xx_hal_rtc_ex.c ****       /* Tamper callback */
 545:Drivers/STM32F4xx_HAL_Driver/Src/stm32f4xx_hal_rtc_ex.c **** #if (USE_HAL_RTC_REGISTER_CALLBACKS == 1)
 546:Drivers/STM32F4xx_HAL_Driver/Src/stm32f4xx_hal_rtc_ex.c ****       hrtc->Tamper2EventCallback(hrtc);
 547:Drivers/STM32F4xx_HAL_Driver/Src/stm32f4xx_hal_rtc_ex.c **** #else
 548:Drivers/STM32F4xx_HAL_Driver/Src/stm32f4xx_hal_rtc_ex.c ****       HAL_RTCEx_Tamper2EventCallback(hrtc);
 549:Drivers/STM32F4xx_HAL_Driver/Src/stm32f4xx_hal_rtc_ex.c **** #endif /* USE_HAL_RTC_REGISTER_CALLBACKS */
 550:Drivers/STM32F4xx_HAL_Driver/Src/stm32f4xx_hal_rtc_ex.c **** 
 551:Drivers/STM32F4xx_HAL_Driver/Src/stm32f4xx_hal_rtc_ex.c ****       /* Clear the Tamper interrupt pending bit */
ARM GAS  /tmp/cchQ4tcR.s 			page 29


 552:Drivers/STM32F4xx_HAL_Driver/Src/stm32f4xx_hal_rtc_ex.c ****       __HAL_RTC_TAMPER_CLEAR_FLAG(hrtc, RTC_FLAG_TAMP2F);
 553:Drivers/STM32F4xx_HAL_Driver/Src/stm32f4xx_hal_rtc_ex.c ****     }
 554:Drivers/STM32F4xx_HAL_Driver/Src/stm32f4xx_hal_rtc_ex.c ****   }
 555:Drivers/STM32F4xx_HAL_Driver/Src/stm32f4xx_hal_rtc_ex.c **** 
 556:Drivers/STM32F4xx_HAL_Driver/Src/stm32f4xx_hal_rtc_ex.c ****   /* Clear the EXTI's Flag for RTC TimeStamp and Tamper */
 557:Drivers/STM32F4xx_HAL_Driver/Src/stm32f4xx_hal_rtc_ex.c ****   __HAL_RTC_TAMPER_TIMESTAMP_EXTI_CLEAR_FLAG();
 558:Drivers/STM32F4xx_HAL_Driver/Src/stm32f4xx_hal_rtc_ex.c **** 
 559:Drivers/STM32F4xx_HAL_Driver/Src/stm32f4xx_hal_rtc_ex.c ****   /* Change RTC state */
 560:Drivers/STM32F4xx_HAL_Driver/Src/stm32f4xx_hal_rtc_ex.c ****   hrtc->State = HAL_RTC_STATE_READY;
 561:Drivers/STM32F4xx_HAL_Driver/Src/stm32f4xx_hal_rtc_ex.c **** }
 562:Drivers/STM32F4xx_HAL_Driver/Src/stm32f4xx_hal_rtc_ex.c **** 
 563:Drivers/STM32F4xx_HAL_Driver/Src/stm32f4xx_hal_rtc_ex.c **** /**
 564:Drivers/STM32F4xx_HAL_Driver/Src/stm32f4xx_hal_rtc_ex.c ****   * @brief  TimeStamp callback.
 565:Drivers/STM32F4xx_HAL_Driver/Src/stm32f4xx_hal_rtc_ex.c ****   * @param  hrtc pointer to a RTC_HandleTypeDef structure that contains
 566:Drivers/STM32F4xx_HAL_Driver/Src/stm32f4xx_hal_rtc_ex.c ****   *                the configuration information for RTC.
 567:Drivers/STM32F4xx_HAL_Driver/Src/stm32f4xx_hal_rtc_ex.c ****   * @retval None
 568:Drivers/STM32F4xx_HAL_Driver/Src/stm32f4xx_hal_rtc_ex.c ****   */
 569:Drivers/STM32F4xx_HAL_Driver/Src/stm32f4xx_hal_rtc_ex.c **** __weak void HAL_RTCEx_TimeStampEventCallback(RTC_HandleTypeDef *hrtc)
 570:Drivers/STM32F4xx_HAL_Driver/Src/stm32f4xx_hal_rtc_ex.c **** {
 571:Drivers/STM32F4xx_HAL_Driver/Src/stm32f4xx_hal_rtc_ex.c ****   /* Prevent unused argument(s) compilation warning */
 572:Drivers/STM32F4xx_HAL_Driver/Src/stm32f4xx_hal_rtc_ex.c ****   UNUSED(hrtc);
 573:Drivers/STM32F4xx_HAL_Driver/Src/stm32f4xx_hal_rtc_ex.c ****   /* NOTE : This function Should not be modified, when the callback is needed,
 574:Drivers/STM32F4xx_HAL_Driver/Src/stm32f4xx_hal_rtc_ex.c ****             the HAL_RTC_TimeStampEventCallback could be implemented in the user file
 575:Drivers/STM32F4xx_HAL_Driver/Src/stm32f4xx_hal_rtc_ex.c ****   */
 576:Drivers/STM32F4xx_HAL_Driver/Src/stm32f4xx_hal_rtc_ex.c **** }
 577:Drivers/STM32F4xx_HAL_Driver/Src/stm32f4xx_hal_rtc_ex.c **** 
 578:Drivers/STM32F4xx_HAL_Driver/Src/stm32f4xx_hal_rtc_ex.c **** /**
 579:Drivers/STM32F4xx_HAL_Driver/Src/stm32f4xx_hal_rtc_ex.c ****   * @brief  Tamper 1 callback.
 580:Drivers/STM32F4xx_HAL_Driver/Src/stm32f4xx_hal_rtc_ex.c ****   * @param  hrtc pointer to a RTC_HandleTypeDef structure that contains
 581:Drivers/STM32F4xx_HAL_Driver/Src/stm32f4xx_hal_rtc_ex.c ****   *                the configuration information for RTC.
 582:Drivers/STM32F4xx_HAL_Driver/Src/stm32f4xx_hal_rtc_ex.c ****   * @retval None
 583:Drivers/STM32F4xx_HAL_Driver/Src/stm32f4xx_hal_rtc_ex.c ****   */
 584:Drivers/STM32F4xx_HAL_Driver/Src/stm32f4xx_hal_rtc_ex.c **** __weak void HAL_RTCEx_Tamper1EventCallback(RTC_HandleTypeDef *hrtc)
 585:Drivers/STM32F4xx_HAL_Driver/Src/stm32f4xx_hal_rtc_ex.c **** {
 940              		.loc 1 585 1 is_stmt 1 view -0
 941              		.cfi_startproc
 942              		@ args = 0, pretend = 0, frame = 0
 943              		@ frame_needed = 0, uses_anonymous_args = 0
 944              		@ link register save eliminated.
 586:Drivers/STM32F4xx_HAL_Driver/Src/stm32f4xx_hal_rtc_ex.c ****   /* Prevent unused argument(s) compilation warning */
 587:Drivers/STM32F4xx_HAL_Driver/Src/stm32f4xx_hal_rtc_ex.c ****   UNUSED(hrtc);
 945              		.loc 1 587 3 view .LVU352
 588:Drivers/STM32F4xx_HAL_Driver/Src/stm32f4xx_hal_rtc_ex.c ****   /* NOTE : This function Should not be modified, when the callback is needed,
 589:Drivers/STM32F4xx_HAL_Driver/Src/stm32f4xx_hal_rtc_ex.c ****             the HAL_RTC_Tamper1EventCallback could be implemented in the user file
 590:Drivers/STM32F4xx_HAL_Driver/Src/stm32f4xx_hal_rtc_ex.c ****    */
 591:Drivers/STM32F4xx_HAL_Driver/Src/stm32f4xx_hal_rtc_ex.c **** }
 946              		.loc 1 591 1 is_stmt 0 view .LVU353
 947 0000 7047     		bx	lr
 948              		.cfi_endproc
 949              	.LFE244:
 951 0002 00BF     		.section	.text.HAL_RTCEx_Tamper2EventCallback,"ax",%progbits
 952              		.align	1
 953              		.p2align 2,,3
 954              		.weak	HAL_RTCEx_Tamper2EventCallback
 955              		.syntax unified
 956              		.thumb
 957              		.thumb_func
ARM GAS  /tmp/cchQ4tcR.s 			page 30


 959              	HAL_RTCEx_Tamper2EventCallback:
 960              	.LFB271:
 961              		.cfi_startproc
 962              		@ args = 0, pretend = 0, frame = 0
 963              		@ frame_needed = 0, uses_anonymous_args = 0
 964              		@ link register save eliminated.
 965 0000 7047     		bx	lr
 966              		.cfi_endproc
 967              	.LFE271:
 969 0002 00BF     		.section	.text.HAL_RTCEx_TamperTimeStampIRQHandler,"ax",%progbits
 970              		.align	1
 971              		.p2align 2,,3
 972              		.global	HAL_RTCEx_TamperTimeStampIRQHandler
 973              		.syntax unified
 974              		.thumb
 975              		.thumb_func
 977              	HAL_RTCEx_TamperTimeStampIRQHandler:
 978              	.LVL65:
 979              	.LFB242:
 501:Drivers/STM32F4xx_HAL_Driver/Src/stm32f4xx_hal_rtc_ex.c ****   /* Get the TimeStamp interrupt source enable status */
 980              		.loc 1 501 1 is_stmt 1 view -0
 981              		.cfi_startproc
 982              		@ args = 0, pretend = 0, frame = 0
 983              		@ frame_needed = 0, uses_anonymous_args = 0
 503:Drivers/STM32F4xx_HAL_Driver/Src/stm32f4xx_hal_rtc_ex.c ****   {
 984              		.loc 1 503 3 view .LVU355
 503:Drivers/STM32F4xx_HAL_Driver/Src/stm32f4xx_hal_rtc_ex.c ****   {
 985              		.loc 1 503 6 is_stmt 0 view .LVU356
 986 0000 0368     		ldr	r3, [r0]
 987 0002 9A68     		ldr	r2, [r3, #8]
 503:Drivers/STM32F4xx_HAL_Driver/Src/stm32f4xx_hal_rtc_ex.c ****   {
 988              		.loc 1 503 5 view .LVU357
 989 0004 1104     		lsls	r1, r2, #16
 501:Drivers/STM32F4xx_HAL_Driver/Src/stm32f4xx_hal_rtc_ex.c ****   /* Get the TimeStamp interrupt source enable status */
 990              		.loc 1 501 1 view .LVU358
 991 0006 10B5     		push	{r4, lr}
 992              		.cfi_def_cfa_offset 8
 993              		.cfi_offset 4, -8
 994              		.cfi_offset 14, -4
 501:Drivers/STM32F4xx_HAL_Driver/Src/stm32f4xx_hal_rtc_ex.c ****   /* Get the TimeStamp interrupt source enable status */
 995              		.loc 1 501 1 view .LVU359
 996 0008 0446     		mov	r4, r0
 503:Drivers/STM32F4xx_HAL_Driver/Src/stm32f4xx_hal_rtc_ex.c ****   {
 997              		.loc 1 503 5 view .LVU360
 998 000a 02D5     		bpl	.L54
 506:Drivers/STM32F4xx_HAL_Driver/Src/stm32f4xx_hal_rtc_ex.c ****     {
 999              		.loc 1 506 5 is_stmt 1 view .LVU361
 506:Drivers/STM32F4xx_HAL_Driver/Src/stm32f4xx_hal_rtc_ex.c ****     {
 1000              		.loc 1 506 8 is_stmt 0 view .LVU362
 1001 000c DA68     		ldr	r2, [r3, #12]
 506:Drivers/STM32F4xx_HAL_Driver/Src/stm32f4xx_hal_rtc_ex.c ****     {
 1002              		.loc 1 506 7 view .LVU363
 1003 000e 1205     		lsls	r2, r2, #20
 1004 0010 1CD4     		bmi	.L76
 1005              	.LVL66:
 1006              	.L54:
 521:Drivers/STM32F4xx_HAL_Driver/Src/stm32f4xx_hal_rtc_ex.c ****   {
ARM GAS  /tmp/cchQ4tcR.s 			page 31


 1007              		.loc 1 521 3 is_stmt 1 view .LVU364
 521:Drivers/STM32F4xx_HAL_Driver/Src/stm32f4xx_hal_rtc_ex.c ****   {
 1008              		.loc 1 521 6 is_stmt 0 view .LVU365
 1009 0012 1A6C     		ldr	r2, [r3, #64]
 521:Drivers/STM32F4xx_HAL_Driver/Src/stm32f4xx_hal_rtc_ex.c ****   {
 1010              		.loc 1 521 5 view .LVU366
 1011 0014 5007     		lsls	r0, r2, #29
 1012 0016 02D5     		bpl	.L55
 524:Drivers/STM32F4xx_HAL_Driver/Src/stm32f4xx_hal_rtc_ex.c ****     {
 1013              		.loc 1 524 5 is_stmt 1 view .LVU367
 524:Drivers/STM32F4xx_HAL_Driver/Src/stm32f4xx_hal_rtc_ex.c ****     {
 1014              		.loc 1 524 8 is_stmt 0 view .LVU368
 1015 0018 DA68     		ldr	r2, [r3, #12]
 524:Drivers/STM32F4xx_HAL_Driver/Src/stm32f4xx_hal_rtc_ex.c ****     {
 1016              		.loc 1 524 7 view .LVU369
 1017 001a 9104     		lsls	r1, r2, #18
 1018 001c 1FD4     		bmi	.L77
 1019              	.L55:
 539:Drivers/STM32F4xx_HAL_Driver/Src/stm32f4xx_hal_rtc_ex.c ****   {
 1020              		.loc 1 539 3 is_stmt 1 view .LVU370
 539:Drivers/STM32F4xx_HAL_Driver/Src/stm32f4xx_hal_rtc_ex.c ****   {
 1021              		.loc 1 539 6 is_stmt 0 view .LVU371
 1022 001e 1A6C     		ldr	r2, [r3, #64]
 539:Drivers/STM32F4xx_HAL_Driver/Src/stm32f4xx_hal_rtc_ex.c ****   {
 1023              		.loc 1 539 5 view .LVU372
 1024 0020 5207     		lsls	r2, r2, #29
 1025 0022 02D5     		bpl	.L56
 542:Drivers/STM32F4xx_HAL_Driver/Src/stm32f4xx_hal_rtc_ex.c ****     {
 1026              		.loc 1 542 5 is_stmt 1 view .LVU373
 542:Drivers/STM32F4xx_HAL_Driver/Src/stm32f4xx_hal_rtc_ex.c ****     {
 1027              		.loc 1 542 8 is_stmt 0 view .LVU374
 1028 0024 DB68     		ldr	r3, [r3, #12]
 542:Drivers/STM32F4xx_HAL_Driver/Src/stm32f4xx_hal_rtc_ex.c ****     {
 1029              		.loc 1 542 7 view .LVU375
 1030 0026 5B04     		lsls	r3, r3, #17
 1031 0028 06D4     		bmi	.L78
 1032              	.L56:
 557:Drivers/STM32F4xx_HAL_Driver/Src/stm32f4xx_hal_rtc_ex.c **** 
 1033              		.loc 1 557 3 is_stmt 1 view .LVU376
 1034 002a 124A     		ldr	r2, .L79
 1035 002c 4FF40011 		mov	r1, #2097152
 560:Drivers/STM32F4xx_HAL_Driver/Src/stm32f4xx_hal_rtc_ex.c **** }
 1036              		.loc 1 560 15 is_stmt 0 view .LVU377
 1037 0030 0123     		movs	r3, #1
 557:Drivers/STM32F4xx_HAL_Driver/Src/stm32f4xx_hal_rtc_ex.c **** 
 1038              		.loc 1 557 3 view .LVU378
 1039 0032 5161     		str	r1, [r2, #20]
 560:Drivers/STM32F4xx_HAL_Driver/Src/stm32f4xx_hal_rtc_ex.c **** }
 1040              		.loc 1 560 3 is_stmt 1 view .LVU379
 560:Drivers/STM32F4xx_HAL_Driver/Src/stm32f4xx_hal_rtc_ex.c **** }
 1041              		.loc 1 560 15 is_stmt 0 view .LVU380
 1042 0034 6377     		strb	r3, [r4, #29]
 561:Drivers/STM32F4xx_HAL_Driver/Src/stm32f4xx_hal_rtc_ex.c **** 
 1043              		.loc 1 561 1 view .LVU381
 1044 0036 10BD     		pop	{r4, pc}
 1045              	.LVL67:
 1046              	.L78:
ARM GAS  /tmp/cchQ4tcR.s 			page 32


 548:Drivers/STM32F4xx_HAL_Driver/Src/stm32f4xx_hal_rtc_ex.c **** #endif /* USE_HAL_RTC_REGISTER_CALLBACKS */
 1047              		.loc 1 548 7 is_stmt 1 view .LVU382
 1048 0038 2046     		mov	r0, r4
 1049 003a FFF7FEFF 		bl	HAL_RTCEx_Tamper2EventCallback
 1050              	.LVL68:
 552:Drivers/STM32F4xx_HAL_Driver/Src/stm32f4xx_hal_rtc_ex.c ****     }
 1051              		.loc 1 552 7 view .LVU383
 1052 003e 2268     		ldr	r2, [r4]
 1053 0040 D368     		ldr	r3, [r2, #12]
 1054 0042 DBB2     		uxtb	r3, r3
 1055 0044 63F48143 		orn	r3, r3, #16512
 1056 0048 D360     		str	r3, [r2, #12]
 1057 004a EEE7     		b	.L56
 1058              	.LVL69:
 1059              	.L76:
 512:Drivers/STM32F4xx_HAL_Driver/Src/stm32f4xx_hal_rtc_ex.c **** #endif /* USE_HAL_RTC_REGISTER_CALLBACKS */
 1060              		.loc 1 512 7 view .LVU384
 1061 004c FFF7FEFF 		bl	HAL_RTCEx_TimeStampEventCallback
 1062              	.LVL70:
 516:Drivers/STM32F4xx_HAL_Driver/Src/stm32f4xx_hal_rtc_ex.c ****     }
 1063              		.loc 1 516 7 view .LVU385
 1064 0050 2368     		ldr	r3, [r4]
 1065 0052 DA68     		ldr	r2, [r3, #12]
 1066 0054 D2B2     		uxtb	r2, r2
 1067 0056 62F40862 		orn	r2, r2, #2176
 1068 005a DA60     		str	r2, [r3, #12]
 1069 005c D9E7     		b	.L54
 1070              	.L77:
 530:Drivers/STM32F4xx_HAL_Driver/Src/stm32f4xx_hal_rtc_ex.c **** #endif /* USE_HAL_RTC_REGISTER_CALLBACKS */
 1071              		.loc 1 530 7 view .LVU386
 1072 005e 2046     		mov	r0, r4
 1073 0060 FFF7FEFF 		bl	HAL_RTCEx_Tamper1EventCallback
 1074              	.LVL71:
 534:Drivers/STM32F4xx_HAL_Driver/Src/stm32f4xx_hal_rtc_ex.c ****     }
 1075              		.loc 1 534 7 view .LVU387
 1076 0064 2368     		ldr	r3, [r4]
 1077 0066 DA68     		ldr	r2, [r3, #12]
 1078 0068 D2B2     		uxtb	r2, r2
 1079 006a 62F40252 		orn	r2, r2, #8320
 1080 006e DA60     		str	r2, [r3, #12]
 1081 0070 D5E7     		b	.L55
 1082              	.L80:
 1083 0072 00BF     		.align	2
 1084              	.L79:
 1085 0074 003C0140 		.word	1073822720
 1086              		.cfi_endproc
 1087              	.LFE242:
 1089              		.section	.text.HAL_RTCEx_PollForTimeStampEvent,"ax",%progbits
 1090              		.align	1
 1091              		.p2align 2,,3
 1092              		.global	HAL_RTCEx_PollForTimeStampEvent
 1093              		.syntax unified
 1094              		.thumb
 1095              		.thumb_func
 1097              	HAL_RTCEx_PollForTimeStampEvent:
 1098              	.LVL72:
 1099              	.LFB246:
ARM GAS  /tmp/cchQ4tcR.s 			page 33


 592:Drivers/STM32F4xx_HAL_Driver/Src/stm32f4xx_hal_rtc_ex.c **** 
 593:Drivers/STM32F4xx_HAL_Driver/Src/stm32f4xx_hal_rtc_ex.c **** /**
 594:Drivers/STM32F4xx_HAL_Driver/Src/stm32f4xx_hal_rtc_ex.c ****   * @brief  Tamper 2 callback.
 595:Drivers/STM32F4xx_HAL_Driver/Src/stm32f4xx_hal_rtc_ex.c ****   * @param  hrtc pointer to a RTC_HandleTypeDef structure that contains
 596:Drivers/STM32F4xx_HAL_Driver/Src/stm32f4xx_hal_rtc_ex.c ****   *                the configuration information for RTC.
 597:Drivers/STM32F4xx_HAL_Driver/Src/stm32f4xx_hal_rtc_ex.c ****   * @retval None
 598:Drivers/STM32F4xx_HAL_Driver/Src/stm32f4xx_hal_rtc_ex.c ****   */
 599:Drivers/STM32F4xx_HAL_Driver/Src/stm32f4xx_hal_rtc_ex.c **** __weak void HAL_RTCEx_Tamper2EventCallback(RTC_HandleTypeDef *hrtc)
 600:Drivers/STM32F4xx_HAL_Driver/Src/stm32f4xx_hal_rtc_ex.c **** {
 601:Drivers/STM32F4xx_HAL_Driver/Src/stm32f4xx_hal_rtc_ex.c ****   /* Prevent unused argument(s) compilation warning */
 602:Drivers/STM32F4xx_HAL_Driver/Src/stm32f4xx_hal_rtc_ex.c ****   UNUSED(hrtc);
 603:Drivers/STM32F4xx_HAL_Driver/Src/stm32f4xx_hal_rtc_ex.c ****   /* NOTE : This function Should not be modified, when the callback is needed,
 604:Drivers/STM32F4xx_HAL_Driver/Src/stm32f4xx_hal_rtc_ex.c ****             the HAL_RTC_Tamper2EventCallback could be implemented in the user file
 605:Drivers/STM32F4xx_HAL_Driver/Src/stm32f4xx_hal_rtc_ex.c ****    */
 606:Drivers/STM32F4xx_HAL_Driver/Src/stm32f4xx_hal_rtc_ex.c **** }
 607:Drivers/STM32F4xx_HAL_Driver/Src/stm32f4xx_hal_rtc_ex.c **** 
 608:Drivers/STM32F4xx_HAL_Driver/Src/stm32f4xx_hal_rtc_ex.c **** /**
 609:Drivers/STM32F4xx_HAL_Driver/Src/stm32f4xx_hal_rtc_ex.c ****   * @brief  This function handles TimeStamp polling request.
 610:Drivers/STM32F4xx_HAL_Driver/Src/stm32f4xx_hal_rtc_ex.c ****   * @param  hrtc pointer to a RTC_HandleTypeDef structure that contains
 611:Drivers/STM32F4xx_HAL_Driver/Src/stm32f4xx_hal_rtc_ex.c ****   *                the configuration information for RTC.
 612:Drivers/STM32F4xx_HAL_Driver/Src/stm32f4xx_hal_rtc_ex.c ****   * @param  Timeout Timeout duration
 613:Drivers/STM32F4xx_HAL_Driver/Src/stm32f4xx_hal_rtc_ex.c ****   * @retval HAL status
 614:Drivers/STM32F4xx_HAL_Driver/Src/stm32f4xx_hal_rtc_ex.c ****   */
 615:Drivers/STM32F4xx_HAL_Driver/Src/stm32f4xx_hal_rtc_ex.c **** HAL_StatusTypeDef HAL_RTCEx_PollForTimeStampEvent(RTC_HandleTypeDef *hrtc, uint32_t Timeout)
 616:Drivers/STM32F4xx_HAL_Driver/Src/stm32f4xx_hal_rtc_ex.c **** {
 1100              		.loc 1 616 1 view -0
 1101              		.cfi_startproc
 1102              		@ args = 0, pretend = 0, frame = 0
 1103              		@ frame_needed = 0, uses_anonymous_args = 0
 617:Drivers/STM32F4xx_HAL_Driver/Src/stm32f4xx_hal_rtc_ex.c ****   uint32_t tickstart = 0U;
 1104              		.loc 1 617 3 view .LVU389
 618:Drivers/STM32F4xx_HAL_Driver/Src/stm32f4xx_hal_rtc_ex.c **** 
 619:Drivers/STM32F4xx_HAL_Driver/Src/stm32f4xx_hal_rtc_ex.c ****   /* Get tick */
 620:Drivers/STM32F4xx_HAL_Driver/Src/stm32f4xx_hal_rtc_ex.c ****   tickstart = HAL_GetTick();
 1105              		.loc 1 620 3 view .LVU390
 616:Drivers/STM32F4xx_HAL_Driver/Src/stm32f4xx_hal_rtc_ex.c ****   uint32_t tickstart = 0U;
 1106              		.loc 1 616 1 is_stmt 0 view .LVU391
 1107 0000 70B5     		push	{r4, r5, r6, lr}
 1108              		.cfi_def_cfa_offset 16
 1109              		.cfi_offset 4, -16
 1110              		.cfi_offset 5, -12
 1111              		.cfi_offset 6, -8
 1112              		.cfi_offset 14, -4
 616:Drivers/STM32F4xx_HAL_Driver/Src/stm32f4xx_hal_rtc_ex.c ****   uint32_t tickstart = 0U;
 1113              		.loc 1 616 1 view .LVU392
 1114 0002 0546     		mov	r5, r0
 1115 0004 0C46     		mov	r4, r1
 1116              		.loc 1 620 15 view .LVU393
 1117 0006 FFF7FEFF 		bl	HAL_GetTick
 1118              	.LVL73:
 1119              		.loc 1 620 15 view .LVU394
 1120 000a 0646     		mov	r6, r0
 1121              	.LVL74:
 621:Drivers/STM32F4xx_HAL_Driver/Src/stm32f4xx_hal_rtc_ex.c **** 
 622:Drivers/STM32F4xx_HAL_Driver/Src/stm32f4xx_hal_rtc_ex.c ****   while(__HAL_RTC_TIMESTAMP_GET_FLAG(hrtc, RTC_FLAG_TSF) == RESET)
 1122              		.loc 1 622 3 is_stmt 1 view .LVU395
 1123              	.L82:
ARM GAS  /tmp/cchQ4tcR.s 			page 34


 1124              		.loc 1 622 9 is_stmt 0 view .LVU396
 1125 000c 2B68     		ldr	r3, [r5]
 1126 000e 04E0     		b	.L85
 1127              	.L88:
 623:Drivers/STM32F4xx_HAL_Driver/Src/stm32f4xx_hal_rtc_ex.c ****   {
 624:Drivers/STM32F4xx_HAL_Driver/Src/stm32f4xx_hal_rtc_ex.c ****     if(__HAL_RTC_TIMESTAMP_GET_FLAG(hrtc, RTC_FLAG_TSOVF) != RESET)
 1128              		.loc 1 624 8 view .LVU397
 1129 0010 DA68     		ldr	r2, [r3, #12]
 1130              		.loc 1 624 7 view .LVU398
 1131 0012 D004     		lsls	r0, r2, #19
 1132 0014 08D4     		bmi	.L92
 625:Drivers/STM32F4xx_HAL_Driver/Src/stm32f4xx_hal_rtc_ex.c ****     {
 626:Drivers/STM32F4xx_HAL_Driver/Src/stm32f4xx_hal_rtc_ex.c ****       /* Clear the TIMESTAMP Overrun Flag */
 627:Drivers/STM32F4xx_HAL_Driver/Src/stm32f4xx_hal_rtc_ex.c ****       __HAL_RTC_TIMESTAMP_CLEAR_FLAG(hrtc, RTC_FLAG_TSOVF);
 628:Drivers/STM32F4xx_HAL_Driver/Src/stm32f4xx_hal_rtc_ex.c **** 
 629:Drivers/STM32F4xx_HAL_Driver/Src/stm32f4xx_hal_rtc_ex.c ****       /* Change TIMESTAMP state */
 630:Drivers/STM32F4xx_HAL_Driver/Src/stm32f4xx_hal_rtc_ex.c ****       hrtc->State = HAL_RTC_STATE_ERROR;
 631:Drivers/STM32F4xx_HAL_Driver/Src/stm32f4xx_hal_rtc_ex.c **** 
 632:Drivers/STM32F4xx_HAL_Driver/Src/stm32f4xx_hal_rtc_ex.c ****       return HAL_ERROR;
 633:Drivers/STM32F4xx_HAL_Driver/Src/stm32f4xx_hal_rtc_ex.c ****     }
 634:Drivers/STM32F4xx_HAL_Driver/Src/stm32f4xx_hal_rtc_ex.c **** 
 635:Drivers/STM32F4xx_HAL_Driver/Src/stm32f4xx_hal_rtc_ex.c ****     if(Timeout != HAL_MAX_DELAY)
 1133              		.loc 1 635 7 view .LVU399
 1134 0016 611C     		adds	r1, r4, #1
 1135 0018 0FD1     		bne	.L93
 1136              	.L85:
 624:Drivers/STM32F4xx_HAL_Driver/Src/stm32f4xx_hal_rtc_ex.c ****     {
 1137              		.loc 1 624 5 is_stmt 1 view .LVU400
 1138              		.loc 1 635 5 view .LVU401
 622:Drivers/STM32F4xx_HAL_Driver/Src/stm32f4xx_hal_rtc_ex.c ****   {
 1139              		.loc 1 622 8 view .LVU402
 622:Drivers/STM32F4xx_HAL_Driver/Src/stm32f4xx_hal_rtc_ex.c ****   {
 1140              		.loc 1 622 9 is_stmt 0 view .LVU403
 1141 001a DA68     		ldr	r2, [r3, #12]
 622:Drivers/STM32F4xx_HAL_Driver/Src/stm32f4xx_hal_rtc_ex.c ****   {
 1142              		.loc 1 622 8 view .LVU404
 1143 001c 1205     		lsls	r2, r2, #20
 1144 001e F7D5     		bpl	.L88
 636:Drivers/STM32F4xx_HAL_Driver/Src/stm32f4xx_hal_rtc_ex.c ****     {
 637:Drivers/STM32F4xx_HAL_Driver/Src/stm32f4xx_hal_rtc_ex.c ****       if((Timeout == 0U)||((HAL_GetTick() - tickstart ) > Timeout))
 638:Drivers/STM32F4xx_HAL_Driver/Src/stm32f4xx_hal_rtc_ex.c ****       {
 639:Drivers/STM32F4xx_HAL_Driver/Src/stm32f4xx_hal_rtc_ex.c ****         hrtc->State = HAL_RTC_STATE_TIMEOUT;
 640:Drivers/STM32F4xx_HAL_Driver/Src/stm32f4xx_hal_rtc_ex.c ****         return HAL_TIMEOUT;
 641:Drivers/STM32F4xx_HAL_Driver/Src/stm32f4xx_hal_rtc_ex.c ****       }
 642:Drivers/STM32F4xx_HAL_Driver/Src/stm32f4xx_hal_rtc_ex.c ****     }
 643:Drivers/STM32F4xx_HAL_Driver/Src/stm32f4xx_hal_rtc_ex.c ****   }
 644:Drivers/STM32F4xx_HAL_Driver/Src/stm32f4xx_hal_rtc_ex.c **** 
 645:Drivers/STM32F4xx_HAL_Driver/Src/stm32f4xx_hal_rtc_ex.c ****   /* Change RTC state */
 646:Drivers/STM32F4xx_HAL_Driver/Src/stm32f4xx_hal_rtc_ex.c ****   hrtc->State = HAL_RTC_STATE_READY;
 1145              		.loc 1 646 3 is_stmt 1 view .LVU405
 1146              		.loc 1 646 15 is_stmt 0 view .LVU406
 1147 0020 0123     		movs	r3, #1
 1148 0022 6B77     		strb	r3, [r5, #29]
 647:Drivers/STM32F4xx_HAL_Driver/Src/stm32f4xx_hal_rtc_ex.c **** 
 648:Drivers/STM32F4xx_HAL_Driver/Src/stm32f4xx_hal_rtc_ex.c ****   return HAL_OK;
 1149              		.loc 1 648 3 is_stmt 1 view .LVU407
 1150              		.loc 1 648 10 is_stmt 0 view .LVU408
ARM GAS  /tmp/cchQ4tcR.s 			page 35


 1151 0024 0020     		movs	r0, #0
 649:Drivers/STM32F4xx_HAL_Driver/Src/stm32f4xx_hal_rtc_ex.c **** }
 1152              		.loc 1 649 1 view .LVU409
 1153 0026 70BD     		pop	{r4, r5, r6, pc}
 1154              	.LVL75:
 1155              	.L92:
 627:Drivers/STM32F4xx_HAL_Driver/Src/stm32f4xx_hal_rtc_ex.c **** 
 1156              		.loc 1 627 7 is_stmt 1 view .LVU410
 1157 0028 DA68     		ldr	r2, [r3, #12]
 1158 002a D2B2     		uxtb	r2, r2
 630:Drivers/STM32F4xx_HAL_Driver/Src/stm32f4xx_hal_rtc_ex.c **** 
 1159              		.loc 1 630 19 is_stmt 0 view .LVU411
 1160 002c 0421     		movs	r1, #4
 627:Drivers/STM32F4xx_HAL_Driver/Src/stm32f4xx_hal_rtc_ex.c **** 
 1161              		.loc 1 627 7 view .LVU412
 1162 002e 62F48452 		orn	r2, r2, #4224
 1163 0032 DA60     		str	r2, [r3, #12]
 630:Drivers/STM32F4xx_HAL_Driver/Src/stm32f4xx_hal_rtc_ex.c **** 
 1164              		.loc 1 630 7 is_stmt 1 view .LVU413
 630:Drivers/STM32F4xx_HAL_Driver/Src/stm32f4xx_hal_rtc_ex.c **** 
 1165              		.loc 1 630 19 is_stmt 0 view .LVU414
 1166 0034 6977     		strb	r1, [r5, #29]
 632:Drivers/STM32F4xx_HAL_Driver/Src/stm32f4xx_hal_rtc_ex.c ****     }
 1167              		.loc 1 632 7 is_stmt 1 view .LVU415
 632:Drivers/STM32F4xx_HAL_Driver/Src/stm32f4xx_hal_rtc_ex.c ****     }
 1168              		.loc 1 632 14 is_stmt 0 view .LVU416
 1169 0036 0120     		movs	r0, #1
 1170              		.loc 1 649 1 view .LVU417
 1171 0038 70BD     		pop	{r4, r5, r6, pc}
 1172              	.LVL76:
 1173              	.L93:
 637:Drivers/STM32F4xx_HAL_Driver/Src/stm32f4xx_hal_rtc_ex.c ****       {
 1174              		.loc 1 637 7 is_stmt 1 view .LVU418
 637:Drivers/STM32F4xx_HAL_Driver/Src/stm32f4xx_hal_rtc_ex.c ****       {
 1175              		.loc 1 637 9 is_stmt 0 view .LVU419
 1176 003a 24B1     		cbz	r4, .L87
 637:Drivers/STM32F4xx_HAL_Driver/Src/stm32f4xx_hal_rtc_ex.c ****       {
 1177              		.loc 1 637 29 discriminator 1 view .LVU420
 1178 003c FFF7FEFF 		bl	HAL_GetTick
 1179              	.LVL77:
 637:Drivers/STM32F4xx_HAL_Driver/Src/stm32f4xx_hal_rtc_ex.c ****       {
 1180              		.loc 1 637 43 discriminator 1 view .LVU421
 1181 0040 801B     		subs	r0, r0, r6
 637:Drivers/STM32F4xx_HAL_Driver/Src/stm32f4xx_hal_rtc_ex.c ****       {
 1182              		.loc 1 637 25 discriminator 1 view .LVU422
 1183 0042 A042     		cmp	r0, r4
 1184 0044 E2D9     		bls	.L82
 1185              	.L87:
 639:Drivers/STM32F4xx_HAL_Driver/Src/stm32f4xx_hal_rtc_ex.c ****         return HAL_TIMEOUT;
 1186              		.loc 1 639 9 is_stmt 1 view .LVU423
 639:Drivers/STM32F4xx_HAL_Driver/Src/stm32f4xx_hal_rtc_ex.c ****         return HAL_TIMEOUT;
 1187              		.loc 1 639 21 is_stmt 0 view .LVU424
 1188 0046 0320     		movs	r0, #3
 1189 0048 6877     		strb	r0, [r5, #29]
 640:Drivers/STM32F4xx_HAL_Driver/Src/stm32f4xx_hal_rtc_ex.c ****       }
 1190              		.loc 1 640 9 is_stmt 1 view .LVU425
 1191              		.loc 1 649 1 is_stmt 0 view .LVU426
ARM GAS  /tmp/cchQ4tcR.s 			page 36


 1192 004a 70BD     		pop	{r4, r5, r6, pc}
 1193              		.loc 1 649 1 view .LVU427
 1194              		.cfi_endproc
 1195              	.LFE246:
 1197              		.section	.text.HAL_RTCEx_PollForTamper1Event,"ax",%progbits
 1198              		.align	1
 1199              		.p2align 2,,3
 1200              		.global	HAL_RTCEx_PollForTamper1Event
 1201              		.syntax unified
 1202              		.thumb
 1203              		.thumb_func
 1205              	HAL_RTCEx_PollForTamper1Event:
 1206              	.LVL78:
 1207              	.LFB247:
 650:Drivers/STM32F4xx_HAL_Driver/Src/stm32f4xx_hal_rtc_ex.c **** 
 651:Drivers/STM32F4xx_HAL_Driver/Src/stm32f4xx_hal_rtc_ex.c **** /**
 652:Drivers/STM32F4xx_HAL_Driver/Src/stm32f4xx_hal_rtc_ex.c ****   * @brief  This function handles Tamper1 Polling.
 653:Drivers/STM32F4xx_HAL_Driver/Src/stm32f4xx_hal_rtc_ex.c ****   * @param  hrtc pointer to a RTC_HandleTypeDef structure that contains
 654:Drivers/STM32F4xx_HAL_Driver/Src/stm32f4xx_hal_rtc_ex.c ****   *                the configuration information for RTC.
 655:Drivers/STM32F4xx_HAL_Driver/Src/stm32f4xx_hal_rtc_ex.c ****   * @param  Timeout Timeout duration
 656:Drivers/STM32F4xx_HAL_Driver/Src/stm32f4xx_hal_rtc_ex.c ****   * @retval HAL status
 657:Drivers/STM32F4xx_HAL_Driver/Src/stm32f4xx_hal_rtc_ex.c ****   */
 658:Drivers/STM32F4xx_HAL_Driver/Src/stm32f4xx_hal_rtc_ex.c **** HAL_StatusTypeDef HAL_RTCEx_PollForTamper1Event(RTC_HandleTypeDef *hrtc, uint32_t Timeout)
 659:Drivers/STM32F4xx_HAL_Driver/Src/stm32f4xx_hal_rtc_ex.c **** {
 1208              		.loc 1 659 1 is_stmt 1 view -0
 1209              		.cfi_startproc
 1210              		@ args = 0, pretend = 0, frame = 0
 1211              		@ frame_needed = 0, uses_anonymous_args = 0
 660:Drivers/STM32F4xx_HAL_Driver/Src/stm32f4xx_hal_rtc_ex.c ****   uint32_t tickstart = 0U;
 1212              		.loc 1 660 3 view .LVU429
 661:Drivers/STM32F4xx_HAL_Driver/Src/stm32f4xx_hal_rtc_ex.c **** 
 662:Drivers/STM32F4xx_HAL_Driver/Src/stm32f4xx_hal_rtc_ex.c ****   /* Get tick */
 663:Drivers/STM32F4xx_HAL_Driver/Src/stm32f4xx_hal_rtc_ex.c ****   tickstart = HAL_GetTick();
 1213              		.loc 1 663 3 view .LVU430
 659:Drivers/STM32F4xx_HAL_Driver/Src/stm32f4xx_hal_rtc_ex.c ****   uint32_t tickstart = 0U;
 1214              		.loc 1 659 1 is_stmt 0 view .LVU431
 1215 0000 70B5     		push	{r4, r5, r6, lr}
 1216              		.cfi_def_cfa_offset 16
 1217              		.cfi_offset 4, -16
 1218              		.cfi_offset 5, -12
 1219              		.cfi_offset 6, -8
 1220              		.cfi_offset 14, -4
 659:Drivers/STM32F4xx_HAL_Driver/Src/stm32f4xx_hal_rtc_ex.c ****   uint32_t tickstart = 0U;
 1221              		.loc 1 659 1 view .LVU432
 1222 0002 0546     		mov	r5, r0
 1223 0004 0C46     		mov	r4, r1
 1224              		.loc 1 663 15 view .LVU433
 1225 0006 FFF7FEFF 		bl	HAL_GetTick
 1226              	.LVL79:
 1227              		.loc 1 663 15 view .LVU434
 1228 000a 0646     		mov	r6, r0
 1229              	.LVL80:
 664:Drivers/STM32F4xx_HAL_Driver/Src/stm32f4xx_hal_rtc_ex.c **** 
 665:Drivers/STM32F4xx_HAL_Driver/Src/stm32f4xx_hal_rtc_ex.c ****   /* Get the status of the Interrupt */
 666:Drivers/STM32F4xx_HAL_Driver/Src/stm32f4xx_hal_rtc_ex.c ****   while(__HAL_RTC_TAMPER_GET_FLAG(hrtc, RTC_FLAG_TAMP1F)== RESET)
 1230              		.loc 1 666 3 is_stmt 1 view .LVU435
 1231              	.L95:
ARM GAS  /tmp/cchQ4tcR.s 			page 37


 1232              		.loc 1 666 9 is_stmt 0 view .LVU436
 1233 000c 2A68     		ldr	r2, [r5]
 1234 000e 01E0     		b	.L96
 1235              	.L100:
 667:Drivers/STM32F4xx_HAL_Driver/Src/stm32f4xx_hal_rtc_ex.c ****   {
 668:Drivers/STM32F4xx_HAL_Driver/Src/stm32f4xx_hal_rtc_ex.c ****     if(Timeout != HAL_MAX_DELAY)
 1236              		.loc 1 668 7 view .LVU437
 1237 0010 611C     		adds	r1, r4, #1
 1238 0012 0BD1     		bne	.L104
 1239              	.L96:
 1240              		.loc 1 668 5 is_stmt 1 view .LVU438
 666:Drivers/STM32F4xx_HAL_Driver/Src/stm32f4xx_hal_rtc_ex.c ****   {
 1241              		.loc 1 666 8 view .LVU439
 666:Drivers/STM32F4xx_HAL_Driver/Src/stm32f4xx_hal_rtc_ex.c ****   {
 1242              		.loc 1 666 9 is_stmt 0 view .LVU440
 1243 0014 D368     		ldr	r3, [r2, #12]
 666:Drivers/STM32F4xx_HAL_Driver/Src/stm32f4xx_hal_rtc_ex.c ****   {
 1244              		.loc 1 666 8 view .LVU441
 1245 0016 9B04     		lsls	r3, r3, #18
 1246 0018 FAD5     		bpl	.L100
 669:Drivers/STM32F4xx_HAL_Driver/Src/stm32f4xx_hal_rtc_ex.c ****     {
 670:Drivers/STM32F4xx_HAL_Driver/Src/stm32f4xx_hal_rtc_ex.c ****       if((Timeout == 0U)||((HAL_GetTick() - tickstart ) > Timeout))
 671:Drivers/STM32F4xx_HAL_Driver/Src/stm32f4xx_hal_rtc_ex.c ****       {
 672:Drivers/STM32F4xx_HAL_Driver/Src/stm32f4xx_hal_rtc_ex.c ****         hrtc->State = HAL_RTC_STATE_TIMEOUT;
 673:Drivers/STM32F4xx_HAL_Driver/Src/stm32f4xx_hal_rtc_ex.c ****         return HAL_TIMEOUT;
 674:Drivers/STM32F4xx_HAL_Driver/Src/stm32f4xx_hal_rtc_ex.c ****       }
 675:Drivers/STM32F4xx_HAL_Driver/Src/stm32f4xx_hal_rtc_ex.c ****     }
 676:Drivers/STM32F4xx_HAL_Driver/Src/stm32f4xx_hal_rtc_ex.c ****   }
 677:Drivers/STM32F4xx_HAL_Driver/Src/stm32f4xx_hal_rtc_ex.c **** 
 678:Drivers/STM32F4xx_HAL_Driver/Src/stm32f4xx_hal_rtc_ex.c ****   /* Clear the Tamper Flag */
 679:Drivers/STM32F4xx_HAL_Driver/Src/stm32f4xx_hal_rtc_ex.c ****   __HAL_RTC_TAMPER_CLEAR_FLAG(hrtc,RTC_FLAG_TAMP1F);
 1247              		.loc 1 679 3 is_stmt 1 view .LVU442
 1248 001a D368     		ldr	r3, [r2, #12]
 1249 001c DBB2     		uxtb	r3, r3
 680:Drivers/STM32F4xx_HAL_Driver/Src/stm32f4xx_hal_rtc_ex.c **** 
 681:Drivers/STM32F4xx_HAL_Driver/Src/stm32f4xx_hal_rtc_ex.c ****   /* Change RTC state */
 682:Drivers/STM32F4xx_HAL_Driver/Src/stm32f4xx_hal_rtc_ex.c ****   hrtc->State = HAL_RTC_STATE_READY;
 1250              		.loc 1 682 15 is_stmt 0 view .LVU443
 1251 001e 0121     		movs	r1, #1
 679:Drivers/STM32F4xx_HAL_Driver/Src/stm32f4xx_hal_rtc_ex.c **** 
 1252              		.loc 1 679 3 view .LVU444
 1253 0020 63F40253 		orn	r3, r3, #8320
 1254 0024 D360     		str	r3, [r2, #12]
 1255              		.loc 1 682 3 is_stmt 1 view .LVU445
 1256              		.loc 1 682 15 is_stmt 0 view .LVU446
 1257 0026 6977     		strb	r1, [r5, #29]
 683:Drivers/STM32F4xx_HAL_Driver/Src/stm32f4xx_hal_rtc_ex.c **** 
 684:Drivers/STM32F4xx_HAL_Driver/Src/stm32f4xx_hal_rtc_ex.c ****   return HAL_OK;
 1258              		.loc 1 684 3 is_stmt 1 view .LVU447
 1259              		.loc 1 684 10 is_stmt 0 view .LVU448
 1260 0028 0020     		movs	r0, #0
 685:Drivers/STM32F4xx_HAL_Driver/Src/stm32f4xx_hal_rtc_ex.c **** }
 1261              		.loc 1 685 1 view .LVU449
 1262 002a 70BD     		pop	{r4, r5, r6, pc}
 1263              	.LVL81:
 1264              	.L104:
 670:Drivers/STM32F4xx_HAL_Driver/Src/stm32f4xx_hal_rtc_ex.c ****       {
ARM GAS  /tmp/cchQ4tcR.s 			page 38


 1265              		.loc 1 670 7 is_stmt 1 view .LVU450
 670:Drivers/STM32F4xx_HAL_Driver/Src/stm32f4xx_hal_rtc_ex.c ****       {
 1266              		.loc 1 670 9 is_stmt 0 view .LVU451
 1267 002c 24B1     		cbz	r4, .L99
 670:Drivers/STM32F4xx_HAL_Driver/Src/stm32f4xx_hal_rtc_ex.c ****       {
 1268              		.loc 1 670 29 discriminator 1 view .LVU452
 1269 002e FFF7FEFF 		bl	HAL_GetTick
 1270              	.LVL82:
 670:Drivers/STM32F4xx_HAL_Driver/Src/stm32f4xx_hal_rtc_ex.c ****       {
 1271              		.loc 1 670 43 discriminator 1 view .LVU453
 1272 0032 801B     		subs	r0, r0, r6
 670:Drivers/STM32F4xx_HAL_Driver/Src/stm32f4xx_hal_rtc_ex.c ****       {
 1273              		.loc 1 670 25 discriminator 1 view .LVU454
 1274 0034 A042     		cmp	r0, r4
 1275 0036 E9D9     		bls	.L95
 1276              	.L99:
 672:Drivers/STM32F4xx_HAL_Driver/Src/stm32f4xx_hal_rtc_ex.c ****         return HAL_TIMEOUT;
 1277              		.loc 1 672 9 is_stmt 1 view .LVU455
 672:Drivers/STM32F4xx_HAL_Driver/Src/stm32f4xx_hal_rtc_ex.c ****         return HAL_TIMEOUT;
 1278              		.loc 1 672 21 is_stmt 0 view .LVU456
 1279 0038 0320     		movs	r0, #3
 1280 003a 6877     		strb	r0, [r5, #29]
 673:Drivers/STM32F4xx_HAL_Driver/Src/stm32f4xx_hal_rtc_ex.c ****       }
 1281              		.loc 1 673 9 is_stmt 1 view .LVU457
 1282              		.loc 1 685 1 is_stmt 0 view .LVU458
 1283 003c 70BD     		pop	{r4, r5, r6, pc}
 1284              		.loc 1 685 1 view .LVU459
 1285              		.cfi_endproc
 1286              	.LFE247:
 1288 003e 00BF     		.section	.text.HAL_RTCEx_PollForTamper2Event,"ax",%progbits
 1289              		.align	1
 1290              		.p2align 2,,3
 1291              		.global	HAL_RTCEx_PollForTamper2Event
 1292              		.syntax unified
 1293              		.thumb
 1294              		.thumb_func
 1296              	HAL_RTCEx_PollForTamper2Event:
 1297              	.LVL83:
 1298              	.LFB248:
 686:Drivers/STM32F4xx_HAL_Driver/Src/stm32f4xx_hal_rtc_ex.c **** 
 687:Drivers/STM32F4xx_HAL_Driver/Src/stm32f4xx_hal_rtc_ex.c **** /**
 688:Drivers/STM32F4xx_HAL_Driver/Src/stm32f4xx_hal_rtc_ex.c ****   * @brief  This function handles Tamper2 Polling.
 689:Drivers/STM32F4xx_HAL_Driver/Src/stm32f4xx_hal_rtc_ex.c ****   * @param  hrtc pointer to a RTC_HandleTypeDef structure that contains
 690:Drivers/STM32F4xx_HAL_Driver/Src/stm32f4xx_hal_rtc_ex.c ****   *                the configuration information for RTC.
 691:Drivers/STM32F4xx_HAL_Driver/Src/stm32f4xx_hal_rtc_ex.c ****   * @param  Timeout Timeout duration
 692:Drivers/STM32F4xx_HAL_Driver/Src/stm32f4xx_hal_rtc_ex.c ****   * @retval HAL status
 693:Drivers/STM32F4xx_HAL_Driver/Src/stm32f4xx_hal_rtc_ex.c ****   */
 694:Drivers/STM32F4xx_HAL_Driver/Src/stm32f4xx_hal_rtc_ex.c **** HAL_StatusTypeDef HAL_RTCEx_PollForTamper2Event(RTC_HandleTypeDef *hrtc, uint32_t Timeout)
 695:Drivers/STM32F4xx_HAL_Driver/Src/stm32f4xx_hal_rtc_ex.c **** {
 1299              		.loc 1 695 1 is_stmt 1 view -0
 1300              		.cfi_startproc
 1301              		@ args = 0, pretend = 0, frame = 0
 1302              		@ frame_needed = 0, uses_anonymous_args = 0
 696:Drivers/STM32F4xx_HAL_Driver/Src/stm32f4xx_hal_rtc_ex.c ****   uint32_t tickstart = 0U;
 1303              		.loc 1 696 3 view .LVU461
 697:Drivers/STM32F4xx_HAL_Driver/Src/stm32f4xx_hal_rtc_ex.c **** 
 698:Drivers/STM32F4xx_HAL_Driver/Src/stm32f4xx_hal_rtc_ex.c ****   /* Get tick */
ARM GAS  /tmp/cchQ4tcR.s 			page 39


 699:Drivers/STM32F4xx_HAL_Driver/Src/stm32f4xx_hal_rtc_ex.c ****   tickstart = HAL_GetTick();
 1304              		.loc 1 699 3 view .LVU462
 695:Drivers/STM32F4xx_HAL_Driver/Src/stm32f4xx_hal_rtc_ex.c ****   uint32_t tickstart = 0U;
 1305              		.loc 1 695 1 is_stmt 0 view .LVU463
 1306 0000 70B5     		push	{r4, r5, r6, lr}
 1307              		.cfi_def_cfa_offset 16
 1308              		.cfi_offset 4, -16
 1309              		.cfi_offset 5, -12
 1310              		.cfi_offset 6, -8
 1311              		.cfi_offset 14, -4
 695:Drivers/STM32F4xx_HAL_Driver/Src/stm32f4xx_hal_rtc_ex.c ****   uint32_t tickstart = 0U;
 1312              		.loc 1 695 1 view .LVU464
 1313 0002 0546     		mov	r5, r0
 1314 0004 0C46     		mov	r4, r1
 1315              		.loc 1 699 15 view .LVU465
 1316 0006 FFF7FEFF 		bl	HAL_GetTick
 1317              	.LVL84:
 1318              		.loc 1 699 15 view .LVU466
 1319 000a 0646     		mov	r6, r0
 1320              	.LVL85:
 700:Drivers/STM32F4xx_HAL_Driver/Src/stm32f4xx_hal_rtc_ex.c **** 
 701:Drivers/STM32F4xx_HAL_Driver/Src/stm32f4xx_hal_rtc_ex.c ****   /* Get the status of the Interrupt */
 702:Drivers/STM32F4xx_HAL_Driver/Src/stm32f4xx_hal_rtc_ex.c ****   while(__HAL_RTC_TAMPER_GET_FLAG(hrtc, RTC_FLAG_TAMP2F) == RESET)
 1321              		.loc 1 702 3 is_stmt 1 view .LVU467
 1322              	.L106:
 1323              		.loc 1 702 9 is_stmt 0 view .LVU468
 1324 000c 2A68     		ldr	r2, [r5]
 1325 000e 01E0     		b	.L107
 1326              	.L111:
 703:Drivers/STM32F4xx_HAL_Driver/Src/stm32f4xx_hal_rtc_ex.c ****   {
 704:Drivers/STM32F4xx_HAL_Driver/Src/stm32f4xx_hal_rtc_ex.c ****     if(Timeout != HAL_MAX_DELAY)
 1327              		.loc 1 704 7 view .LVU469
 1328 0010 611C     		adds	r1, r4, #1
 1329 0012 0BD1     		bne	.L115
 1330              	.L107:
 1331              		.loc 1 704 5 is_stmt 1 view .LVU470
 702:Drivers/STM32F4xx_HAL_Driver/Src/stm32f4xx_hal_rtc_ex.c ****   {
 1332              		.loc 1 702 8 view .LVU471
 702:Drivers/STM32F4xx_HAL_Driver/Src/stm32f4xx_hal_rtc_ex.c ****   {
 1333              		.loc 1 702 9 is_stmt 0 view .LVU472
 1334 0014 D368     		ldr	r3, [r2, #12]
 702:Drivers/STM32F4xx_HAL_Driver/Src/stm32f4xx_hal_rtc_ex.c ****   {
 1335              		.loc 1 702 8 view .LVU473
 1336 0016 5B04     		lsls	r3, r3, #17
 1337 0018 FAD5     		bpl	.L111
 705:Drivers/STM32F4xx_HAL_Driver/Src/stm32f4xx_hal_rtc_ex.c ****     {
 706:Drivers/STM32F4xx_HAL_Driver/Src/stm32f4xx_hal_rtc_ex.c ****       if((Timeout == 0U)||((HAL_GetTick() - tickstart ) > Timeout))
 707:Drivers/STM32F4xx_HAL_Driver/Src/stm32f4xx_hal_rtc_ex.c ****       {
 708:Drivers/STM32F4xx_HAL_Driver/Src/stm32f4xx_hal_rtc_ex.c ****         hrtc->State = HAL_RTC_STATE_TIMEOUT;
 709:Drivers/STM32F4xx_HAL_Driver/Src/stm32f4xx_hal_rtc_ex.c ****         return HAL_TIMEOUT;
 710:Drivers/STM32F4xx_HAL_Driver/Src/stm32f4xx_hal_rtc_ex.c ****       }
 711:Drivers/STM32F4xx_HAL_Driver/Src/stm32f4xx_hal_rtc_ex.c ****     }
 712:Drivers/STM32F4xx_HAL_Driver/Src/stm32f4xx_hal_rtc_ex.c ****   }
 713:Drivers/STM32F4xx_HAL_Driver/Src/stm32f4xx_hal_rtc_ex.c **** 
 714:Drivers/STM32F4xx_HAL_Driver/Src/stm32f4xx_hal_rtc_ex.c ****   /* Clear the Tamper Flag */
 715:Drivers/STM32F4xx_HAL_Driver/Src/stm32f4xx_hal_rtc_ex.c ****   __HAL_RTC_TAMPER_CLEAR_FLAG(hrtc,RTC_FLAG_TAMP2F);
 1338              		.loc 1 715 3 is_stmt 1 view .LVU474
ARM GAS  /tmp/cchQ4tcR.s 			page 40


 1339 001a D368     		ldr	r3, [r2, #12]
 1340 001c DBB2     		uxtb	r3, r3
 716:Drivers/STM32F4xx_HAL_Driver/Src/stm32f4xx_hal_rtc_ex.c **** 
 717:Drivers/STM32F4xx_HAL_Driver/Src/stm32f4xx_hal_rtc_ex.c ****   /* Change RTC state */
 718:Drivers/STM32F4xx_HAL_Driver/Src/stm32f4xx_hal_rtc_ex.c ****   hrtc->State = HAL_RTC_STATE_READY;
 1341              		.loc 1 718 15 is_stmt 0 view .LVU475
 1342 001e 0121     		movs	r1, #1
 715:Drivers/STM32F4xx_HAL_Driver/Src/stm32f4xx_hal_rtc_ex.c **** 
 1343              		.loc 1 715 3 view .LVU476
 1344 0020 63F48143 		orn	r3, r3, #16512
 1345 0024 D360     		str	r3, [r2, #12]
 1346              		.loc 1 718 3 is_stmt 1 view .LVU477
 1347              		.loc 1 718 15 is_stmt 0 view .LVU478
 1348 0026 6977     		strb	r1, [r5, #29]
 719:Drivers/STM32F4xx_HAL_Driver/Src/stm32f4xx_hal_rtc_ex.c **** 
 720:Drivers/STM32F4xx_HAL_Driver/Src/stm32f4xx_hal_rtc_ex.c ****   return HAL_OK;
 1349              		.loc 1 720 3 is_stmt 1 view .LVU479
 1350              		.loc 1 720 10 is_stmt 0 view .LVU480
 1351 0028 0020     		movs	r0, #0
 721:Drivers/STM32F4xx_HAL_Driver/Src/stm32f4xx_hal_rtc_ex.c **** }
 1352              		.loc 1 721 1 view .LVU481
 1353 002a 70BD     		pop	{r4, r5, r6, pc}
 1354              	.LVL86:
 1355              	.L115:
 706:Drivers/STM32F4xx_HAL_Driver/Src/stm32f4xx_hal_rtc_ex.c ****       {
 1356              		.loc 1 706 7 is_stmt 1 view .LVU482
 706:Drivers/STM32F4xx_HAL_Driver/Src/stm32f4xx_hal_rtc_ex.c ****       {
 1357              		.loc 1 706 9 is_stmt 0 view .LVU483
 1358 002c 24B1     		cbz	r4, .L110
 706:Drivers/STM32F4xx_HAL_Driver/Src/stm32f4xx_hal_rtc_ex.c ****       {
 1359              		.loc 1 706 29 discriminator 1 view .LVU484
 1360 002e FFF7FEFF 		bl	HAL_GetTick
 1361              	.LVL87:
 706:Drivers/STM32F4xx_HAL_Driver/Src/stm32f4xx_hal_rtc_ex.c ****       {
 1362              		.loc 1 706 43 discriminator 1 view .LVU485
 1363 0032 801B     		subs	r0, r0, r6
 706:Drivers/STM32F4xx_HAL_Driver/Src/stm32f4xx_hal_rtc_ex.c ****       {
 1364              		.loc 1 706 25 discriminator 1 view .LVU486
 1365 0034 A042     		cmp	r0, r4
 1366 0036 E9D9     		bls	.L106
 1367              	.L110:
 708:Drivers/STM32F4xx_HAL_Driver/Src/stm32f4xx_hal_rtc_ex.c ****         return HAL_TIMEOUT;
 1368              		.loc 1 708 9 is_stmt 1 view .LVU487
 708:Drivers/STM32F4xx_HAL_Driver/Src/stm32f4xx_hal_rtc_ex.c ****         return HAL_TIMEOUT;
 1369              		.loc 1 708 21 is_stmt 0 view .LVU488
 1370 0038 0320     		movs	r0, #3
 1371 003a 6877     		strb	r0, [r5, #29]
 709:Drivers/STM32F4xx_HAL_Driver/Src/stm32f4xx_hal_rtc_ex.c ****       }
 1372              		.loc 1 709 9 is_stmt 1 view .LVU489
 1373              		.loc 1 721 1 is_stmt 0 view .LVU490
 1374 003c 70BD     		pop	{r4, r5, r6, pc}
 1375              		.loc 1 721 1 view .LVU491
 1376              		.cfi_endproc
 1377              	.LFE248:
 1379 003e 00BF     		.section	.text.HAL_RTCEx_SetWakeUpTimer,"ax",%progbits
 1380              		.align	1
 1381              		.p2align 2,,3
ARM GAS  /tmp/cchQ4tcR.s 			page 41


 1382              		.global	HAL_RTCEx_SetWakeUpTimer
 1383              		.syntax unified
 1384              		.thumb
 1385              		.thumb_func
 1387              	HAL_RTCEx_SetWakeUpTimer:
 1388              	.LVL88:
 1389              	.LFB249:
 722:Drivers/STM32F4xx_HAL_Driver/Src/stm32f4xx_hal_rtc_ex.c **** 
 723:Drivers/STM32F4xx_HAL_Driver/Src/stm32f4xx_hal_rtc_ex.c **** /**
 724:Drivers/STM32F4xx_HAL_Driver/Src/stm32f4xx_hal_rtc_ex.c ****   * @}
 725:Drivers/STM32F4xx_HAL_Driver/Src/stm32f4xx_hal_rtc_ex.c ****   */
 726:Drivers/STM32F4xx_HAL_Driver/Src/stm32f4xx_hal_rtc_ex.c **** 
 727:Drivers/STM32F4xx_HAL_Driver/Src/stm32f4xx_hal_rtc_ex.c **** /** @defgroup RTCEx_Exported_Functions_Group2 RTC Wake-up functions
 728:Drivers/STM32F4xx_HAL_Driver/Src/stm32f4xx_hal_rtc_ex.c ****  *  @brief   RTC Wake-up functions
 729:Drivers/STM32F4xx_HAL_Driver/Src/stm32f4xx_hal_rtc_ex.c ****  *
 730:Drivers/STM32F4xx_HAL_Driver/Src/stm32f4xx_hal_rtc_ex.c **** @verbatim
 731:Drivers/STM32F4xx_HAL_Driver/Src/stm32f4xx_hal_rtc_ex.c ****  ===============================================================================
 732:Drivers/STM32F4xx_HAL_Driver/Src/stm32f4xx_hal_rtc_ex.c ****                         ##### RTC Wake-up functions #####
 733:Drivers/STM32F4xx_HAL_Driver/Src/stm32f4xx_hal_rtc_ex.c ****  ===============================================================================
 734:Drivers/STM32F4xx_HAL_Driver/Src/stm32f4xx_hal_rtc_ex.c **** 
 735:Drivers/STM32F4xx_HAL_Driver/Src/stm32f4xx_hal_rtc_ex.c ****  [..] This section provides functions allowing to configure Wake-up feature
 736:Drivers/STM32F4xx_HAL_Driver/Src/stm32f4xx_hal_rtc_ex.c **** 
 737:Drivers/STM32F4xx_HAL_Driver/Src/stm32f4xx_hal_rtc_ex.c **** @endverbatim
 738:Drivers/STM32F4xx_HAL_Driver/Src/stm32f4xx_hal_rtc_ex.c ****   * @{
 739:Drivers/STM32F4xx_HAL_Driver/Src/stm32f4xx_hal_rtc_ex.c ****   */
 740:Drivers/STM32F4xx_HAL_Driver/Src/stm32f4xx_hal_rtc_ex.c **** 
 741:Drivers/STM32F4xx_HAL_Driver/Src/stm32f4xx_hal_rtc_ex.c **** /**
 742:Drivers/STM32F4xx_HAL_Driver/Src/stm32f4xx_hal_rtc_ex.c ****   * @brief  Sets wake up timer.
 743:Drivers/STM32F4xx_HAL_Driver/Src/stm32f4xx_hal_rtc_ex.c ****   * @param  hrtc pointer to a RTC_HandleTypeDef structure that contains
 744:Drivers/STM32F4xx_HAL_Driver/Src/stm32f4xx_hal_rtc_ex.c ****   *                the configuration information for RTC.
 745:Drivers/STM32F4xx_HAL_Driver/Src/stm32f4xx_hal_rtc_ex.c ****   * @param  WakeUpCounter Wake up counter
 746:Drivers/STM32F4xx_HAL_Driver/Src/stm32f4xx_hal_rtc_ex.c ****   * @param  WakeUpClock Wake up clock
 747:Drivers/STM32F4xx_HAL_Driver/Src/stm32f4xx_hal_rtc_ex.c ****   * @retval HAL status
 748:Drivers/STM32F4xx_HAL_Driver/Src/stm32f4xx_hal_rtc_ex.c ****   */
 749:Drivers/STM32F4xx_HAL_Driver/Src/stm32f4xx_hal_rtc_ex.c **** HAL_StatusTypeDef HAL_RTCEx_SetWakeUpTimer(RTC_HandleTypeDef *hrtc, uint32_t WakeUpCounter, uint32_
 750:Drivers/STM32F4xx_HAL_Driver/Src/stm32f4xx_hal_rtc_ex.c **** {
 1390              		.loc 1 750 1 is_stmt 1 view -0
 1391              		.cfi_startproc
 1392              		@ args = 0, pretend = 0, frame = 0
 1393              		@ frame_needed = 0, uses_anonymous_args = 0
 751:Drivers/STM32F4xx_HAL_Driver/Src/stm32f4xx_hal_rtc_ex.c ****   uint32_t tickstart = 0U;
 1394              		.loc 1 751 3 view .LVU493
 752:Drivers/STM32F4xx_HAL_Driver/Src/stm32f4xx_hal_rtc_ex.c **** 
 753:Drivers/STM32F4xx_HAL_Driver/Src/stm32f4xx_hal_rtc_ex.c ****   /* Check the parameters */
 754:Drivers/STM32F4xx_HAL_Driver/Src/stm32f4xx_hal_rtc_ex.c ****   assert_param(IS_RTC_WAKEUP_CLOCK(WakeUpClock));
 1395              		.loc 1 754 3 view .LVU494
 755:Drivers/STM32F4xx_HAL_Driver/Src/stm32f4xx_hal_rtc_ex.c ****   assert_param(IS_RTC_WAKEUP_COUNTER(WakeUpCounter));
 1396              		.loc 1 755 3 view .LVU495
 756:Drivers/STM32F4xx_HAL_Driver/Src/stm32f4xx_hal_rtc_ex.c **** 
 757:Drivers/STM32F4xx_HAL_Driver/Src/stm32f4xx_hal_rtc_ex.c ****   /* Process Locked */
 758:Drivers/STM32F4xx_HAL_Driver/Src/stm32f4xx_hal_rtc_ex.c ****   __HAL_LOCK(hrtc);
 1397              		.loc 1 758 3 view .LVU496
 1398              		.loc 1 758 3 view .LVU497
 1399 0000 037F     		ldrb	r3, [r0, #28]	@ zero_extendqisi2
 1400 0002 012B     		cmp	r3, #1
 1401 0004 5AD0     		beq	.L123
 1402              		.loc 1 758 3 discriminator 2 view .LVU498
ARM GAS  /tmp/cchQ4tcR.s 			page 42


 750:Drivers/STM32F4xx_HAL_Driver/Src/stm32f4xx_hal_rtc_ex.c ****   uint32_t tickstart = 0U;
 1403              		.loc 1 750 1 is_stmt 0 discriminator 2 view .LVU499
 1404 0006 2DE9F041 		push	{r4, r5, r6, r7, r8, lr}
 1405              		.cfi_def_cfa_offset 24
 1406              		.cfi_offset 4, -24
 1407              		.cfi_offset 5, -20
 1408              		.cfi_offset 6, -16
 1409              		.cfi_offset 7, -12
 1410              		.cfi_offset 8, -8
 1411              		.cfi_offset 14, -4
 1412 000a 1746     		mov	r7, r2
 1413              		.loc 1 758 3 discriminator 2 view .LVU500
 1414 000c 0122     		movs	r2, #1
 1415              	.LVL89:
 1416              		.loc 1 758 3 discriminator 2 view .LVU501
 1417 000e 0277     		strb	r2, [r0, #28]
 1418              		.loc 1 758 3 is_stmt 1 discriminator 2 view .LVU502
 759:Drivers/STM32F4xx_HAL_Driver/Src/stm32f4xx_hal_rtc_ex.c **** 
 760:Drivers/STM32F4xx_HAL_Driver/Src/stm32f4xx_hal_rtc_ex.c ****   hrtc->State = HAL_RTC_STATE_BUSY;
 1419              		.loc 1 760 3 discriminator 2 view .LVU503
 761:Drivers/STM32F4xx_HAL_Driver/Src/stm32f4xx_hal_rtc_ex.c **** 
 762:Drivers/STM32F4xx_HAL_Driver/Src/stm32f4xx_hal_rtc_ex.c ****   /* Disable the write protection for RTC registers */
 763:Drivers/STM32F4xx_HAL_Driver/Src/stm32f4xx_hal_rtc_ex.c ****   __HAL_RTC_WRITEPROTECTION_DISABLE(hrtc);
 1420              		.loc 1 763 3 is_stmt 0 discriminator 2 view .LVU504
 1421 0010 0368     		ldr	r3, [r0]
 760:Drivers/STM32F4xx_HAL_Driver/Src/stm32f4xx_hal_rtc_ex.c **** 
 1422              		.loc 1 760 15 discriminator 2 view .LVU505
 1423 0012 0222     		movs	r2, #2
 1424 0014 4277     		strb	r2, [r0, #29]
 1425              		.loc 1 763 3 is_stmt 1 discriminator 2 view .LVU506
 1426              		.loc 1 763 3 discriminator 2 view .LVU507
 1427 0016 CA22     		movs	r2, #202
 1428 0018 5A62     		str	r2, [r3, #36]
 1429              		.loc 1 763 3 discriminator 2 view .LVU508
 1430 001a 5322     		movs	r2, #83
 1431 001c 5A62     		str	r2, [r3, #36]
 1432              		.loc 1 763 3 discriminator 2 view .LVU509
 764:Drivers/STM32F4xx_HAL_Driver/Src/stm32f4xx_hal_rtc_ex.c **** 
 765:Drivers/STM32F4xx_HAL_Driver/Src/stm32f4xx_hal_rtc_ex.c ****   /*Check RTC WUTWF flag is reset only when wake up timer enabled*/
 766:Drivers/STM32F4xx_HAL_Driver/Src/stm32f4xx_hal_rtc_ex.c ****   if((hrtc->Instance->CR & RTC_CR_WUTE) != RESET)
 1433              		.loc 1 766 3 discriminator 2 view .LVU510
 1434              		.loc 1 766 21 is_stmt 0 discriminator 2 view .LVU511
 1435 001e 9A68     		ldr	r2, [r3, #8]
 1436 0020 0E46     		mov	r6, r1
 1437              		.loc 1 766 5 discriminator 2 view .LVU512
 1438 0022 5105     		lsls	r1, r2, #21
 1439              	.LVL90:
 1440              		.loc 1 766 5 discriminator 2 view .LVU513
 1441 0024 0546     		mov	r5, r0
 1442 0026 0DD5     		bpl	.L118
 767:Drivers/STM32F4xx_HAL_Driver/Src/stm32f4xx_hal_rtc_ex.c ****   {
 768:Drivers/STM32F4xx_HAL_Driver/Src/stm32f4xx_hal_rtc_ex.c ****     tickstart = HAL_GetTick();
 1443              		.loc 1 768 5 is_stmt 1 view .LVU514
 1444              		.loc 1 768 17 is_stmt 0 view .LVU515
 1445 0028 FFF7FEFF 		bl	HAL_GetTick
 1446              	.LVL91:
 1447              		.loc 1 768 17 view .LVU516
ARM GAS  /tmp/cchQ4tcR.s 			page 43


 1448 002c 0446     		mov	r4, r0
 1449              	.LVL92:
 769:Drivers/STM32F4xx_HAL_Driver/Src/stm32f4xx_hal_rtc_ex.c **** 
 770:Drivers/STM32F4xx_HAL_Driver/Src/stm32f4xx_hal_rtc_ex.c ****     /* Wait till RTC WUTWF flag is reset and if Time out is reached exit */
 771:Drivers/STM32F4xx_HAL_Driver/Src/stm32f4xx_hal_rtc_ex.c ****     while(__HAL_RTC_WAKEUPTIMER_GET_FLAG(hrtc, RTC_FLAG_WUTWF) == SET)
 1450              		.loc 1 771 5 is_stmt 1 view .LVU517
 1451              		.loc 1 771 10 is_stmt 0 view .LVU518
 1452 002e 05E0     		b	.L119
 1453              	.LVL93:
 1454              	.L120:
 772:Drivers/STM32F4xx_HAL_Driver/Src/stm32f4xx_hal_rtc_ex.c ****     {
 773:Drivers/STM32F4xx_HAL_Driver/Src/stm32f4xx_hal_rtc_ex.c ****       if((HAL_GetTick() - tickstart ) > RTC_TIMEOUT_VALUE)
 1455              		.loc 1 773 11 view .LVU519
 1456 0030 FFF7FEFF 		bl	HAL_GetTick
 1457              	.LVL94:
 1458              		.loc 1 773 25 view .LVU520
 1459 0034 001B     		subs	r0, r0, r4
 1460              		.loc 1 773 9 view .LVU521
 1461 0036 B0F57A7F 		cmp	r0, #1000
 1462 003a 35D8     		bhi	.L133
 1463              	.L119:
 1464              		.loc 1 773 7 is_stmt 1 view .LVU522
 771:Drivers/STM32F4xx_HAL_Driver/Src/stm32f4xx_hal_rtc_ex.c ****     {
 1465              		.loc 1 771 10 view .LVU523
 771:Drivers/STM32F4xx_HAL_Driver/Src/stm32f4xx_hal_rtc_ex.c ****     {
 1466              		.loc 1 771 11 is_stmt 0 view .LVU524
 1467 003c 2B68     		ldr	r3, [r5]
 1468 003e DA68     		ldr	r2, [r3, #12]
 771:Drivers/STM32F4xx_HAL_Driver/Src/stm32f4xx_hal_rtc_ex.c ****     {
 1469              		.loc 1 771 10 view .LVU525
 1470 0040 5207     		lsls	r2, r2, #29
 1471 0042 F5D4     		bmi	.L120
 1472              	.LVL95:
 1473              	.L118:
 774:Drivers/STM32F4xx_HAL_Driver/Src/stm32f4xx_hal_rtc_ex.c ****       {
 775:Drivers/STM32F4xx_HAL_Driver/Src/stm32f4xx_hal_rtc_ex.c ****         /* Enable the write protection for RTC registers */
 776:Drivers/STM32F4xx_HAL_Driver/Src/stm32f4xx_hal_rtc_ex.c ****         __HAL_RTC_WRITEPROTECTION_ENABLE(hrtc);
 777:Drivers/STM32F4xx_HAL_Driver/Src/stm32f4xx_hal_rtc_ex.c **** 
 778:Drivers/STM32F4xx_HAL_Driver/Src/stm32f4xx_hal_rtc_ex.c ****         hrtc->State = HAL_RTC_STATE_TIMEOUT;
 779:Drivers/STM32F4xx_HAL_Driver/Src/stm32f4xx_hal_rtc_ex.c **** 
 780:Drivers/STM32F4xx_HAL_Driver/Src/stm32f4xx_hal_rtc_ex.c ****         /* Process Unlocked */
 781:Drivers/STM32F4xx_HAL_Driver/Src/stm32f4xx_hal_rtc_ex.c ****         __HAL_UNLOCK(hrtc);
 782:Drivers/STM32F4xx_HAL_Driver/Src/stm32f4xx_hal_rtc_ex.c **** 
 783:Drivers/STM32F4xx_HAL_Driver/Src/stm32f4xx_hal_rtc_ex.c ****         return HAL_TIMEOUT;
 784:Drivers/STM32F4xx_HAL_Driver/Src/stm32f4xx_hal_rtc_ex.c ****       }
 785:Drivers/STM32F4xx_HAL_Driver/Src/stm32f4xx_hal_rtc_ex.c ****     }
 786:Drivers/STM32F4xx_HAL_Driver/Src/stm32f4xx_hal_rtc_ex.c ****   }
 787:Drivers/STM32F4xx_HAL_Driver/Src/stm32f4xx_hal_rtc_ex.c **** 
 788:Drivers/STM32F4xx_HAL_Driver/Src/stm32f4xx_hal_rtc_ex.c ****   __HAL_RTC_WAKEUPTIMER_DISABLE(hrtc);
 1474              		.loc 1 788 3 is_stmt 1 view .LVU526
 1475 0044 9A68     		ldr	r2, [r3, #8]
 1476 0046 22F48062 		bic	r2, r2, #1024
 1477 004a 9A60     		str	r2, [r3, #8]
 789:Drivers/STM32F4xx_HAL_Driver/Src/stm32f4xx_hal_rtc_ex.c **** 
 790:Drivers/STM32F4xx_HAL_Driver/Src/stm32f4xx_hal_rtc_ex.c ****   tickstart = HAL_GetTick();
 1478              		.loc 1 790 3 view .LVU527
 1479              		.loc 1 790 15 is_stmt 0 view .LVU528
ARM GAS  /tmp/cchQ4tcR.s 			page 44


 1480 004c FFF7FEFF 		bl	HAL_GetTick
 1481              	.LVL96:
 1482 0050 8046     		mov	r8, r0
 1483              	.LVL97:
 791:Drivers/STM32F4xx_HAL_Driver/Src/stm32f4xx_hal_rtc_ex.c **** 
 792:Drivers/STM32F4xx_HAL_Driver/Src/stm32f4xx_hal_rtc_ex.c ****   /* Wait till RTC WUTWF flag is set and if Time out is reached exit */
 793:Drivers/STM32F4xx_HAL_Driver/Src/stm32f4xx_hal_rtc_ex.c ****   while(__HAL_RTC_WAKEUPTIMER_GET_FLAG(hrtc, RTC_FLAG_WUTWF) == RESET)
 1484              		.loc 1 793 3 is_stmt 1 view .LVU529
 1485              		.loc 1 793 8 is_stmt 0 view .LVU530
 1486 0052 06E0     		b	.L121
 1487              	.LVL98:
 1488              	.L122:
 794:Drivers/STM32F4xx_HAL_Driver/Src/stm32f4xx_hal_rtc_ex.c ****   {
 795:Drivers/STM32F4xx_HAL_Driver/Src/stm32f4xx_hal_rtc_ex.c ****     if((HAL_GetTick() - tickstart ) > RTC_TIMEOUT_VALUE)
 1489              		.loc 1 795 9 view .LVU531
 1490 0054 FFF7FEFF 		bl	HAL_GetTick
 1491              	.LVL99:
 1492              		.loc 1 795 23 view .LVU532
 1493 0058 A0EB0803 		sub	r3, r0, r8
 1494              		.loc 1 795 7 view .LVU533
 1495 005c B3F57A7F 		cmp	r3, #1000
 1496 0060 19D8     		bhi	.L134
 1497              	.L121:
 1498              		.loc 1 795 5 is_stmt 1 view .LVU534
 793:Drivers/STM32F4xx_HAL_Driver/Src/stm32f4xx_hal_rtc_ex.c ****   {
 1499              		.loc 1 793 8 view .LVU535
 793:Drivers/STM32F4xx_HAL_Driver/Src/stm32f4xx_hal_rtc_ex.c ****   {
 1500              		.loc 1 793 9 is_stmt 0 view .LVU536
 1501 0062 2A68     		ldr	r2, [r5]
 1502 0064 D468     		ldr	r4, [r2, #12]
 793:Drivers/STM32F4xx_HAL_Driver/Src/stm32f4xx_hal_rtc_ex.c ****   {
 1503              		.loc 1 793 8 view .LVU537
 1504 0066 14F00404 		ands	r4, r4, #4
 1505 006a F3D0     		beq	.L122
 796:Drivers/STM32F4xx_HAL_Driver/Src/stm32f4xx_hal_rtc_ex.c ****     {
 797:Drivers/STM32F4xx_HAL_Driver/Src/stm32f4xx_hal_rtc_ex.c ****       /* Enable the write protection for RTC registers */
 798:Drivers/STM32F4xx_HAL_Driver/Src/stm32f4xx_hal_rtc_ex.c ****       __HAL_RTC_WRITEPROTECTION_ENABLE(hrtc);
 799:Drivers/STM32F4xx_HAL_Driver/Src/stm32f4xx_hal_rtc_ex.c **** 
 800:Drivers/STM32F4xx_HAL_Driver/Src/stm32f4xx_hal_rtc_ex.c ****       hrtc->State = HAL_RTC_STATE_TIMEOUT;
 801:Drivers/STM32F4xx_HAL_Driver/Src/stm32f4xx_hal_rtc_ex.c **** 
 802:Drivers/STM32F4xx_HAL_Driver/Src/stm32f4xx_hal_rtc_ex.c ****       /* Process Unlocked */
 803:Drivers/STM32F4xx_HAL_Driver/Src/stm32f4xx_hal_rtc_ex.c ****       __HAL_UNLOCK(hrtc);
 804:Drivers/STM32F4xx_HAL_Driver/Src/stm32f4xx_hal_rtc_ex.c **** 
 805:Drivers/STM32F4xx_HAL_Driver/Src/stm32f4xx_hal_rtc_ex.c ****       return HAL_TIMEOUT;
 806:Drivers/STM32F4xx_HAL_Driver/Src/stm32f4xx_hal_rtc_ex.c ****     }
 807:Drivers/STM32F4xx_HAL_Driver/Src/stm32f4xx_hal_rtc_ex.c ****   }
 808:Drivers/STM32F4xx_HAL_Driver/Src/stm32f4xx_hal_rtc_ex.c **** 
 809:Drivers/STM32F4xx_HAL_Driver/Src/stm32f4xx_hal_rtc_ex.c ****   /* Clear the Wake-up Timer clock source bits in CR register */
 810:Drivers/STM32F4xx_HAL_Driver/Src/stm32f4xx_hal_rtc_ex.c ****   hrtc->Instance->CR &= (uint32_t)~RTC_CR_WUCKSEL;
 1506              		.loc 1 810 3 is_stmt 1 view .LVU538
 1507              		.loc 1 810 22 is_stmt 0 view .LVU539
 1508 006c 9368     		ldr	r3, [r2, #8]
 1509 006e 23F00703 		bic	r3, r3, #7
 1510 0072 9360     		str	r3, [r2, #8]
 811:Drivers/STM32F4xx_HAL_Driver/Src/stm32f4xx_hal_rtc_ex.c **** 
 812:Drivers/STM32F4xx_HAL_Driver/Src/stm32f4xx_hal_rtc_ex.c ****   /* Configure the clock source */
 813:Drivers/STM32F4xx_HAL_Driver/Src/stm32f4xx_hal_rtc_ex.c ****   hrtc->Instance->CR |= (uint32_t)WakeUpClock;
ARM GAS  /tmp/cchQ4tcR.s 			page 45


 1511              		.loc 1 813 3 is_stmt 1 view .LVU540
 1512              		.loc 1 813 22 is_stmt 0 view .LVU541
 1513 0074 9368     		ldr	r3, [r2, #8]
 1514 0076 1F43     		orrs	r7, r7, r3
 1515              	.LVL100:
 1516              		.loc 1 813 22 view .LVU542
 1517 0078 9760     		str	r7, [r2, #8]
 814:Drivers/STM32F4xx_HAL_Driver/Src/stm32f4xx_hal_rtc_ex.c **** 
 815:Drivers/STM32F4xx_HAL_Driver/Src/stm32f4xx_hal_rtc_ex.c ****   /* Configure the Wake-up Timer counter */
 816:Drivers/STM32F4xx_HAL_Driver/Src/stm32f4xx_hal_rtc_ex.c ****   hrtc->Instance->WUTR = (uint32_t)WakeUpCounter;
 1518              		.loc 1 816 3 is_stmt 1 view .LVU543
 1519              		.loc 1 816 24 is_stmt 0 view .LVU544
 1520 007a 5661     		str	r6, [r2, #20]
 817:Drivers/STM32F4xx_HAL_Driver/Src/stm32f4xx_hal_rtc_ex.c **** 
 818:Drivers/STM32F4xx_HAL_Driver/Src/stm32f4xx_hal_rtc_ex.c ****    /* Enable the Wake-up Timer */
 819:Drivers/STM32F4xx_HAL_Driver/Src/stm32f4xx_hal_rtc_ex.c ****   __HAL_RTC_WAKEUPTIMER_ENABLE(hrtc);
 1521              		.loc 1 819 3 is_stmt 1 view .LVU545
 1522 007c 9368     		ldr	r3, [r2, #8]
 1523 007e 43F48063 		orr	r3, r3, #1024
 1524 0082 9360     		str	r3, [r2, #8]
 820:Drivers/STM32F4xx_HAL_Driver/Src/stm32f4xx_hal_rtc_ex.c **** 
 821:Drivers/STM32F4xx_HAL_Driver/Src/stm32f4xx_hal_rtc_ex.c ****   /* Enable the write protection for RTC registers */
 822:Drivers/STM32F4xx_HAL_Driver/Src/stm32f4xx_hal_rtc_ex.c ****   __HAL_RTC_WRITEPROTECTION_ENABLE(hrtc);
 1525              		.loc 1 822 3 view .LVU546
 1526              		.loc 1 822 3 view .LVU547
 823:Drivers/STM32F4xx_HAL_Driver/Src/stm32f4xx_hal_rtc_ex.c **** 
 824:Drivers/STM32F4xx_HAL_Driver/Src/stm32f4xx_hal_rtc_ex.c ****   hrtc->State = HAL_RTC_STATE_READY;
 825:Drivers/STM32F4xx_HAL_Driver/Src/stm32f4xx_hal_rtc_ex.c **** 
 826:Drivers/STM32F4xx_HAL_Driver/Src/stm32f4xx_hal_rtc_ex.c ****   /* Process Unlocked */
 827:Drivers/STM32F4xx_HAL_Driver/Src/stm32f4xx_hal_rtc_ex.c ****   __HAL_UNLOCK(hrtc);
 1527              		.loc 1 827 3 is_stmt 0 view .LVU548
 1528 0084 0021     		movs	r1, #0
 822:Drivers/STM32F4xx_HAL_Driver/Src/stm32f4xx_hal_rtc_ex.c **** 
 1529              		.loc 1 822 3 view .LVU549
 1530 0086 FF20     		movs	r0, #255
 824:Drivers/STM32F4xx_HAL_Driver/Src/stm32f4xx_hal_rtc_ex.c **** 
 1531              		.loc 1 824 15 view .LVU550
 1532 0088 0123     		movs	r3, #1
 822:Drivers/STM32F4xx_HAL_Driver/Src/stm32f4xx_hal_rtc_ex.c **** 
 1533              		.loc 1 822 3 view .LVU551
 1534 008a 5062     		str	r0, [r2, #36]
 822:Drivers/STM32F4xx_HAL_Driver/Src/stm32f4xx_hal_rtc_ex.c **** 
 1535              		.loc 1 822 3 is_stmt 1 view .LVU552
 824:Drivers/STM32F4xx_HAL_Driver/Src/stm32f4xx_hal_rtc_ex.c **** 
 1536              		.loc 1 824 3 view .LVU553
 824:Drivers/STM32F4xx_HAL_Driver/Src/stm32f4xx_hal_rtc_ex.c **** 
 1537              		.loc 1 824 15 is_stmt 0 view .LVU554
 1538 008c 6B77     		strb	r3, [r5, #29]
 1539              		.loc 1 827 3 is_stmt 1 view .LVU555
 1540              		.loc 1 827 3 view .LVU556
 1541 008e 2977     		strb	r1, [r5, #28]
 1542              		.loc 1 827 3 view .LVU557
 828:Drivers/STM32F4xx_HAL_Driver/Src/stm32f4xx_hal_rtc_ex.c **** 
 829:Drivers/STM32F4xx_HAL_Driver/Src/stm32f4xx_hal_rtc_ex.c ****   return HAL_OK;
 1543              		.loc 1 829 3 view .LVU558
 1544              		.loc 1 829 10 is_stmt 0 view .LVU559
 1545 0090 0846     		mov	r0, r1
ARM GAS  /tmp/cchQ4tcR.s 			page 46


 830:Drivers/STM32F4xx_HAL_Driver/Src/stm32f4xx_hal_rtc_ex.c **** }
 1546              		.loc 1 830 1 view .LVU560
 1547 0092 BDE8F081 		pop	{r4, r5, r6, r7, r8, pc}
 1548              	.LVL101:
 1549              	.L134:
 798:Drivers/STM32F4xx_HAL_Driver/Src/stm32f4xx_hal_rtc_ex.c **** 
 1550              		.loc 1 798 7 is_stmt 1 view .LVU561
 798:Drivers/STM32F4xx_HAL_Driver/Src/stm32f4xx_hal_rtc_ex.c **** 
 1551              		.loc 1 798 7 view .LVU562
 1552 0096 2A68     		ldr	r2, [r5]
 800:Drivers/STM32F4xx_HAL_Driver/Src/stm32f4xx_hal_rtc_ex.c **** 
 1553              		.loc 1 800 19 is_stmt 0 view .LVU563
 1554 0098 0323     		movs	r3, #3
 798:Drivers/STM32F4xx_HAL_Driver/Src/stm32f4xx_hal_rtc_ex.c **** 
 1555              		.loc 1 798 7 view .LVU564
 1556 009a FF21     		movs	r1, #255
 1557 009c 5162     		str	r1, [r2, #36]
 798:Drivers/STM32F4xx_HAL_Driver/Src/stm32f4xx_hal_rtc_ex.c **** 
 1558              		.loc 1 798 7 is_stmt 1 view .LVU565
 800:Drivers/STM32F4xx_HAL_Driver/Src/stm32f4xx_hal_rtc_ex.c **** 
 1559              		.loc 1 800 7 view .LVU566
 800:Drivers/STM32F4xx_HAL_Driver/Src/stm32f4xx_hal_rtc_ex.c **** 
 1560              		.loc 1 800 19 is_stmt 0 view .LVU567
 1561 009e 6B77     		strb	r3, [r5, #29]
 803:Drivers/STM32F4xx_HAL_Driver/Src/stm32f4xx_hal_rtc_ex.c **** 
 1562              		.loc 1 803 7 is_stmt 1 view .LVU568
 803:Drivers/STM32F4xx_HAL_Driver/Src/stm32f4xx_hal_rtc_ex.c **** 
 1563              		.loc 1 803 7 view .LVU569
 1564 00a0 2C77     		strb	r4, [r5, #28]
 803:Drivers/STM32F4xx_HAL_Driver/Src/stm32f4xx_hal_rtc_ex.c **** 
 1565              		.loc 1 803 7 view .LVU570
 805:Drivers/STM32F4xx_HAL_Driver/Src/stm32f4xx_hal_rtc_ex.c ****     }
 1566              		.loc 1 805 7 view .LVU571
 805:Drivers/STM32F4xx_HAL_Driver/Src/stm32f4xx_hal_rtc_ex.c ****     }
 1567              		.loc 1 805 14 is_stmt 0 view .LVU572
 1568 00a2 1846     		mov	r0, r3
 1569              		.loc 1 830 1 view .LVU573
 1570 00a4 BDE8F081 		pop	{r4, r5, r6, r7, r8, pc}
 1571              	.LVL102:
 1572              	.L133:
 776:Drivers/STM32F4xx_HAL_Driver/Src/stm32f4xx_hal_rtc_ex.c **** 
 1573              		.loc 1 776 9 is_stmt 1 view .LVU574
 776:Drivers/STM32F4xx_HAL_Driver/Src/stm32f4xx_hal_rtc_ex.c **** 
 1574              		.loc 1 776 9 view .LVU575
 1575 00a8 2968     		ldr	r1, [r5]
 778:Drivers/STM32F4xx_HAL_Driver/Src/stm32f4xx_hal_rtc_ex.c **** 
 1576              		.loc 1 778 21 is_stmt 0 view .LVU576
 1577 00aa 0323     		movs	r3, #3
 776:Drivers/STM32F4xx_HAL_Driver/Src/stm32f4xx_hal_rtc_ex.c **** 
 1578              		.loc 1 776 9 view .LVU577
 1579 00ac FF20     		movs	r0, #255
 781:Drivers/STM32F4xx_HAL_Driver/Src/stm32f4xx_hal_rtc_ex.c **** 
 1580              		.loc 1 781 9 view .LVU578
 1581 00ae 0022     		movs	r2, #0
 776:Drivers/STM32F4xx_HAL_Driver/Src/stm32f4xx_hal_rtc_ex.c **** 
 1582              		.loc 1 776 9 view .LVU579
 1583 00b0 4862     		str	r0, [r1, #36]
ARM GAS  /tmp/cchQ4tcR.s 			page 47


 776:Drivers/STM32F4xx_HAL_Driver/Src/stm32f4xx_hal_rtc_ex.c **** 
 1584              		.loc 1 776 9 is_stmt 1 view .LVU580
 778:Drivers/STM32F4xx_HAL_Driver/Src/stm32f4xx_hal_rtc_ex.c **** 
 1585              		.loc 1 778 9 view .LVU581
 778:Drivers/STM32F4xx_HAL_Driver/Src/stm32f4xx_hal_rtc_ex.c **** 
 1586              		.loc 1 778 21 is_stmt 0 view .LVU582
 1587 00b2 6B77     		strb	r3, [r5, #29]
 781:Drivers/STM32F4xx_HAL_Driver/Src/stm32f4xx_hal_rtc_ex.c **** 
 1588              		.loc 1 781 9 is_stmt 1 view .LVU583
 781:Drivers/STM32F4xx_HAL_Driver/Src/stm32f4xx_hal_rtc_ex.c **** 
 1589              		.loc 1 781 9 view .LVU584
 1590 00b4 2A77     		strb	r2, [r5, #28]
 781:Drivers/STM32F4xx_HAL_Driver/Src/stm32f4xx_hal_rtc_ex.c **** 
 1591              		.loc 1 781 9 view .LVU585
 783:Drivers/STM32F4xx_HAL_Driver/Src/stm32f4xx_hal_rtc_ex.c ****       }
 1592              		.loc 1 783 9 view .LVU586
 783:Drivers/STM32F4xx_HAL_Driver/Src/stm32f4xx_hal_rtc_ex.c ****       }
 1593              		.loc 1 783 16 is_stmt 0 view .LVU587
 1594 00b6 1846     		mov	r0, r3
 1595              		.loc 1 830 1 view .LVU588
 1596 00b8 BDE8F081 		pop	{r4, r5, r6, r7, r8, pc}
 1597              	.LVL103:
 1598              	.L123:
 1599              		.cfi_def_cfa_offset 0
 1600              		.cfi_restore 4
 1601              		.cfi_restore 5
 1602              		.cfi_restore 6
 1603              		.cfi_restore 7
 1604              		.cfi_restore 8
 1605              		.cfi_restore 14
 758:Drivers/STM32F4xx_HAL_Driver/Src/stm32f4xx_hal_rtc_ex.c **** 
 1606              		.loc 1 758 3 view .LVU589
 1607 00bc 0220     		movs	r0, #2
 1608              	.LVL104:
 1609              		.loc 1 830 1 view .LVU590
 1610 00be 7047     		bx	lr
 1611              		.cfi_endproc
 1612              	.LFE249:
 1614              		.section	.text.HAL_RTCEx_SetWakeUpTimer_IT,"ax",%progbits
 1615              		.align	1
 1616              		.p2align 2,,3
 1617              		.global	HAL_RTCEx_SetWakeUpTimer_IT
 1618              		.syntax unified
 1619              		.thumb
 1620              		.thumb_func
 1622              	HAL_RTCEx_SetWakeUpTimer_IT:
 1623              	.LVL105:
 1624              	.LFB250:
 831:Drivers/STM32F4xx_HAL_Driver/Src/stm32f4xx_hal_rtc_ex.c **** 
 832:Drivers/STM32F4xx_HAL_Driver/Src/stm32f4xx_hal_rtc_ex.c **** /**
 833:Drivers/STM32F4xx_HAL_Driver/Src/stm32f4xx_hal_rtc_ex.c ****   * @brief  Sets wake up timer with interrupt
 834:Drivers/STM32F4xx_HAL_Driver/Src/stm32f4xx_hal_rtc_ex.c ****   * @param  hrtc pointer to a RTC_HandleTypeDef structure that contains
 835:Drivers/STM32F4xx_HAL_Driver/Src/stm32f4xx_hal_rtc_ex.c ****   *                the configuration information for RTC.
 836:Drivers/STM32F4xx_HAL_Driver/Src/stm32f4xx_hal_rtc_ex.c ****   * @param  WakeUpCounter Wake up counter
 837:Drivers/STM32F4xx_HAL_Driver/Src/stm32f4xx_hal_rtc_ex.c ****   * @param  WakeUpClock Wake up clock
 838:Drivers/STM32F4xx_HAL_Driver/Src/stm32f4xx_hal_rtc_ex.c ****   * @retval HAL status
 839:Drivers/STM32F4xx_HAL_Driver/Src/stm32f4xx_hal_rtc_ex.c ****   */
ARM GAS  /tmp/cchQ4tcR.s 			page 48


 840:Drivers/STM32F4xx_HAL_Driver/Src/stm32f4xx_hal_rtc_ex.c **** HAL_StatusTypeDef HAL_RTCEx_SetWakeUpTimer_IT(RTC_HandleTypeDef *hrtc, uint32_t WakeUpCounter, uint
 841:Drivers/STM32F4xx_HAL_Driver/Src/stm32f4xx_hal_rtc_ex.c **** {
 1625              		.loc 1 841 1 is_stmt 1 view -0
 1626              		.cfi_startproc
 1627              		@ args = 0, pretend = 0, frame = 8
 1628              		@ frame_needed = 0, uses_anonymous_args = 0
 1629              		@ link register save eliminated.
 842:Drivers/STM32F4xx_HAL_Driver/Src/stm32f4xx_hal_rtc_ex.c ****   __IO uint32_t count;
 1630              		.loc 1 842 3 view .LVU592
 843:Drivers/STM32F4xx_HAL_Driver/Src/stm32f4xx_hal_rtc_ex.c **** 
 844:Drivers/STM32F4xx_HAL_Driver/Src/stm32f4xx_hal_rtc_ex.c ****   /* Check the parameters */
 845:Drivers/STM32F4xx_HAL_Driver/Src/stm32f4xx_hal_rtc_ex.c ****   assert_param(IS_RTC_WAKEUP_CLOCK(WakeUpClock));
 1631              		.loc 1 845 3 view .LVU593
 846:Drivers/STM32F4xx_HAL_Driver/Src/stm32f4xx_hal_rtc_ex.c ****   assert_param(IS_RTC_WAKEUP_COUNTER(WakeUpCounter));
 1632              		.loc 1 846 3 view .LVU594
 847:Drivers/STM32F4xx_HAL_Driver/Src/stm32f4xx_hal_rtc_ex.c **** 
 848:Drivers/STM32F4xx_HAL_Driver/Src/stm32f4xx_hal_rtc_ex.c ****   /* Process Locked */
 849:Drivers/STM32F4xx_HAL_Driver/Src/stm32f4xx_hal_rtc_ex.c ****   __HAL_LOCK(hrtc);
 1633              		.loc 1 849 3 view .LVU595
 1634              		.loc 1 849 3 view .LVU596
 1635 0000 037F     		ldrb	r3, [r0, #28]	@ zero_extendqisi2
 1636 0002 012B     		cmp	r3, #1
 1637 0004 6AD0     		beq	.L143
 1638              		.loc 1 849 3 discriminator 2 view .LVU597
 1639 0006 8446     		mov	ip, r0
 850:Drivers/STM32F4xx_HAL_Driver/Src/stm32f4xx_hal_rtc_ex.c **** 
 851:Drivers/STM32F4xx_HAL_Driver/Src/stm32f4xx_hal_rtc_ex.c ****   hrtc->State = HAL_RTC_STATE_BUSY;
 852:Drivers/STM32F4xx_HAL_Driver/Src/stm32f4xx_hal_rtc_ex.c **** 
 853:Drivers/STM32F4xx_HAL_Driver/Src/stm32f4xx_hal_rtc_ex.c ****   /* Disable the write protection for RTC registers */
 854:Drivers/STM32F4xx_HAL_Driver/Src/stm32f4xx_hal_rtc_ex.c ****   __HAL_RTC_WRITEPROTECTION_DISABLE(hrtc);
 1640              		.loc 1 854 3 is_stmt 0 discriminator 2 view .LVU598
 1641 0008 0368     		ldr	r3, [r0]
 849:Drivers/STM32F4xx_HAL_Driver/Src/stm32f4xx_hal_rtc_ex.c **** 
 1642              		.loc 1 849 3 discriminator 2 view .LVU599
 1643 000a 0120     		movs	r0, #1
 1644              	.LVL106:
 841:Drivers/STM32F4xx_HAL_Driver/Src/stm32f4xx_hal_rtc_ex.c ****   __IO uint32_t count;
 1645              		.loc 1 841 1 discriminator 2 view .LVU600
 1646 000c 30B4     		push	{r4, r5}
 1647              		.cfi_def_cfa_offset 8
 1648              		.cfi_offset 4, -8
 1649              		.cfi_offset 5, -4
 849:Drivers/STM32F4xx_HAL_Driver/Src/stm32f4xx_hal_rtc_ex.c **** 
 1650              		.loc 1 849 3 discriminator 2 view .LVU601
 1651 000e 8CF81C00 		strb	r0, [ip, #28]
 849:Drivers/STM32F4xx_HAL_Driver/Src/stm32f4xx_hal_rtc_ex.c **** 
 1652              		.loc 1 849 3 is_stmt 1 discriminator 2 view .LVU602
 851:Drivers/STM32F4xx_HAL_Driver/Src/stm32f4xx_hal_rtc_ex.c **** 
 1653              		.loc 1 851 3 discriminator 2 view .LVU603
 851:Drivers/STM32F4xx_HAL_Driver/Src/stm32f4xx_hal_rtc_ex.c **** 
 1654              		.loc 1 851 15 is_stmt 0 discriminator 2 view .LVU604
 1655 0012 0220     		movs	r0, #2
 1656 0014 8CF81D00 		strb	r0, [ip, #29]
 1657              		.loc 1 854 3 is_stmt 1 discriminator 2 view .LVU605
 1658              		.loc 1 854 3 discriminator 2 view .LVU606
 1659 0018 CA20     		movs	r0, #202
 1660 001a 5862     		str	r0, [r3, #36]
ARM GAS  /tmp/cchQ4tcR.s 			page 49


 1661              		.loc 1 854 3 discriminator 2 view .LVU607
 1662 001c 5320     		movs	r0, #83
 1663 001e 5862     		str	r0, [r3, #36]
 1664              		.loc 1 854 3 discriminator 2 view .LVU608
 855:Drivers/STM32F4xx_HAL_Driver/Src/stm32f4xx_hal_rtc_ex.c **** 
 856:Drivers/STM32F4xx_HAL_Driver/Src/stm32f4xx_hal_rtc_ex.c ****   /* Check RTC WUTWF flag is reset only when wake up timer enabled */
 857:Drivers/STM32F4xx_HAL_Driver/Src/stm32f4xx_hal_rtc_ex.c ****   if((hrtc->Instance->CR & RTC_CR_WUTE) != RESET)
 1665              		.loc 1 857 3 discriminator 2 view .LVU609
 1666              		.loc 1 857 21 is_stmt 0 discriminator 2 view .LVU610
 1667 0020 9868     		ldr	r0, [r3, #8]
 1668              		.loc 1 857 5 discriminator 2 view .LVU611
 1669 0022 10F4806F 		tst	r0, #1024
 858:Drivers/STM32F4xx_HAL_Driver/Src/stm32f4xx_hal_rtc_ex.c ****   {
 859:Drivers/STM32F4xx_HAL_Driver/Src/stm32f4xx_hal_rtc_ex.c ****     /* Wait till RTC WUTWF flag is reset and if Time out is reached exit */
 860:Drivers/STM32F4xx_HAL_Driver/Src/stm32f4xx_hal_rtc_ex.c ****     count = RTC_TIMEOUT_VALUE  * (SystemCoreClock / 32U / 1000U);
 1670              		.loc 1 860 57 discriminator 2 view .LVU612
 1671 0026 2E48     		ldr	r0, .L153
 1672 0028 0568     		ldr	r5, [r0]
 1673 002a 2E48     		ldr	r0, .L153+4
 1674 002c A0FB0505 		umull	r0, r5, r0, r5
 1675 0030 4FEAD525 		lsr	r5, r5, #11
 1676              		.loc 1 860 32 discriminator 2 view .LVU613
 1677 0034 4FF47A70 		mov	r0, #1000
 841:Drivers/STM32F4xx_HAL_Driver/Src/stm32f4xx_hal_rtc_ex.c ****   __IO uint32_t count;
 1678              		.loc 1 841 1 discriminator 2 view .LVU614
 1679 0038 82B0     		sub	sp, sp, #8
 1680              		.cfi_def_cfa_offset 16
 1681              		.loc 1 860 32 discriminator 2 view .LVU615
 1682 003a 00FB05F5 		mul	r5, r0, r5
 857:Drivers/STM32F4xx_HAL_Driver/Src/stm32f4xx_hal_rtc_ex.c ****   {
 1683              		.loc 1 857 5 discriminator 2 view .LVU616
 1684 003e 14D0     		beq	.L140
 1685              		.loc 1 860 5 is_stmt 1 view .LVU617
 1686              		.loc 1 860 11 is_stmt 0 view .LVU618
 1687 0040 0195     		str	r5, [sp, #4]
 1688 0042 02E0     		b	.L139
 1689              	.L138:
 861:Drivers/STM32F4xx_HAL_Driver/Src/stm32f4xx_hal_rtc_ex.c ****     do
 862:Drivers/STM32F4xx_HAL_Driver/Src/stm32f4xx_hal_rtc_ex.c ****     {
 863:Drivers/STM32F4xx_HAL_Driver/Src/stm32f4xx_hal_rtc_ex.c ****       if(count-- == 0U)
 864:Drivers/STM32F4xx_HAL_Driver/Src/stm32f4xx_hal_rtc_ex.c ****       {
 865:Drivers/STM32F4xx_HAL_Driver/Src/stm32f4xx_hal_rtc_ex.c ****         /* Enable the write protection for RTC registers */
 866:Drivers/STM32F4xx_HAL_Driver/Src/stm32f4xx_hal_rtc_ex.c ****         __HAL_RTC_WRITEPROTECTION_ENABLE(hrtc);
 867:Drivers/STM32F4xx_HAL_Driver/Src/stm32f4xx_hal_rtc_ex.c **** 
 868:Drivers/STM32F4xx_HAL_Driver/Src/stm32f4xx_hal_rtc_ex.c ****         hrtc->State = HAL_RTC_STATE_TIMEOUT;
 869:Drivers/STM32F4xx_HAL_Driver/Src/stm32f4xx_hal_rtc_ex.c **** 
 870:Drivers/STM32F4xx_HAL_Driver/Src/stm32f4xx_hal_rtc_ex.c ****         /* Process Unlocked */
 871:Drivers/STM32F4xx_HAL_Driver/Src/stm32f4xx_hal_rtc_ex.c ****         __HAL_UNLOCK(hrtc);
 872:Drivers/STM32F4xx_HAL_Driver/Src/stm32f4xx_hal_rtc_ex.c **** 
 873:Drivers/STM32F4xx_HAL_Driver/Src/stm32f4xx_hal_rtc_ex.c ****         return HAL_TIMEOUT;
 874:Drivers/STM32F4xx_HAL_Driver/Src/stm32f4xx_hal_rtc_ex.c ****       }
 875:Drivers/STM32F4xx_HAL_Driver/Src/stm32f4xx_hal_rtc_ex.c ****     }
 876:Drivers/STM32F4xx_HAL_Driver/Src/stm32f4xx_hal_rtc_ex.c ****     while(__HAL_RTC_WAKEUPTIMER_GET_FLAG(hrtc, RTC_FLAG_WUTWF) == SET);
 1690              		.loc 1 876 11 view .LVU619
 1691 0044 D868     		ldr	r0, [r3, #12]
 1692              		.loc 1 876 5 view .LVU620
 1693 0046 4407     		lsls	r4, r0, #29
ARM GAS  /tmp/cchQ4tcR.s 			page 50


 1694 0048 0FD5     		bpl	.L140
 1695              	.L139:
 861:Drivers/STM32F4xx_HAL_Driver/Src/stm32f4xx_hal_rtc_ex.c ****     do
 1696              		.loc 1 861 5 is_stmt 1 view .LVU621
 863:Drivers/STM32F4xx_HAL_Driver/Src/stm32f4xx_hal_rtc_ex.c ****       {
 1697              		.loc 1 863 7 view .LVU622
 1698              		.loc 1 876 10 view .LVU623
 863:Drivers/STM32F4xx_HAL_Driver/Src/stm32f4xx_hal_rtc_ex.c ****       {
 1699              		.loc 1 863 15 is_stmt 0 view .LVU624
 1700 004a 019C     		ldr	r4, [sp, #4]
 1701 004c 601E     		subs	r0, r4, #1
 1702 004e 0190     		str	r0, [sp, #4]
 863:Drivers/STM32F4xx_HAL_Driver/Src/stm32f4xx_hal_rtc_ex.c ****       {
 1703              		.loc 1 863 9 view .LVU625
 1704 0050 002C     		cmp	r4, #0
 1705 0052 F7D1     		bne	.L138
 1706              	.L151:
 877:Drivers/STM32F4xx_HAL_Driver/Src/stm32f4xx_hal_rtc_ex.c ****   }
 878:Drivers/STM32F4xx_HAL_Driver/Src/stm32f4xx_hal_rtc_ex.c **** 
 879:Drivers/STM32F4xx_HAL_Driver/Src/stm32f4xx_hal_rtc_ex.c ****   __HAL_RTC_WAKEUPTIMER_DISABLE(hrtc);
 880:Drivers/STM32F4xx_HAL_Driver/Src/stm32f4xx_hal_rtc_ex.c **** 
 881:Drivers/STM32F4xx_HAL_Driver/Src/stm32f4xx_hal_rtc_ex.c ****   /* Wait till RTC WUTWF flag is set and if Time out is reached exit */
 882:Drivers/STM32F4xx_HAL_Driver/Src/stm32f4xx_hal_rtc_ex.c ****   count = RTC_TIMEOUT_VALUE  * (SystemCoreClock / 32U / 1000U);
 883:Drivers/STM32F4xx_HAL_Driver/Src/stm32f4xx_hal_rtc_ex.c ****   do
 884:Drivers/STM32F4xx_HAL_Driver/Src/stm32f4xx_hal_rtc_ex.c ****   {
 885:Drivers/STM32F4xx_HAL_Driver/Src/stm32f4xx_hal_rtc_ex.c ****     if(count-- == 0U)
 886:Drivers/STM32F4xx_HAL_Driver/Src/stm32f4xx_hal_rtc_ex.c ****     {
 887:Drivers/STM32F4xx_HAL_Driver/Src/stm32f4xx_hal_rtc_ex.c ****       /* Enable the write protection for RTC registers */
 888:Drivers/STM32F4xx_HAL_Driver/Src/stm32f4xx_hal_rtc_ex.c ****       __HAL_RTC_WRITEPROTECTION_ENABLE(hrtc);
 1707              		.loc 1 888 7 is_stmt 1 view .LVU626
 1708              		.loc 1 888 7 view .LVU627
 889:Drivers/STM32F4xx_HAL_Driver/Src/stm32f4xx_hal_rtc_ex.c **** 
 890:Drivers/STM32F4xx_HAL_Driver/Src/stm32f4xx_hal_rtc_ex.c ****       hrtc->State = HAL_RTC_STATE_TIMEOUT;
 1709              		.loc 1 890 19 is_stmt 0 view .LVU628
 1710 0054 0322     		movs	r2, #3
 1711              	.LVL107:
 888:Drivers/STM32F4xx_HAL_Driver/Src/stm32f4xx_hal_rtc_ex.c **** 
 1712              		.loc 1 888 7 view .LVU629
 1713 0056 FF21     		movs	r1, #255
 1714              	.LVL108:
 891:Drivers/STM32F4xx_HAL_Driver/Src/stm32f4xx_hal_rtc_ex.c **** 
 892:Drivers/STM32F4xx_HAL_Driver/Src/stm32f4xx_hal_rtc_ex.c ****       /* Process Unlocked */
 893:Drivers/STM32F4xx_HAL_Driver/Src/stm32f4xx_hal_rtc_ex.c ****       __HAL_UNLOCK(hrtc);
 894:Drivers/STM32F4xx_HAL_Driver/Src/stm32f4xx_hal_rtc_ex.c **** 
 895:Drivers/STM32F4xx_HAL_Driver/Src/stm32f4xx_hal_rtc_ex.c ****       return HAL_TIMEOUT;
 1715              		.loc 1 895 14 view .LVU630
 1716 0058 1046     		mov	r0, r2
 888:Drivers/STM32F4xx_HAL_Driver/Src/stm32f4xx_hal_rtc_ex.c **** 
 1717              		.loc 1 888 7 view .LVU631
 1718 005a 5962     		str	r1, [r3, #36]
 888:Drivers/STM32F4xx_HAL_Driver/Src/stm32f4xx_hal_rtc_ex.c **** 
 1719              		.loc 1 888 7 is_stmt 1 view .LVU632
 890:Drivers/STM32F4xx_HAL_Driver/Src/stm32f4xx_hal_rtc_ex.c **** 
 1720              		.loc 1 890 7 view .LVU633
 890:Drivers/STM32F4xx_HAL_Driver/Src/stm32f4xx_hal_rtc_ex.c **** 
 1721              		.loc 1 890 19 is_stmt 0 view .LVU634
 1722 005c 8CF81D20 		strb	r2, [ip, #29]
ARM GAS  /tmp/cchQ4tcR.s 			page 51


 893:Drivers/STM32F4xx_HAL_Driver/Src/stm32f4xx_hal_rtc_ex.c **** 
 1723              		.loc 1 893 7 is_stmt 1 view .LVU635
 893:Drivers/STM32F4xx_HAL_Driver/Src/stm32f4xx_hal_rtc_ex.c **** 
 1724              		.loc 1 893 7 view .LVU636
 1725 0060 8CF81C40 		strb	r4, [ip, #28]
 893:Drivers/STM32F4xx_HAL_Driver/Src/stm32f4xx_hal_rtc_ex.c **** 
 1726              		.loc 1 893 7 view .LVU637
 1727              		.loc 1 895 7 view .LVU638
 896:Drivers/STM32F4xx_HAL_Driver/Src/stm32f4xx_hal_rtc_ex.c ****     }
 897:Drivers/STM32F4xx_HAL_Driver/Src/stm32f4xx_hal_rtc_ex.c ****   }
 898:Drivers/STM32F4xx_HAL_Driver/Src/stm32f4xx_hal_rtc_ex.c ****   while(__HAL_RTC_WAKEUPTIMER_GET_FLAG(hrtc, RTC_FLAG_WUTWF) == RESET);
 899:Drivers/STM32F4xx_HAL_Driver/Src/stm32f4xx_hal_rtc_ex.c **** 
 900:Drivers/STM32F4xx_HAL_Driver/Src/stm32f4xx_hal_rtc_ex.c ****   /* Configure the Wake-up Timer counter */
 901:Drivers/STM32F4xx_HAL_Driver/Src/stm32f4xx_hal_rtc_ex.c ****   hrtc->Instance->WUTR = (uint32_t)WakeUpCounter;
 902:Drivers/STM32F4xx_HAL_Driver/Src/stm32f4xx_hal_rtc_ex.c **** 
 903:Drivers/STM32F4xx_HAL_Driver/Src/stm32f4xx_hal_rtc_ex.c ****   /* Clear the Wake-up Timer clock source bits in CR register */
 904:Drivers/STM32F4xx_HAL_Driver/Src/stm32f4xx_hal_rtc_ex.c ****   hrtc->Instance->CR &= (uint32_t)~RTC_CR_WUCKSEL;
 905:Drivers/STM32F4xx_HAL_Driver/Src/stm32f4xx_hal_rtc_ex.c **** 
 906:Drivers/STM32F4xx_HAL_Driver/Src/stm32f4xx_hal_rtc_ex.c ****   /* Configure the clock source */
 907:Drivers/STM32F4xx_HAL_Driver/Src/stm32f4xx_hal_rtc_ex.c ****   hrtc->Instance->CR |= (uint32_t)WakeUpClock;
 908:Drivers/STM32F4xx_HAL_Driver/Src/stm32f4xx_hal_rtc_ex.c **** 
 909:Drivers/STM32F4xx_HAL_Driver/Src/stm32f4xx_hal_rtc_ex.c ****   /* RTC WakeUpTimer Interrupt Configuration: EXTI configuration */
 910:Drivers/STM32F4xx_HAL_Driver/Src/stm32f4xx_hal_rtc_ex.c ****   __HAL_RTC_WAKEUPTIMER_EXTI_ENABLE_IT();
 911:Drivers/STM32F4xx_HAL_Driver/Src/stm32f4xx_hal_rtc_ex.c **** 
 912:Drivers/STM32F4xx_HAL_Driver/Src/stm32f4xx_hal_rtc_ex.c ****   EXTI->RTSR |= RTC_EXTI_LINE_WAKEUPTIMER_EVENT;
 913:Drivers/STM32F4xx_HAL_Driver/Src/stm32f4xx_hal_rtc_ex.c **** 
 914:Drivers/STM32F4xx_HAL_Driver/Src/stm32f4xx_hal_rtc_ex.c ****   /* Clear RTC Wake Up timer Flag */
 915:Drivers/STM32F4xx_HAL_Driver/Src/stm32f4xx_hal_rtc_ex.c ****   __HAL_RTC_WAKEUPTIMER_CLEAR_FLAG(hrtc, RTC_FLAG_WUTF);
 916:Drivers/STM32F4xx_HAL_Driver/Src/stm32f4xx_hal_rtc_ex.c **** 
 917:Drivers/STM32F4xx_HAL_Driver/Src/stm32f4xx_hal_rtc_ex.c ****   /* Configure the Interrupt in the RTC_CR register */
 918:Drivers/STM32F4xx_HAL_Driver/Src/stm32f4xx_hal_rtc_ex.c ****   __HAL_RTC_WAKEUPTIMER_ENABLE_IT(hrtc,RTC_IT_WUT);
 919:Drivers/STM32F4xx_HAL_Driver/Src/stm32f4xx_hal_rtc_ex.c **** 
 920:Drivers/STM32F4xx_HAL_Driver/Src/stm32f4xx_hal_rtc_ex.c ****   /* Enable the Wake-up Timer */
 921:Drivers/STM32F4xx_HAL_Driver/Src/stm32f4xx_hal_rtc_ex.c ****   __HAL_RTC_WAKEUPTIMER_ENABLE(hrtc);
 922:Drivers/STM32F4xx_HAL_Driver/Src/stm32f4xx_hal_rtc_ex.c **** 
 923:Drivers/STM32F4xx_HAL_Driver/Src/stm32f4xx_hal_rtc_ex.c ****   /* Enable the write protection for RTC registers */
 924:Drivers/STM32F4xx_HAL_Driver/Src/stm32f4xx_hal_rtc_ex.c ****   __HAL_RTC_WRITEPROTECTION_ENABLE(hrtc);
 925:Drivers/STM32F4xx_HAL_Driver/Src/stm32f4xx_hal_rtc_ex.c **** 
 926:Drivers/STM32F4xx_HAL_Driver/Src/stm32f4xx_hal_rtc_ex.c ****   hrtc->State = HAL_RTC_STATE_READY;
 927:Drivers/STM32F4xx_HAL_Driver/Src/stm32f4xx_hal_rtc_ex.c **** 
 928:Drivers/STM32F4xx_HAL_Driver/Src/stm32f4xx_hal_rtc_ex.c ****   /* Process Unlocked */
 929:Drivers/STM32F4xx_HAL_Driver/Src/stm32f4xx_hal_rtc_ex.c ****   __HAL_UNLOCK(hrtc);
 930:Drivers/STM32F4xx_HAL_Driver/Src/stm32f4xx_hal_rtc_ex.c **** 
 931:Drivers/STM32F4xx_HAL_Driver/Src/stm32f4xx_hal_rtc_ex.c ****   return HAL_OK;
 932:Drivers/STM32F4xx_HAL_Driver/Src/stm32f4xx_hal_rtc_ex.c **** }
 1728              		.loc 1 932 1 is_stmt 0 view .LVU639
 1729 0064 02B0     		add	sp, sp, #8
 1730              		.cfi_remember_state
 1731              		.cfi_def_cfa_offset 8
 1732              		@ sp needed
 1733 0066 30BC     		pop	{r4, r5}
 1734              		.cfi_restore 5
 1735              		.cfi_restore 4
 1736              		.cfi_def_cfa_offset 0
 1737 0068 7047     		bx	lr
 1738              	.LVL109:
 1739              	.L140:
ARM GAS  /tmp/cchQ4tcR.s 			page 52


 1740              		.cfi_restore_state
 879:Drivers/STM32F4xx_HAL_Driver/Src/stm32f4xx_hal_rtc_ex.c **** 
 1741              		.loc 1 879 3 is_stmt 1 view .LVU640
 1742 006a 9868     		ldr	r0, [r3, #8]
 1743 006c 20F48060 		bic	r0, r0, #1024
 1744 0070 9860     		str	r0, [r3, #8]
 882:Drivers/STM32F4xx_HAL_Driver/Src/stm32f4xx_hal_rtc_ex.c ****   do
 1745              		.loc 1 882 3 view .LVU641
 882:Drivers/STM32F4xx_HAL_Driver/Src/stm32f4xx_hal_rtc_ex.c ****   do
 1746              		.loc 1 882 9 is_stmt 0 view .LVU642
 1747 0072 0195     		str	r5, [sp, #4]
 1748 0074 02E0     		b	.L142
 1749              	.L141:
 898:Drivers/STM32F4xx_HAL_Driver/Src/stm32f4xx_hal_rtc_ex.c **** 
 1750              		.loc 1 898 9 view .LVU643
 1751 0076 DC68     		ldr	r4, [r3, #12]
 898:Drivers/STM32F4xx_HAL_Driver/Src/stm32f4xx_hal_rtc_ex.c **** 
 1752              		.loc 1 898 3 view .LVU644
 1753 0078 6007     		lsls	r0, r4, #29
 1754 007a 05D4     		bmi	.L152
 1755              	.L142:
 883:Drivers/STM32F4xx_HAL_Driver/Src/stm32f4xx_hal_rtc_ex.c ****   {
 1756              		.loc 1 883 3 is_stmt 1 view .LVU645
 885:Drivers/STM32F4xx_HAL_Driver/Src/stm32f4xx_hal_rtc_ex.c ****     {
 1757              		.loc 1 885 5 view .LVU646
 898:Drivers/STM32F4xx_HAL_Driver/Src/stm32f4xx_hal_rtc_ex.c **** 
 1758              		.loc 1 898 8 view .LVU647
 885:Drivers/STM32F4xx_HAL_Driver/Src/stm32f4xx_hal_rtc_ex.c ****     {
 1759              		.loc 1 885 13 is_stmt 0 view .LVU648
 1760 007c 019C     		ldr	r4, [sp, #4]
 1761 007e 651E     		subs	r5, r4, #1
 1762 0080 0195     		str	r5, [sp, #4]
 885:Drivers/STM32F4xx_HAL_Driver/Src/stm32f4xx_hal_rtc_ex.c ****     {
 1763              		.loc 1 885 7 view .LVU649
 1764 0082 002C     		cmp	r4, #0
 1765 0084 F7D1     		bne	.L141
 1766 0086 E5E7     		b	.L151
 1767              	.L152:
 901:Drivers/STM32F4xx_HAL_Driver/Src/stm32f4xx_hal_rtc_ex.c **** 
 1768              		.loc 1 901 3 is_stmt 1 view .LVU650
 901:Drivers/STM32F4xx_HAL_Driver/Src/stm32f4xx_hal_rtc_ex.c **** 
 1769              		.loc 1 901 24 is_stmt 0 view .LVU651
 1770 0088 5961     		str	r1, [r3, #20]
 904:Drivers/STM32F4xx_HAL_Driver/Src/stm32f4xx_hal_rtc_ex.c **** 
 1771              		.loc 1 904 3 is_stmt 1 view .LVU652
 904:Drivers/STM32F4xx_HAL_Driver/Src/stm32f4xx_hal_rtc_ex.c **** 
 1772              		.loc 1 904 22 is_stmt 0 view .LVU653
 1773 008a 9868     		ldr	r0, [r3, #8]
 910:Drivers/STM32F4xx_HAL_Driver/Src/stm32f4xx_hal_rtc_ex.c **** 
 1774              		.loc 1 910 3 view .LVU654
 1775 008c 1649     		ldr	r1, .L153+8
 1776              	.LVL110:
 904:Drivers/STM32F4xx_HAL_Driver/Src/stm32f4xx_hal_rtc_ex.c **** 
 1777              		.loc 1 904 22 view .LVU655
 1778 008e 20F00700 		bic	r0, r0, #7
 1779 0092 9860     		str	r0, [r3, #8]
 1780              	.LVL111:
ARM GAS  /tmp/cchQ4tcR.s 			page 53


 907:Drivers/STM32F4xx_HAL_Driver/Src/stm32f4xx_hal_rtc_ex.c **** 
 1781              		.loc 1 907 3 is_stmt 1 view .LVU656
 907:Drivers/STM32F4xx_HAL_Driver/Src/stm32f4xx_hal_rtc_ex.c **** 
 1782              		.loc 1 907 22 is_stmt 0 view .LVU657
 1783 0094 9868     		ldr	r0, [r3, #8]
 1784 0096 0243     		orrs	r2, r2, r0
 1785              	.LVL112:
 907:Drivers/STM32F4xx_HAL_Driver/Src/stm32f4xx_hal_rtc_ex.c **** 
 1786              		.loc 1 907 22 view .LVU658
 1787 0098 9A60     		str	r2, [r3, #8]
 910:Drivers/STM32F4xx_HAL_Driver/Src/stm32f4xx_hal_rtc_ex.c **** 
 1788              		.loc 1 910 3 is_stmt 1 view .LVU659
 1789 009a 0A68     		ldr	r2, [r1]
 1790 009c 42F48002 		orr	r2, r2, #4194304
 1791 00a0 0A60     		str	r2, [r1]
 912:Drivers/STM32F4xx_HAL_Driver/Src/stm32f4xx_hal_rtc_ex.c **** 
 1792              		.loc 1 912 3 view .LVU660
 912:Drivers/STM32F4xx_HAL_Driver/Src/stm32f4xx_hal_rtc_ex.c **** 
 1793              		.loc 1 912 14 is_stmt 0 view .LVU661
 1794 00a2 8A68     		ldr	r2, [r1, #8]
 1795 00a4 42F48002 		orr	r2, r2, #4194304
 1796 00a8 8A60     		str	r2, [r1, #8]
 915:Drivers/STM32F4xx_HAL_Driver/Src/stm32f4xx_hal_rtc_ex.c **** 
 1797              		.loc 1 915 3 is_stmt 1 view .LVU662
 1798 00aa DA68     		ldr	r2, [r3, #12]
 1799 00ac D2B2     		uxtb	r2, r2
 1800 00ae 62F49062 		orn	r2, r2, #1152
 1801 00b2 DA60     		str	r2, [r3, #12]
 918:Drivers/STM32F4xx_HAL_Driver/Src/stm32f4xx_hal_rtc_ex.c **** 
 1802              		.loc 1 918 3 view .LVU663
 1803 00b4 9A68     		ldr	r2, [r3, #8]
 1804 00b6 42F48042 		orr	r2, r2, #16384
 1805 00ba 9A60     		str	r2, [r3, #8]
 921:Drivers/STM32F4xx_HAL_Driver/Src/stm32f4xx_hal_rtc_ex.c **** 
 1806              		.loc 1 921 3 view .LVU664
 1807 00bc 9A68     		ldr	r2, [r3, #8]
 929:Drivers/STM32F4xx_HAL_Driver/Src/stm32f4xx_hal_rtc_ex.c **** 
 1808              		.loc 1 929 3 is_stmt 0 view .LVU665
 1809 00be 0024     		movs	r4, #0
 921:Drivers/STM32F4xx_HAL_Driver/Src/stm32f4xx_hal_rtc_ex.c **** 
 1810              		.loc 1 921 3 view .LVU666
 1811 00c0 42F48062 		orr	r2, r2, #1024
 1812 00c4 9A60     		str	r2, [r3, #8]
 924:Drivers/STM32F4xx_HAL_Driver/Src/stm32f4xx_hal_rtc_ex.c **** 
 1813              		.loc 1 924 3 is_stmt 1 view .LVU667
 924:Drivers/STM32F4xx_HAL_Driver/Src/stm32f4xx_hal_rtc_ex.c **** 
 1814              		.loc 1 924 3 view .LVU668
 1815 00c6 FF21     		movs	r1, #255
 926:Drivers/STM32F4xx_HAL_Driver/Src/stm32f4xx_hal_rtc_ex.c **** 
 1816              		.loc 1 926 15 is_stmt 0 view .LVU669
 1817 00c8 0122     		movs	r2, #1
 931:Drivers/STM32F4xx_HAL_Driver/Src/stm32f4xx_hal_rtc_ex.c **** }
 1818              		.loc 1 931 10 view .LVU670
 1819 00ca 2046     		mov	r0, r4
 924:Drivers/STM32F4xx_HAL_Driver/Src/stm32f4xx_hal_rtc_ex.c **** 
 1820              		.loc 1 924 3 view .LVU671
 1821 00cc 5962     		str	r1, [r3, #36]
ARM GAS  /tmp/cchQ4tcR.s 			page 54


 924:Drivers/STM32F4xx_HAL_Driver/Src/stm32f4xx_hal_rtc_ex.c **** 
 1822              		.loc 1 924 3 is_stmt 1 view .LVU672
 926:Drivers/STM32F4xx_HAL_Driver/Src/stm32f4xx_hal_rtc_ex.c **** 
 1823              		.loc 1 926 3 view .LVU673
 926:Drivers/STM32F4xx_HAL_Driver/Src/stm32f4xx_hal_rtc_ex.c **** 
 1824              		.loc 1 926 15 is_stmt 0 view .LVU674
 1825 00ce 8CF81D20 		strb	r2, [ip, #29]
 929:Drivers/STM32F4xx_HAL_Driver/Src/stm32f4xx_hal_rtc_ex.c **** 
 1826              		.loc 1 929 3 is_stmt 1 view .LVU675
 929:Drivers/STM32F4xx_HAL_Driver/Src/stm32f4xx_hal_rtc_ex.c **** 
 1827              		.loc 1 929 3 view .LVU676
 1828 00d2 8CF81C40 		strb	r4, [ip, #28]
 929:Drivers/STM32F4xx_HAL_Driver/Src/stm32f4xx_hal_rtc_ex.c **** 
 1829              		.loc 1 929 3 view .LVU677
 931:Drivers/STM32F4xx_HAL_Driver/Src/stm32f4xx_hal_rtc_ex.c **** }
 1830              		.loc 1 931 3 view .LVU678
 1831              		.loc 1 932 1 is_stmt 0 view .LVU679
 1832 00d6 02B0     		add	sp, sp, #8
 1833              		.cfi_def_cfa_offset 8
 1834              		@ sp needed
 1835 00d8 30BC     		pop	{r4, r5}
 1836              		.cfi_restore 5
 1837              		.cfi_restore 4
 1838              		.cfi_def_cfa_offset 0
 1839 00da 7047     		bx	lr
 1840              	.LVL113:
 1841              	.L143:
 849:Drivers/STM32F4xx_HAL_Driver/Src/stm32f4xx_hal_rtc_ex.c **** 
 1842              		.loc 1 849 3 view .LVU680
 1843 00dc 0220     		movs	r0, #2
 1844              	.LVL114:
 1845              		.loc 1 932 1 view .LVU681
 1846 00de 7047     		bx	lr
 1847              	.L154:
 1848              		.align	2
 1849              	.L153:
 1850 00e0 00000000 		.word	SystemCoreClock
 1851 00e4 D34D6210 		.word	274877907
 1852 00e8 003C0140 		.word	1073822720
 1853              		.cfi_endproc
 1854              	.LFE250:
 1856              		.section	.text.HAL_RTCEx_DeactivateWakeUpTimer,"ax",%progbits
 1857              		.align	1
 1858              		.p2align 2,,3
 1859              		.global	HAL_RTCEx_DeactivateWakeUpTimer
 1860              		.syntax unified
 1861              		.thumb
 1862              		.thumb_func
 1864              	HAL_RTCEx_DeactivateWakeUpTimer:
 1865              	.LVL115:
 1866              	.LFB251:
 933:Drivers/STM32F4xx_HAL_Driver/Src/stm32f4xx_hal_rtc_ex.c **** 
 934:Drivers/STM32F4xx_HAL_Driver/Src/stm32f4xx_hal_rtc_ex.c **** /**
 935:Drivers/STM32F4xx_HAL_Driver/Src/stm32f4xx_hal_rtc_ex.c ****   * @brief  Deactivates wake up timer counter.
 936:Drivers/STM32F4xx_HAL_Driver/Src/stm32f4xx_hal_rtc_ex.c ****   * @param  hrtc pointer to a RTC_HandleTypeDef structure that contains
 937:Drivers/STM32F4xx_HAL_Driver/Src/stm32f4xx_hal_rtc_ex.c ****   *                the configuration information for RTC.
 938:Drivers/STM32F4xx_HAL_Driver/Src/stm32f4xx_hal_rtc_ex.c ****   * @retval HAL status
ARM GAS  /tmp/cchQ4tcR.s 			page 55


 939:Drivers/STM32F4xx_HAL_Driver/Src/stm32f4xx_hal_rtc_ex.c ****   */
 940:Drivers/STM32F4xx_HAL_Driver/Src/stm32f4xx_hal_rtc_ex.c **** uint32_t HAL_RTCEx_DeactivateWakeUpTimer(RTC_HandleTypeDef *hrtc)
 941:Drivers/STM32F4xx_HAL_Driver/Src/stm32f4xx_hal_rtc_ex.c **** {
 1867              		.loc 1 941 1 is_stmt 1 view -0
 1868              		.cfi_startproc
 1869              		@ args = 0, pretend = 0, frame = 0
 1870              		@ frame_needed = 0, uses_anonymous_args = 0
 942:Drivers/STM32F4xx_HAL_Driver/Src/stm32f4xx_hal_rtc_ex.c ****   uint32_t tickstart = 0U;
 1871              		.loc 1 942 3 view .LVU683
 943:Drivers/STM32F4xx_HAL_Driver/Src/stm32f4xx_hal_rtc_ex.c **** 
 944:Drivers/STM32F4xx_HAL_Driver/Src/stm32f4xx_hal_rtc_ex.c ****   /* Process Locked */
 945:Drivers/STM32F4xx_HAL_Driver/Src/stm32f4xx_hal_rtc_ex.c ****   __HAL_LOCK(hrtc);
 1872              		.loc 1 945 3 view .LVU684
 1873              		.loc 1 945 3 view .LVU685
 1874 0000 037F     		ldrb	r3, [r0, #28]	@ zero_extendqisi2
 1875 0002 012B     		cmp	r3, #1
 1876 0004 31D0     		beq	.L159
 941:Drivers/STM32F4xx_HAL_Driver/Src/stm32f4xx_hal_rtc_ex.c ****   uint32_t tickstart = 0U;
 1877              		.loc 1 941 1 is_stmt 0 discriminator 2 view .LVU686
 1878 0006 70B5     		push	{r4, r5, r6, lr}
 1879              		.cfi_def_cfa_offset 16
 1880              		.cfi_offset 4, -16
 1881              		.cfi_offset 5, -12
 1882              		.cfi_offset 6, -8
 1883              		.cfi_offset 14, -4
 1884 0008 0546     		mov	r5, r0
 1885              		.loc 1 945 3 is_stmt 1 discriminator 2 view .LVU687
 946:Drivers/STM32F4xx_HAL_Driver/Src/stm32f4xx_hal_rtc_ex.c **** 
 947:Drivers/STM32F4xx_HAL_Driver/Src/stm32f4xx_hal_rtc_ex.c ****   hrtc->State = HAL_RTC_STATE_BUSY;
 948:Drivers/STM32F4xx_HAL_Driver/Src/stm32f4xx_hal_rtc_ex.c **** 
 949:Drivers/STM32F4xx_HAL_Driver/Src/stm32f4xx_hal_rtc_ex.c ****   /* Disable the write protection for RTC registers */
 950:Drivers/STM32F4xx_HAL_Driver/Src/stm32f4xx_hal_rtc_ex.c ****   __HAL_RTC_WRITEPROTECTION_DISABLE(hrtc);
 1886              		.loc 1 950 3 is_stmt 0 discriminator 2 view .LVU688
 1887 000a 0368     		ldr	r3, [r0]
 947:Drivers/STM32F4xx_HAL_Driver/Src/stm32f4xx_hal_rtc_ex.c **** 
 1888              		.loc 1 947 15 discriminator 2 view .LVU689
 1889 000c 0222     		movs	r2, #2
 1890 000e 6A77     		strb	r2, [r5, #29]
 945:Drivers/STM32F4xx_HAL_Driver/Src/stm32f4xx_hal_rtc_ex.c **** 
 1891              		.loc 1 945 3 discriminator 2 view .LVU690
 1892 0010 0120     		movs	r0, #1
 1893              	.LVL116:
 1894              		.loc 1 950 3 discriminator 2 view .LVU691
 1895 0012 CA21     		movs	r1, #202
 1896 0014 5322     		movs	r2, #83
 945:Drivers/STM32F4xx_HAL_Driver/Src/stm32f4xx_hal_rtc_ex.c **** 
 1897              		.loc 1 945 3 discriminator 2 view .LVU692
 1898 0016 2877     		strb	r0, [r5, #28]
 945:Drivers/STM32F4xx_HAL_Driver/Src/stm32f4xx_hal_rtc_ex.c **** 
 1899              		.loc 1 945 3 is_stmt 1 discriminator 2 view .LVU693
 947:Drivers/STM32F4xx_HAL_Driver/Src/stm32f4xx_hal_rtc_ex.c **** 
 1900              		.loc 1 947 3 discriminator 2 view .LVU694
 1901              		.loc 1 950 3 discriminator 2 view .LVU695
 1902              		.loc 1 950 3 discriminator 2 view .LVU696
 1903 0018 5962     		str	r1, [r3, #36]
 1904              		.loc 1 950 3 discriminator 2 view .LVU697
 1905 001a 5A62     		str	r2, [r3, #36]
ARM GAS  /tmp/cchQ4tcR.s 			page 56


 1906              		.loc 1 950 3 discriminator 2 view .LVU698
 951:Drivers/STM32F4xx_HAL_Driver/Src/stm32f4xx_hal_rtc_ex.c **** 
 952:Drivers/STM32F4xx_HAL_Driver/Src/stm32f4xx_hal_rtc_ex.c ****   /* Disable the Wake-up Timer */
 953:Drivers/STM32F4xx_HAL_Driver/Src/stm32f4xx_hal_rtc_ex.c ****   __HAL_RTC_WAKEUPTIMER_DISABLE(hrtc);
 1907              		.loc 1 953 3 discriminator 2 view .LVU699
 1908 001c 9A68     		ldr	r2, [r3, #8]
 1909 001e 22F48062 		bic	r2, r2, #1024
 1910 0022 9A60     		str	r2, [r3, #8]
 954:Drivers/STM32F4xx_HAL_Driver/Src/stm32f4xx_hal_rtc_ex.c **** 
 955:Drivers/STM32F4xx_HAL_Driver/Src/stm32f4xx_hal_rtc_ex.c ****   /* In case of interrupt mode is used, the interrupt source must disabled */
 956:Drivers/STM32F4xx_HAL_Driver/Src/stm32f4xx_hal_rtc_ex.c ****   __HAL_RTC_WAKEUPTIMER_DISABLE_IT(hrtc,RTC_IT_WUT);
 1911              		.loc 1 956 3 discriminator 2 view .LVU700
 1912 0024 9A68     		ldr	r2, [r3, #8]
 1913 0026 22F48042 		bic	r2, r2, #16384
 1914 002a 9A60     		str	r2, [r3, #8]
 957:Drivers/STM32F4xx_HAL_Driver/Src/stm32f4xx_hal_rtc_ex.c **** 
 958:Drivers/STM32F4xx_HAL_Driver/Src/stm32f4xx_hal_rtc_ex.c ****   /* Get tick */
 959:Drivers/STM32F4xx_HAL_Driver/Src/stm32f4xx_hal_rtc_ex.c ****   tickstart = HAL_GetTick();
 1915              		.loc 1 959 3 discriminator 2 view .LVU701
 1916              		.loc 1 959 15 is_stmt 0 discriminator 2 view .LVU702
 1917 002c FFF7FEFF 		bl	HAL_GetTick
 1918              	.LVL117:
 1919 0030 0646     		mov	r6, r0
 1920              	.LVL118:
 960:Drivers/STM32F4xx_HAL_Driver/Src/stm32f4xx_hal_rtc_ex.c **** 
 961:Drivers/STM32F4xx_HAL_Driver/Src/stm32f4xx_hal_rtc_ex.c ****   /* Wait till RTC WUTWF flag is set and if Time out is reached exit */
 962:Drivers/STM32F4xx_HAL_Driver/Src/stm32f4xx_hal_rtc_ex.c ****   while(__HAL_RTC_WAKEUPTIMER_GET_FLAG(hrtc, RTC_FLAG_WUTWF) == RESET)
 1921              		.loc 1 962 3 is_stmt 1 discriminator 2 view .LVU703
 1922              		.loc 1 962 8 is_stmt 0 discriminator 2 view .LVU704
 1923 0032 05E0     		b	.L157
 1924              	.LVL119:
 1925              	.L158:
 963:Drivers/STM32F4xx_HAL_Driver/Src/stm32f4xx_hal_rtc_ex.c ****   {
 964:Drivers/STM32F4xx_HAL_Driver/Src/stm32f4xx_hal_rtc_ex.c ****     if((HAL_GetTick() - tickstart ) > RTC_TIMEOUT_VALUE)
 1926              		.loc 1 964 9 view .LVU705
 1927 0034 FFF7FEFF 		bl	HAL_GetTick
 1928              	.LVL120:
 1929              		.loc 1 964 23 view .LVU706
 1930 0038 831B     		subs	r3, r0, r6
 1931              		.loc 1 964 7 view .LVU707
 1932 003a B3F57A7F 		cmp	r3, #1000
 1933 003e 0CD8     		bhi	.L165
 1934              	.L157:
 1935              		.loc 1 964 5 is_stmt 1 view .LVU708
 962:Drivers/STM32F4xx_HAL_Driver/Src/stm32f4xx_hal_rtc_ex.c ****   {
 1936              		.loc 1 962 8 view .LVU709
 962:Drivers/STM32F4xx_HAL_Driver/Src/stm32f4xx_hal_rtc_ex.c ****   {
 1937              		.loc 1 962 9 is_stmt 0 view .LVU710
 1938 0040 2A68     		ldr	r2, [r5]
 1939 0042 D468     		ldr	r4, [r2, #12]
 962:Drivers/STM32F4xx_HAL_Driver/Src/stm32f4xx_hal_rtc_ex.c ****   {
 1940              		.loc 1 962 8 view .LVU711
 1941 0044 14F00404 		ands	r4, r4, #4
 1942 0048 F4D0     		beq	.L158
 965:Drivers/STM32F4xx_HAL_Driver/Src/stm32f4xx_hal_rtc_ex.c ****     {
 966:Drivers/STM32F4xx_HAL_Driver/Src/stm32f4xx_hal_rtc_ex.c ****       /* Enable the write protection for RTC registers */
 967:Drivers/STM32F4xx_HAL_Driver/Src/stm32f4xx_hal_rtc_ex.c ****       __HAL_RTC_WRITEPROTECTION_ENABLE(hrtc);
ARM GAS  /tmp/cchQ4tcR.s 			page 57


 968:Drivers/STM32F4xx_HAL_Driver/Src/stm32f4xx_hal_rtc_ex.c **** 
 969:Drivers/STM32F4xx_HAL_Driver/Src/stm32f4xx_hal_rtc_ex.c ****       hrtc->State = HAL_RTC_STATE_TIMEOUT;
 970:Drivers/STM32F4xx_HAL_Driver/Src/stm32f4xx_hal_rtc_ex.c **** 
 971:Drivers/STM32F4xx_HAL_Driver/Src/stm32f4xx_hal_rtc_ex.c ****       /* Process Unlocked */
 972:Drivers/STM32F4xx_HAL_Driver/Src/stm32f4xx_hal_rtc_ex.c ****       __HAL_UNLOCK(hrtc);
 973:Drivers/STM32F4xx_HAL_Driver/Src/stm32f4xx_hal_rtc_ex.c **** 
 974:Drivers/STM32F4xx_HAL_Driver/Src/stm32f4xx_hal_rtc_ex.c ****       return HAL_TIMEOUT;
 975:Drivers/STM32F4xx_HAL_Driver/Src/stm32f4xx_hal_rtc_ex.c ****     }
 976:Drivers/STM32F4xx_HAL_Driver/Src/stm32f4xx_hal_rtc_ex.c ****   }
 977:Drivers/STM32F4xx_HAL_Driver/Src/stm32f4xx_hal_rtc_ex.c **** 
 978:Drivers/STM32F4xx_HAL_Driver/Src/stm32f4xx_hal_rtc_ex.c ****   /* Enable the write protection for RTC registers */
 979:Drivers/STM32F4xx_HAL_Driver/Src/stm32f4xx_hal_rtc_ex.c ****   __HAL_RTC_WRITEPROTECTION_ENABLE(hrtc);
 1943              		.loc 1 979 3 is_stmt 1 view .LVU712
 1944              		.loc 1 979 3 view .LVU713
 980:Drivers/STM32F4xx_HAL_Driver/Src/stm32f4xx_hal_rtc_ex.c **** 
 981:Drivers/STM32F4xx_HAL_Driver/Src/stm32f4xx_hal_rtc_ex.c ****   hrtc->State = HAL_RTC_STATE_READY;
 982:Drivers/STM32F4xx_HAL_Driver/Src/stm32f4xx_hal_rtc_ex.c **** 
 983:Drivers/STM32F4xx_HAL_Driver/Src/stm32f4xx_hal_rtc_ex.c ****   /* Process Unlocked */
 984:Drivers/STM32F4xx_HAL_Driver/Src/stm32f4xx_hal_rtc_ex.c ****   __HAL_UNLOCK(hrtc);
 1945              		.loc 1 984 3 is_stmt 0 view .LVU714
 1946 004a 0023     		movs	r3, #0
 979:Drivers/STM32F4xx_HAL_Driver/Src/stm32f4xx_hal_rtc_ex.c **** 
 1947              		.loc 1 979 3 view .LVU715
 1948 004c FF20     		movs	r0, #255
 981:Drivers/STM32F4xx_HAL_Driver/Src/stm32f4xx_hal_rtc_ex.c **** 
 1949              		.loc 1 981 15 view .LVU716
 1950 004e 0121     		movs	r1, #1
 979:Drivers/STM32F4xx_HAL_Driver/Src/stm32f4xx_hal_rtc_ex.c **** 
 1951              		.loc 1 979 3 view .LVU717
 1952 0050 5062     		str	r0, [r2, #36]
 979:Drivers/STM32F4xx_HAL_Driver/Src/stm32f4xx_hal_rtc_ex.c **** 
 1953              		.loc 1 979 3 is_stmt 1 view .LVU718
 981:Drivers/STM32F4xx_HAL_Driver/Src/stm32f4xx_hal_rtc_ex.c **** 
 1954              		.loc 1 981 3 view .LVU719
 981:Drivers/STM32F4xx_HAL_Driver/Src/stm32f4xx_hal_rtc_ex.c **** 
 1955              		.loc 1 981 15 is_stmt 0 view .LVU720
 1956 0052 6977     		strb	r1, [r5, #29]
 1957              		.loc 1 984 3 is_stmt 1 view .LVU721
 1958              		.loc 1 984 3 view .LVU722
 1959 0054 2B77     		strb	r3, [r5, #28]
 1960              		.loc 1 984 3 view .LVU723
 985:Drivers/STM32F4xx_HAL_Driver/Src/stm32f4xx_hal_rtc_ex.c **** 
 986:Drivers/STM32F4xx_HAL_Driver/Src/stm32f4xx_hal_rtc_ex.c ****   return HAL_OK;
 1961              		.loc 1 986 3 view .LVU724
 1962              		.loc 1 986 10 is_stmt 0 view .LVU725
 1963 0056 1846     		mov	r0, r3
 987:Drivers/STM32F4xx_HAL_Driver/Src/stm32f4xx_hal_rtc_ex.c **** }
 1964              		.loc 1 987 1 view .LVU726
 1965 0058 70BD     		pop	{r4, r5, r6, pc}
 1966              	.LVL121:
 1967              	.L165:
 967:Drivers/STM32F4xx_HAL_Driver/Src/stm32f4xx_hal_rtc_ex.c **** 
 1968              		.loc 1 967 7 is_stmt 1 view .LVU727
 967:Drivers/STM32F4xx_HAL_Driver/Src/stm32f4xx_hal_rtc_ex.c **** 
 1969              		.loc 1 967 7 view .LVU728
 1970 005a 2A68     		ldr	r2, [r5]
 969:Drivers/STM32F4xx_HAL_Driver/Src/stm32f4xx_hal_rtc_ex.c **** 
ARM GAS  /tmp/cchQ4tcR.s 			page 58


 1971              		.loc 1 969 19 is_stmt 0 view .LVU729
 1972 005c 0323     		movs	r3, #3
 967:Drivers/STM32F4xx_HAL_Driver/Src/stm32f4xx_hal_rtc_ex.c **** 
 1973              		.loc 1 967 7 view .LVU730
 1974 005e FF21     		movs	r1, #255
 1975 0060 5162     		str	r1, [r2, #36]
 967:Drivers/STM32F4xx_HAL_Driver/Src/stm32f4xx_hal_rtc_ex.c **** 
 1976              		.loc 1 967 7 is_stmt 1 view .LVU731
 969:Drivers/STM32F4xx_HAL_Driver/Src/stm32f4xx_hal_rtc_ex.c **** 
 1977              		.loc 1 969 7 view .LVU732
 969:Drivers/STM32F4xx_HAL_Driver/Src/stm32f4xx_hal_rtc_ex.c **** 
 1978              		.loc 1 969 19 is_stmt 0 view .LVU733
 1979 0062 6B77     		strb	r3, [r5, #29]
 972:Drivers/STM32F4xx_HAL_Driver/Src/stm32f4xx_hal_rtc_ex.c **** 
 1980              		.loc 1 972 7 is_stmt 1 view .LVU734
 972:Drivers/STM32F4xx_HAL_Driver/Src/stm32f4xx_hal_rtc_ex.c **** 
 1981              		.loc 1 972 7 view .LVU735
 1982 0064 2C77     		strb	r4, [r5, #28]
 972:Drivers/STM32F4xx_HAL_Driver/Src/stm32f4xx_hal_rtc_ex.c **** 
 1983              		.loc 1 972 7 view .LVU736
 974:Drivers/STM32F4xx_HAL_Driver/Src/stm32f4xx_hal_rtc_ex.c ****     }
 1984              		.loc 1 974 7 view .LVU737
 974:Drivers/STM32F4xx_HAL_Driver/Src/stm32f4xx_hal_rtc_ex.c ****     }
 1985              		.loc 1 974 14 is_stmt 0 view .LVU738
 1986 0066 1846     		mov	r0, r3
 1987              		.loc 1 987 1 view .LVU739
 1988 0068 70BD     		pop	{r4, r5, r6, pc}
 1989              	.LVL122:
 1990              	.L159:
 1991              		.cfi_def_cfa_offset 0
 1992              		.cfi_restore 4
 1993              		.cfi_restore 5
 1994              		.cfi_restore 6
 1995              		.cfi_restore 14
 945:Drivers/STM32F4xx_HAL_Driver/Src/stm32f4xx_hal_rtc_ex.c **** 
 1996              		.loc 1 945 3 view .LVU740
 1997 006a 0220     		movs	r0, #2
 1998              	.LVL123:
 1999              		.loc 1 987 1 view .LVU741
 2000 006c 7047     		bx	lr
 2001              		.cfi_endproc
 2002              	.LFE251:
 2004 006e 00BF     		.section	.text.HAL_RTCEx_GetWakeUpTimer,"ax",%progbits
 2005              		.align	1
 2006              		.p2align 2,,3
 2007              		.global	HAL_RTCEx_GetWakeUpTimer
 2008              		.syntax unified
 2009              		.thumb
 2010              		.thumb_func
 2012              	HAL_RTCEx_GetWakeUpTimer:
 2013              	.LVL124:
 2014              	.LFB252:
 988:Drivers/STM32F4xx_HAL_Driver/Src/stm32f4xx_hal_rtc_ex.c **** 
 989:Drivers/STM32F4xx_HAL_Driver/Src/stm32f4xx_hal_rtc_ex.c **** /**
 990:Drivers/STM32F4xx_HAL_Driver/Src/stm32f4xx_hal_rtc_ex.c ****   * @brief  Gets wake up timer counter.
 991:Drivers/STM32F4xx_HAL_Driver/Src/stm32f4xx_hal_rtc_ex.c ****   * @param  hrtc pointer to a RTC_HandleTypeDef structure that contains
 992:Drivers/STM32F4xx_HAL_Driver/Src/stm32f4xx_hal_rtc_ex.c ****   *                the configuration information for RTC.
ARM GAS  /tmp/cchQ4tcR.s 			page 59


 993:Drivers/STM32F4xx_HAL_Driver/Src/stm32f4xx_hal_rtc_ex.c ****   * @retval Counter value
 994:Drivers/STM32F4xx_HAL_Driver/Src/stm32f4xx_hal_rtc_ex.c ****   */
 995:Drivers/STM32F4xx_HAL_Driver/Src/stm32f4xx_hal_rtc_ex.c **** uint32_t HAL_RTCEx_GetWakeUpTimer(RTC_HandleTypeDef *hrtc)
 996:Drivers/STM32F4xx_HAL_Driver/Src/stm32f4xx_hal_rtc_ex.c **** {
 2015              		.loc 1 996 1 is_stmt 1 view -0
 2016              		.cfi_startproc
 2017              		@ args = 0, pretend = 0, frame = 0
 2018              		@ frame_needed = 0, uses_anonymous_args = 0
 2019              		@ link register save eliminated.
 997:Drivers/STM32F4xx_HAL_Driver/Src/stm32f4xx_hal_rtc_ex.c ****   /* Get the counter value */
 998:Drivers/STM32F4xx_HAL_Driver/Src/stm32f4xx_hal_rtc_ex.c ****   return ((uint32_t)(hrtc->Instance->WUTR & RTC_WUTR_WUT));
 2020              		.loc 1 998 3 view .LVU743
 2021              		.loc 1 998 26 is_stmt 0 view .LVU744
 2022 0000 0368     		ldr	r3, [r0]
 2023              		.loc 1 998 36 view .LVU745
 2024 0002 5869     		ldr	r0, [r3, #20]
 2025              	.LVL125:
 999:Drivers/STM32F4xx_HAL_Driver/Src/stm32f4xx_hal_rtc_ex.c **** }
 2026              		.loc 1 999 1 view .LVU746
 2027 0004 80B2     		uxth	r0, r0
 2028 0006 7047     		bx	lr
 2029              		.cfi_endproc
 2030              	.LFE252:
 2032              		.section	.text.HAL_RTCEx_WakeUpTimerEventCallback,"ax",%progbits
 2033              		.align	1
 2034              		.p2align 2,,3
 2035              		.weak	HAL_RTCEx_WakeUpTimerEventCallback
 2036              		.syntax unified
 2037              		.thumb
 2038              		.thumb_func
 2040              	HAL_RTCEx_WakeUpTimerEventCallback:
 2041              	.LFB275:
 2042              		.cfi_startproc
 2043              		@ args = 0, pretend = 0, frame = 0
 2044              		@ frame_needed = 0, uses_anonymous_args = 0
 2045              		@ link register save eliminated.
 2046 0000 7047     		bx	lr
 2047              		.cfi_endproc
 2048              	.LFE275:
 2050 0002 00BF     		.section	.text.HAL_RTCEx_WakeUpTimerIRQHandler,"ax",%progbits
 2051              		.align	1
 2052              		.p2align 2,,3
 2053              		.global	HAL_RTCEx_WakeUpTimerIRQHandler
 2054              		.syntax unified
 2055              		.thumb
 2056              		.thumb_func
 2058              	HAL_RTCEx_WakeUpTimerIRQHandler:
 2059              	.LVL126:
 2060              	.LFB253:
1000:Drivers/STM32F4xx_HAL_Driver/Src/stm32f4xx_hal_rtc_ex.c **** 
1001:Drivers/STM32F4xx_HAL_Driver/Src/stm32f4xx_hal_rtc_ex.c **** /**
1002:Drivers/STM32F4xx_HAL_Driver/Src/stm32f4xx_hal_rtc_ex.c ****   * @brief  This function handles Wake Up Timer interrupt request.
1003:Drivers/STM32F4xx_HAL_Driver/Src/stm32f4xx_hal_rtc_ex.c ****   * @note   Unlike alarm interrupt line (shared by AlarmA and AlarmB) and tamper
1004:Drivers/STM32F4xx_HAL_Driver/Src/stm32f4xx_hal_rtc_ex.c ****   *         interrupt line (shared by timestamp and tampers) wakeup timer
1005:Drivers/STM32F4xx_HAL_Driver/Src/stm32f4xx_hal_rtc_ex.c ****   *         interrupt line is exclusive to the wakeup timer.
1006:Drivers/STM32F4xx_HAL_Driver/Src/stm32f4xx_hal_rtc_ex.c ****   *         There is no need in this case to check on the interrupt enable
1007:Drivers/STM32F4xx_HAL_Driver/Src/stm32f4xx_hal_rtc_ex.c ****   *         status via __HAL_RTC_WAKEUPTIMER_GET_IT_SOURCE().
ARM GAS  /tmp/cchQ4tcR.s 			page 60


1008:Drivers/STM32F4xx_HAL_Driver/Src/stm32f4xx_hal_rtc_ex.c ****   * @param  hrtc pointer to a RTC_HandleTypeDef structure that contains
1009:Drivers/STM32F4xx_HAL_Driver/Src/stm32f4xx_hal_rtc_ex.c ****   *                the configuration information for RTC.
1010:Drivers/STM32F4xx_HAL_Driver/Src/stm32f4xx_hal_rtc_ex.c ****   * @retval None
1011:Drivers/STM32F4xx_HAL_Driver/Src/stm32f4xx_hal_rtc_ex.c ****   */
1012:Drivers/STM32F4xx_HAL_Driver/Src/stm32f4xx_hal_rtc_ex.c **** void HAL_RTCEx_WakeUpTimerIRQHandler(RTC_HandleTypeDef *hrtc)
1013:Drivers/STM32F4xx_HAL_Driver/Src/stm32f4xx_hal_rtc_ex.c **** {
 2061              		.loc 1 1013 1 is_stmt 1 view -0
 2062              		.cfi_startproc
 2063              		@ args = 0, pretend = 0, frame = 0
 2064              		@ frame_needed = 0, uses_anonymous_args = 0
1014:Drivers/STM32F4xx_HAL_Driver/Src/stm32f4xx_hal_rtc_ex.c ****   /* Get the pending status of the WAKEUPTIMER Interrupt */
1015:Drivers/STM32F4xx_HAL_Driver/Src/stm32f4xx_hal_rtc_ex.c ****   if(__HAL_RTC_WAKEUPTIMER_GET_FLAG(hrtc, RTC_FLAG_WUTF) != (uint32_t)RESET)
 2065              		.loc 1 1015 3 view .LVU748
 2066              		.loc 1 1015 6 is_stmt 0 view .LVU749
 2067 0000 0368     		ldr	r3, [r0]
 2068 0002 DB68     		ldr	r3, [r3, #12]
 2069              		.loc 1 1015 5 view .LVU750
 2070 0004 5B05     		lsls	r3, r3, #21
1013:Drivers/STM32F4xx_HAL_Driver/Src/stm32f4xx_hal_rtc_ex.c ****   /* Get the pending status of the WAKEUPTIMER Interrupt */
 2071              		.loc 1 1013 1 view .LVU751
 2072 0006 10B5     		push	{r4, lr}
 2073              		.cfi_def_cfa_offset 8
 2074              		.cfi_offset 4, -8
 2075              		.cfi_offset 14, -4
1013:Drivers/STM32F4xx_HAL_Driver/Src/stm32f4xx_hal_rtc_ex.c ****   /* Get the pending status of the WAKEUPTIMER Interrupt */
 2076              		.loc 1 1013 1 view .LVU752
 2077 0008 0446     		mov	r4, r0
 2078              		.loc 1 1015 5 view .LVU753
 2079 000a 06D4     		bmi	.L174
 2080              	.LVL127:
 2081              	.L169:
1016:Drivers/STM32F4xx_HAL_Driver/Src/stm32f4xx_hal_rtc_ex.c ****   {
1017:Drivers/STM32F4xx_HAL_Driver/Src/stm32f4xx_hal_rtc_ex.c ****     /* WAKEUPTIMER callback */
1018:Drivers/STM32F4xx_HAL_Driver/Src/stm32f4xx_hal_rtc_ex.c **** #if (USE_HAL_RTC_REGISTER_CALLBACKS == 1)
1019:Drivers/STM32F4xx_HAL_Driver/Src/stm32f4xx_hal_rtc_ex.c ****     hrtc->WakeUpTimerEventCallback(hrtc);
1020:Drivers/STM32F4xx_HAL_Driver/Src/stm32f4xx_hal_rtc_ex.c **** #else
1021:Drivers/STM32F4xx_HAL_Driver/Src/stm32f4xx_hal_rtc_ex.c ****     HAL_RTCEx_WakeUpTimerEventCallback(hrtc);
1022:Drivers/STM32F4xx_HAL_Driver/Src/stm32f4xx_hal_rtc_ex.c **** #endif /* USE_HAL_RTC_REGISTER_CALLBACKS */
1023:Drivers/STM32F4xx_HAL_Driver/Src/stm32f4xx_hal_rtc_ex.c **** 
1024:Drivers/STM32F4xx_HAL_Driver/Src/stm32f4xx_hal_rtc_ex.c ****     /* Clear the WAKEUPTIMER interrupt pending bit */
1025:Drivers/STM32F4xx_HAL_Driver/Src/stm32f4xx_hal_rtc_ex.c ****     __HAL_RTC_WAKEUPTIMER_CLEAR_FLAG(hrtc, RTC_FLAG_WUTF);
1026:Drivers/STM32F4xx_HAL_Driver/Src/stm32f4xx_hal_rtc_ex.c ****   }
1027:Drivers/STM32F4xx_HAL_Driver/Src/stm32f4xx_hal_rtc_ex.c **** 
1028:Drivers/STM32F4xx_HAL_Driver/Src/stm32f4xx_hal_rtc_ex.c ****   /* Clear the EXTI's line Flag for RTC WakeUpTimer */
1029:Drivers/STM32F4xx_HAL_Driver/Src/stm32f4xx_hal_rtc_ex.c ****   __HAL_RTC_WAKEUPTIMER_EXTI_CLEAR_FLAG();
 2082              		.loc 1 1029 3 is_stmt 1 view .LVU754
 2083 000c 074A     		ldr	r2, .L175
 2084 000e 4FF48001 		mov	r1, #4194304
1030:Drivers/STM32F4xx_HAL_Driver/Src/stm32f4xx_hal_rtc_ex.c **** 
1031:Drivers/STM32F4xx_HAL_Driver/Src/stm32f4xx_hal_rtc_ex.c ****   /* Change RTC state */
1032:Drivers/STM32F4xx_HAL_Driver/Src/stm32f4xx_hal_rtc_ex.c ****   hrtc->State = HAL_RTC_STATE_READY;
 2085              		.loc 1 1032 15 is_stmt 0 view .LVU755
 2086 0012 0123     		movs	r3, #1
1029:Drivers/STM32F4xx_HAL_Driver/Src/stm32f4xx_hal_rtc_ex.c **** 
 2087              		.loc 1 1029 3 view .LVU756
 2088 0014 5161     		str	r1, [r2, #20]
 2089              		.loc 1 1032 3 is_stmt 1 view .LVU757
ARM GAS  /tmp/cchQ4tcR.s 			page 61


 2090              		.loc 1 1032 15 is_stmt 0 view .LVU758
 2091 0016 6377     		strb	r3, [r4, #29]
1033:Drivers/STM32F4xx_HAL_Driver/Src/stm32f4xx_hal_rtc_ex.c **** }
 2092              		.loc 1 1033 1 view .LVU759
 2093 0018 10BD     		pop	{r4, pc}
 2094              	.LVL128:
 2095              	.L174:
1021:Drivers/STM32F4xx_HAL_Driver/Src/stm32f4xx_hal_rtc_ex.c **** #endif /* USE_HAL_RTC_REGISTER_CALLBACKS */
 2096              		.loc 1 1021 5 is_stmt 1 view .LVU760
 2097 001a FFF7FEFF 		bl	HAL_RTCEx_WakeUpTimerEventCallback
 2098              	.LVL129:
1025:Drivers/STM32F4xx_HAL_Driver/Src/stm32f4xx_hal_rtc_ex.c ****   }
 2099              		.loc 1 1025 5 view .LVU761
 2100 001e 2268     		ldr	r2, [r4]
 2101 0020 D368     		ldr	r3, [r2, #12]
 2102 0022 DBB2     		uxtb	r3, r3
 2103 0024 63F49063 		orn	r3, r3, #1152
 2104 0028 D360     		str	r3, [r2, #12]
 2105 002a EFE7     		b	.L169
 2106              	.L176:
 2107              		.align	2
 2108              	.L175:
 2109 002c 003C0140 		.word	1073822720
 2110              		.cfi_endproc
 2111              	.LFE253:
 2113              		.section	.text.HAL_RTCEx_PollForWakeUpTimerEvent,"ax",%progbits
 2114              		.align	1
 2115              		.p2align 2,,3
 2116              		.global	HAL_RTCEx_PollForWakeUpTimerEvent
 2117              		.syntax unified
 2118              		.thumb
 2119              		.thumb_func
 2121              	HAL_RTCEx_PollForWakeUpTimerEvent:
 2122              	.LVL130:
 2123              	.LFB255:
1034:Drivers/STM32F4xx_HAL_Driver/Src/stm32f4xx_hal_rtc_ex.c **** 
1035:Drivers/STM32F4xx_HAL_Driver/Src/stm32f4xx_hal_rtc_ex.c **** /**
1036:Drivers/STM32F4xx_HAL_Driver/Src/stm32f4xx_hal_rtc_ex.c ****   * @brief  Wake Up Timer callback.
1037:Drivers/STM32F4xx_HAL_Driver/Src/stm32f4xx_hal_rtc_ex.c ****   * @param  hrtc pointer to a RTC_HandleTypeDef structure that contains
1038:Drivers/STM32F4xx_HAL_Driver/Src/stm32f4xx_hal_rtc_ex.c ****   *                the configuration information for RTC.
1039:Drivers/STM32F4xx_HAL_Driver/Src/stm32f4xx_hal_rtc_ex.c ****   * @retval None
1040:Drivers/STM32F4xx_HAL_Driver/Src/stm32f4xx_hal_rtc_ex.c ****   */
1041:Drivers/STM32F4xx_HAL_Driver/Src/stm32f4xx_hal_rtc_ex.c **** __weak void HAL_RTCEx_WakeUpTimerEventCallback(RTC_HandleTypeDef *hrtc)
1042:Drivers/STM32F4xx_HAL_Driver/Src/stm32f4xx_hal_rtc_ex.c **** {
1043:Drivers/STM32F4xx_HAL_Driver/Src/stm32f4xx_hal_rtc_ex.c ****   /* Prevent unused argument(s) compilation warning */
1044:Drivers/STM32F4xx_HAL_Driver/Src/stm32f4xx_hal_rtc_ex.c ****   UNUSED(hrtc);
1045:Drivers/STM32F4xx_HAL_Driver/Src/stm32f4xx_hal_rtc_ex.c ****   /* NOTE : This function Should not be modified, when the callback is needed,
1046:Drivers/STM32F4xx_HAL_Driver/Src/stm32f4xx_hal_rtc_ex.c ****             the HAL_RTC_WakeUpTimerEventCallback could be implemented in the user file
1047:Drivers/STM32F4xx_HAL_Driver/Src/stm32f4xx_hal_rtc_ex.c ****    */
1048:Drivers/STM32F4xx_HAL_Driver/Src/stm32f4xx_hal_rtc_ex.c **** }
1049:Drivers/STM32F4xx_HAL_Driver/Src/stm32f4xx_hal_rtc_ex.c **** 
1050:Drivers/STM32F4xx_HAL_Driver/Src/stm32f4xx_hal_rtc_ex.c **** /**
1051:Drivers/STM32F4xx_HAL_Driver/Src/stm32f4xx_hal_rtc_ex.c ****   * @brief  This function handles Wake Up Timer Polling.
1052:Drivers/STM32F4xx_HAL_Driver/Src/stm32f4xx_hal_rtc_ex.c ****   * @param  hrtc pointer to a RTC_HandleTypeDef structure that contains
1053:Drivers/STM32F4xx_HAL_Driver/Src/stm32f4xx_hal_rtc_ex.c ****   *                the configuration information for RTC.
1054:Drivers/STM32F4xx_HAL_Driver/Src/stm32f4xx_hal_rtc_ex.c ****   * @param  Timeout Timeout duration
1055:Drivers/STM32F4xx_HAL_Driver/Src/stm32f4xx_hal_rtc_ex.c ****   * @retval HAL status
ARM GAS  /tmp/cchQ4tcR.s 			page 62


1056:Drivers/STM32F4xx_HAL_Driver/Src/stm32f4xx_hal_rtc_ex.c ****   */
1057:Drivers/STM32F4xx_HAL_Driver/Src/stm32f4xx_hal_rtc_ex.c **** HAL_StatusTypeDef HAL_RTCEx_PollForWakeUpTimerEvent(RTC_HandleTypeDef *hrtc, uint32_t Timeout)
1058:Drivers/STM32F4xx_HAL_Driver/Src/stm32f4xx_hal_rtc_ex.c **** {
 2124              		.loc 1 1058 1 view -0
 2125              		.cfi_startproc
 2126              		@ args = 0, pretend = 0, frame = 0
 2127              		@ frame_needed = 0, uses_anonymous_args = 0
1059:Drivers/STM32F4xx_HAL_Driver/Src/stm32f4xx_hal_rtc_ex.c ****   uint32_t tickstart = 0U;
 2128              		.loc 1 1059 3 view .LVU763
1060:Drivers/STM32F4xx_HAL_Driver/Src/stm32f4xx_hal_rtc_ex.c **** 
1061:Drivers/STM32F4xx_HAL_Driver/Src/stm32f4xx_hal_rtc_ex.c ****   /* Get tick */
1062:Drivers/STM32F4xx_HAL_Driver/Src/stm32f4xx_hal_rtc_ex.c ****   tickstart = HAL_GetTick();
 2129              		.loc 1 1062 3 view .LVU764
1058:Drivers/STM32F4xx_HAL_Driver/Src/stm32f4xx_hal_rtc_ex.c ****   uint32_t tickstart = 0U;
 2130              		.loc 1 1058 1 is_stmt 0 view .LVU765
 2131 0000 70B5     		push	{r4, r5, r6, lr}
 2132              		.cfi_def_cfa_offset 16
 2133              		.cfi_offset 4, -16
 2134              		.cfi_offset 5, -12
 2135              		.cfi_offset 6, -8
 2136              		.cfi_offset 14, -4
1058:Drivers/STM32F4xx_HAL_Driver/Src/stm32f4xx_hal_rtc_ex.c ****   uint32_t tickstart = 0U;
 2137              		.loc 1 1058 1 view .LVU766
 2138 0002 0546     		mov	r5, r0
 2139 0004 0C46     		mov	r4, r1
 2140              		.loc 1 1062 15 view .LVU767
 2141 0006 FFF7FEFF 		bl	HAL_GetTick
 2142              	.LVL131:
 2143              		.loc 1 1062 15 view .LVU768
 2144 000a 0646     		mov	r6, r0
 2145              	.LVL132:
1063:Drivers/STM32F4xx_HAL_Driver/Src/stm32f4xx_hal_rtc_ex.c **** 
1064:Drivers/STM32F4xx_HAL_Driver/Src/stm32f4xx_hal_rtc_ex.c ****   while(__HAL_RTC_WAKEUPTIMER_GET_FLAG(hrtc, RTC_FLAG_WUTF) == RESET)
 2146              		.loc 1 1064 3 is_stmt 1 view .LVU769
 2147              	.L178:
 2148              		.loc 1 1064 9 is_stmt 0 view .LVU770
 2149 000c 2A68     		ldr	r2, [r5]
 2150 000e 01E0     		b	.L179
 2151              	.L183:
1065:Drivers/STM32F4xx_HAL_Driver/Src/stm32f4xx_hal_rtc_ex.c ****   {
1066:Drivers/STM32F4xx_HAL_Driver/Src/stm32f4xx_hal_rtc_ex.c ****     if(Timeout != HAL_MAX_DELAY)
 2152              		.loc 1 1066 7 view .LVU771
 2153 0010 611C     		adds	r1, r4, #1
 2154 0012 0BD1     		bne	.L187
 2155              	.L179:
 2156              		.loc 1 1066 5 is_stmt 1 view .LVU772
1064:Drivers/STM32F4xx_HAL_Driver/Src/stm32f4xx_hal_rtc_ex.c ****   {
 2157              		.loc 1 1064 8 view .LVU773
1064:Drivers/STM32F4xx_HAL_Driver/Src/stm32f4xx_hal_rtc_ex.c ****   {
 2158              		.loc 1 1064 9 is_stmt 0 view .LVU774
 2159 0014 D368     		ldr	r3, [r2, #12]
1064:Drivers/STM32F4xx_HAL_Driver/Src/stm32f4xx_hal_rtc_ex.c ****   {
 2160              		.loc 1 1064 8 view .LVU775
 2161 0016 5B05     		lsls	r3, r3, #21
 2162 0018 FAD5     		bpl	.L183
1067:Drivers/STM32F4xx_HAL_Driver/Src/stm32f4xx_hal_rtc_ex.c ****     {
1068:Drivers/STM32F4xx_HAL_Driver/Src/stm32f4xx_hal_rtc_ex.c ****       if((Timeout == 0U)||((HAL_GetTick() - tickstart ) > Timeout))
ARM GAS  /tmp/cchQ4tcR.s 			page 63


1069:Drivers/STM32F4xx_HAL_Driver/Src/stm32f4xx_hal_rtc_ex.c ****       {
1070:Drivers/STM32F4xx_HAL_Driver/Src/stm32f4xx_hal_rtc_ex.c ****         hrtc->State = HAL_RTC_STATE_TIMEOUT;
1071:Drivers/STM32F4xx_HAL_Driver/Src/stm32f4xx_hal_rtc_ex.c **** 
1072:Drivers/STM32F4xx_HAL_Driver/Src/stm32f4xx_hal_rtc_ex.c ****         return HAL_TIMEOUT;
1073:Drivers/STM32F4xx_HAL_Driver/Src/stm32f4xx_hal_rtc_ex.c ****       }
1074:Drivers/STM32F4xx_HAL_Driver/Src/stm32f4xx_hal_rtc_ex.c ****     }
1075:Drivers/STM32F4xx_HAL_Driver/Src/stm32f4xx_hal_rtc_ex.c ****   }
1076:Drivers/STM32F4xx_HAL_Driver/Src/stm32f4xx_hal_rtc_ex.c **** 
1077:Drivers/STM32F4xx_HAL_Driver/Src/stm32f4xx_hal_rtc_ex.c ****   /* Clear the WAKEUPTIMER Flag */
1078:Drivers/STM32F4xx_HAL_Driver/Src/stm32f4xx_hal_rtc_ex.c ****   __HAL_RTC_WAKEUPTIMER_CLEAR_FLAG(hrtc, RTC_FLAG_WUTF);
 2163              		.loc 1 1078 3 is_stmt 1 view .LVU776
 2164 001a D368     		ldr	r3, [r2, #12]
 2165 001c DBB2     		uxtb	r3, r3
1079:Drivers/STM32F4xx_HAL_Driver/Src/stm32f4xx_hal_rtc_ex.c **** 
1080:Drivers/STM32F4xx_HAL_Driver/Src/stm32f4xx_hal_rtc_ex.c ****   /* Change RTC state */
1081:Drivers/STM32F4xx_HAL_Driver/Src/stm32f4xx_hal_rtc_ex.c ****   hrtc->State = HAL_RTC_STATE_READY;
 2166              		.loc 1 1081 15 is_stmt 0 view .LVU777
 2167 001e 0121     		movs	r1, #1
1078:Drivers/STM32F4xx_HAL_Driver/Src/stm32f4xx_hal_rtc_ex.c **** 
 2168              		.loc 1 1078 3 view .LVU778
 2169 0020 63F49063 		orn	r3, r3, #1152
 2170 0024 D360     		str	r3, [r2, #12]
 2171              		.loc 1 1081 3 is_stmt 1 view .LVU779
 2172              		.loc 1 1081 15 is_stmt 0 view .LVU780
 2173 0026 6977     		strb	r1, [r5, #29]
1082:Drivers/STM32F4xx_HAL_Driver/Src/stm32f4xx_hal_rtc_ex.c **** 
1083:Drivers/STM32F4xx_HAL_Driver/Src/stm32f4xx_hal_rtc_ex.c ****   return HAL_OK;
 2174              		.loc 1 1083 3 is_stmt 1 view .LVU781
 2175              		.loc 1 1083 10 is_stmt 0 view .LVU782
 2176 0028 0020     		movs	r0, #0
1084:Drivers/STM32F4xx_HAL_Driver/Src/stm32f4xx_hal_rtc_ex.c **** }
 2177              		.loc 1 1084 1 view .LVU783
 2178 002a 70BD     		pop	{r4, r5, r6, pc}
 2179              	.LVL133:
 2180              	.L187:
1068:Drivers/STM32F4xx_HAL_Driver/Src/stm32f4xx_hal_rtc_ex.c ****       {
 2181              		.loc 1 1068 7 is_stmt 1 view .LVU784
1068:Drivers/STM32F4xx_HAL_Driver/Src/stm32f4xx_hal_rtc_ex.c ****       {
 2182              		.loc 1 1068 9 is_stmt 0 view .LVU785
 2183 002c 24B1     		cbz	r4, .L182
1068:Drivers/STM32F4xx_HAL_Driver/Src/stm32f4xx_hal_rtc_ex.c ****       {
 2184              		.loc 1 1068 29 discriminator 1 view .LVU786
 2185 002e FFF7FEFF 		bl	HAL_GetTick
 2186              	.LVL134:
1068:Drivers/STM32F4xx_HAL_Driver/Src/stm32f4xx_hal_rtc_ex.c ****       {
 2187              		.loc 1 1068 43 discriminator 1 view .LVU787
 2188 0032 801B     		subs	r0, r0, r6
1068:Drivers/STM32F4xx_HAL_Driver/Src/stm32f4xx_hal_rtc_ex.c ****       {
 2189              		.loc 1 1068 25 discriminator 1 view .LVU788
 2190 0034 A042     		cmp	r0, r4
 2191 0036 E9D9     		bls	.L178
 2192              	.L182:
1070:Drivers/STM32F4xx_HAL_Driver/Src/stm32f4xx_hal_rtc_ex.c **** 
 2193              		.loc 1 1070 9 is_stmt 1 view .LVU789
1070:Drivers/STM32F4xx_HAL_Driver/Src/stm32f4xx_hal_rtc_ex.c **** 
 2194              		.loc 1 1070 21 is_stmt 0 view .LVU790
 2195 0038 0320     		movs	r0, #3
ARM GAS  /tmp/cchQ4tcR.s 			page 64


 2196 003a 6877     		strb	r0, [r5, #29]
1072:Drivers/STM32F4xx_HAL_Driver/Src/stm32f4xx_hal_rtc_ex.c ****       }
 2197              		.loc 1 1072 9 is_stmt 1 view .LVU791
 2198              		.loc 1 1084 1 is_stmt 0 view .LVU792
 2199 003c 70BD     		pop	{r4, r5, r6, pc}
 2200              		.loc 1 1084 1 view .LVU793
 2201              		.cfi_endproc
 2202              	.LFE255:
 2204 003e 00BF     		.section	.text.HAL_RTCEx_BKUPWrite,"ax",%progbits
 2205              		.align	1
 2206              		.p2align 2,,3
 2207              		.global	HAL_RTCEx_BKUPWrite
 2208              		.syntax unified
 2209              		.thumb
 2210              		.thumb_func
 2212              	HAL_RTCEx_BKUPWrite:
 2213              	.LVL135:
 2214              	.LFB256:
1085:Drivers/STM32F4xx_HAL_Driver/Src/stm32f4xx_hal_rtc_ex.c **** 
1086:Drivers/STM32F4xx_HAL_Driver/Src/stm32f4xx_hal_rtc_ex.c **** /**
1087:Drivers/STM32F4xx_HAL_Driver/Src/stm32f4xx_hal_rtc_ex.c ****   * @}
1088:Drivers/STM32F4xx_HAL_Driver/Src/stm32f4xx_hal_rtc_ex.c ****   */
1089:Drivers/STM32F4xx_HAL_Driver/Src/stm32f4xx_hal_rtc_ex.c **** 
1090:Drivers/STM32F4xx_HAL_Driver/Src/stm32f4xx_hal_rtc_ex.c **** 
1091:Drivers/STM32F4xx_HAL_Driver/Src/stm32f4xx_hal_rtc_ex.c **** /** @defgroup RTCEx_Exported_Functions_Group3 Extension Peripheral Control functions
1092:Drivers/STM32F4xx_HAL_Driver/Src/stm32f4xx_hal_rtc_ex.c ****  *  @brief   Extension Peripheral Control functions
1093:Drivers/STM32F4xx_HAL_Driver/Src/stm32f4xx_hal_rtc_ex.c ****  *
1094:Drivers/STM32F4xx_HAL_Driver/Src/stm32f4xx_hal_rtc_ex.c **** @verbatim
1095:Drivers/STM32F4xx_HAL_Driver/Src/stm32f4xx_hal_rtc_ex.c ****  ===============================================================================
1096:Drivers/STM32F4xx_HAL_Driver/Src/stm32f4xx_hal_rtc_ex.c ****               ##### Extension Peripheral Control functions #####
1097:Drivers/STM32F4xx_HAL_Driver/Src/stm32f4xx_hal_rtc_ex.c ****  ===============================================================================
1098:Drivers/STM32F4xx_HAL_Driver/Src/stm32f4xx_hal_rtc_ex.c ****     [..]
1099:Drivers/STM32F4xx_HAL_Driver/Src/stm32f4xx_hal_rtc_ex.c ****     This subsection provides functions allowing to
1100:Drivers/STM32F4xx_HAL_Driver/Src/stm32f4xx_hal_rtc_ex.c ****       (+) Write a data in a specified RTC Backup data register
1101:Drivers/STM32F4xx_HAL_Driver/Src/stm32f4xx_hal_rtc_ex.c ****       (+) Read a data in a specified RTC Backup data register
1102:Drivers/STM32F4xx_HAL_Driver/Src/stm32f4xx_hal_rtc_ex.c ****       (+) Set the Coarse calibration parameters.
1103:Drivers/STM32F4xx_HAL_Driver/Src/stm32f4xx_hal_rtc_ex.c ****       (+) Deactivate the Coarse calibration parameters
1104:Drivers/STM32F4xx_HAL_Driver/Src/stm32f4xx_hal_rtc_ex.c ****       (+) Set the Smooth calibration parameters.
1105:Drivers/STM32F4xx_HAL_Driver/Src/stm32f4xx_hal_rtc_ex.c ****       (+) Configure the Synchronization Shift Control Settings.
1106:Drivers/STM32F4xx_HAL_Driver/Src/stm32f4xx_hal_rtc_ex.c ****       (+) Configure the Calibration Pinout (RTC_CALIB) Selection (1Hz or 512Hz).
1107:Drivers/STM32F4xx_HAL_Driver/Src/stm32f4xx_hal_rtc_ex.c ****       (+) Deactivate the Calibration Pinout (RTC_CALIB) Selection (1Hz or 512Hz).
1108:Drivers/STM32F4xx_HAL_Driver/Src/stm32f4xx_hal_rtc_ex.c ****       (+) Enable the RTC reference clock detection.
1109:Drivers/STM32F4xx_HAL_Driver/Src/stm32f4xx_hal_rtc_ex.c ****       (+) Disable the RTC reference clock detection.
1110:Drivers/STM32F4xx_HAL_Driver/Src/stm32f4xx_hal_rtc_ex.c ****       (+) Enable the Bypass Shadow feature.
1111:Drivers/STM32F4xx_HAL_Driver/Src/stm32f4xx_hal_rtc_ex.c ****       (+) Disable the Bypass Shadow feature.
1112:Drivers/STM32F4xx_HAL_Driver/Src/stm32f4xx_hal_rtc_ex.c **** 
1113:Drivers/STM32F4xx_HAL_Driver/Src/stm32f4xx_hal_rtc_ex.c **** @endverbatim
1114:Drivers/STM32F4xx_HAL_Driver/Src/stm32f4xx_hal_rtc_ex.c ****   * @{
1115:Drivers/STM32F4xx_HAL_Driver/Src/stm32f4xx_hal_rtc_ex.c ****   */
1116:Drivers/STM32F4xx_HAL_Driver/Src/stm32f4xx_hal_rtc_ex.c **** 
1117:Drivers/STM32F4xx_HAL_Driver/Src/stm32f4xx_hal_rtc_ex.c **** /**
1118:Drivers/STM32F4xx_HAL_Driver/Src/stm32f4xx_hal_rtc_ex.c ****   * @brief  Writes a data in a specified RTC Backup data register.
1119:Drivers/STM32F4xx_HAL_Driver/Src/stm32f4xx_hal_rtc_ex.c ****   * @param  hrtc pointer to a RTC_HandleTypeDef structure that contains
1120:Drivers/STM32F4xx_HAL_Driver/Src/stm32f4xx_hal_rtc_ex.c ****   *                the configuration information for RTC.
1121:Drivers/STM32F4xx_HAL_Driver/Src/stm32f4xx_hal_rtc_ex.c ****   * @param  BackupRegister RTC Backup data Register number.
1122:Drivers/STM32F4xx_HAL_Driver/Src/stm32f4xx_hal_rtc_ex.c ****   *          This parameter can be: RTC_BKP_DRx where x can be from 0 to 19 to
1123:Drivers/STM32F4xx_HAL_Driver/Src/stm32f4xx_hal_rtc_ex.c ****   *                                 specify the register.
ARM GAS  /tmp/cchQ4tcR.s 			page 65


1124:Drivers/STM32F4xx_HAL_Driver/Src/stm32f4xx_hal_rtc_ex.c ****   * @param  Data Data to be written in the specified RTC Backup data register.
1125:Drivers/STM32F4xx_HAL_Driver/Src/stm32f4xx_hal_rtc_ex.c ****   * @retval None
1126:Drivers/STM32F4xx_HAL_Driver/Src/stm32f4xx_hal_rtc_ex.c ****   */
1127:Drivers/STM32F4xx_HAL_Driver/Src/stm32f4xx_hal_rtc_ex.c **** void HAL_RTCEx_BKUPWrite(RTC_HandleTypeDef *hrtc, uint32_t BackupRegister, uint32_t Data)
1128:Drivers/STM32F4xx_HAL_Driver/Src/stm32f4xx_hal_rtc_ex.c **** {
 2215              		.loc 1 1128 1 is_stmt 1 view -0
 2216              		.cfi_startproc
 2217              		@ args = 0, pretend = 0, frame = 0
 2218              		@ frame_needed = 0, uses_anonymous_args = 0
 2219              		@ link register save eliminated.
1129:Drivers/STM32F4xx_HAL_Driver/Src/stm32f4xx_hal_rtc_ex.c ****   uint32_t tmp = 0U;
 2220              		.loc 1 1129 3 view .LVU795
1130:Drivers/STM32F4xx_HAL_Driver/Src/stm32f4xx_hal_rtc_ex.c **** 
1131:Drivers/STM32F4xx_HAL_Driver/Src/stm32f4xx_hal_rtc_ex.c ****   /* Check the parameters */
1132:Drivers/STM32F4xx_HAL_Driver/Src/stm32f4xx_hal_rtc_ex.c ****   assert_param(IS_RTC_BKP(BackupRegister));
 2221              		.loc 1 1132 3 view .LVU796
1133:Drivers/STM32F4xx_HAL_Driver/Src/stm32f4xx_hal_rtc_ex.c **** 
1134:Drivers/STM32F4xx_HAL_Driver/Src/stm32f4xx_hal_rtc_ex.c ****   tmp = (uint32_t)&(hrtc->Instance->BKP0R);
 2222              		.loc 1 1134 3 view .LVU797
 2223              		.loc 1 1134 19 is_stmt 0 view .LVU798
 2224 0000 0368     		ldr	r3, [r0]
 2225 0002 5033     		adds	r3, r3, #80
 2226              	.LVL136:
1135:Drivers/STM32F4xx_HAL_Driver/Src/stm32f4xx_hal_rtc_ex.c ****   tmp += (BackupRegister * 4U);
 2227              		.loc 1 1135 3 is_stmt 1 view .LVU799
1136:Drivers/STM32F4xx_HAL_Driver/Src/stm32f4xx_hal_rtc_ex.c **** 
1137:Drivers/STM32F4xx_HAL_Driver/Src/stm32f4xx_hal_rtc_ex.c ****   /* Write the specified register */
1138:Drivers/STM32F4xx_HAL_Driver/Src/stm32f4xx_hal_rtc_ex.c ****   *(__IO uint32_t *)tmp = (uint32_t)Data;
 2228              		.loc 1 1138 3 view .LVU800
 2229              		.loc 1 1138 25 is_stmt 0 view .LVU801
 2230 0004 43F82120 		str	r2, [r3, r1, lsl #2]
1139:Drivers/STM32F4xx_HAL_Driver/Src/stm32f4xx_hal_rtc_ex.c **** }
 2231              		.loc 1 1139 1 view .LVU802
 2232 0008 7047     		bx	lr
 2233              		.cfi_endproc
 2234              	.LFE256:
 2236 000a 00BF     		.section	.text.HAL_RTCEx_BKUPRead,"ax",%progbits
 2237              		.align	1
 2238              		.p2align 2,,3
 2239              		.global	HAL_RTCEx_BKUPRead
 2240              		.syntax unified
 2241              		.thumb
 2242              		.thumb_func
 2244              	HAL_RTCEx_BKUPRead:
 2245              	.LVL137:
 2246              	.LFB257:
1140:Drivers/STM32F4xx_HAL_Driver/Src/stm32f4xx_hal_rtc_ex.c **** 
1141:Drivers/STM32F4xx_HAL_Driver/Src/stm32f4xx_hal_rtc_ex.c **** /**
1142:Drivers/STM32F4xx_HAL_Driver/Src/stm32f4xx_hal_rtc_ex.c ****   * @brief  Reads data from the specified RTC Backup data Register.
1143:Drivers/STM32F4xx_HAL_Driver/Src/stm32f4xx_hal_rtc_ex.c ****   * @param  hrtc pointer to a RTC_HandleTypeDef structure that contains
1144:Drivers/STM32F4xx_HAL_Driver/Src/stm32f4xx_hal_rtc_ex.c ****   *                the configuration information for RTC.
1145:Drivers/STM32F4xx_HAL_Driver/Src/stm32f4xx_hal_rtc_ex.c ****   * @param  BackupRegister RTC Backup data Register number.
1146:Drivers/STM32F4xx_HAL_Driver/Src/stm32f4xx_hal_rtc_ex.c ****   *          This parameter can be: RTC_BKP_DRx where x can be from 0 to 19 to
1147:Drivers/STM32F4xx_HAL_Driver/Src/stm32f4xx_hal_rtc_ex.c ****   *                                 specify the register.
1148:Drivers/STM32F4xx_HAL_Driver/Src/stm32f4xx_hal_rtc_ex.c ****   * @retval Read value
1149:Drivers/STM32F4xx_HAL_Driver/Src/stm32f4xx_hal_rtc_ex.c ****   */
1150:Drivers/STM32F4xx_HAL_Driver/Src/stm32f4xx_hal_rtc_ex.c **** uint32_t HAL_RTCEx_BKUPRead(RTC_HandleTypeDef *hrtc, uint32_t BackupRegister)
ARM GAS  /tmp/cchQ4tcR.s 			page 66


1151:Drivers/STM32F4xx_HAL_Driver/Src/stm32f4xx_hal_rtc_ex.c **** {
 2247              		.loc 1 1151 1 is_stmt 1 view -0
 2248              		.cfi_startproc
 2249              		@ args = 0, pretend = 0, frame = 0
 2250              		@ frame_needed = 0, uses_anonymous_args = 0
 2251              		@ link register save eliminated.
1152:Drivers/STM32F4xx_HAL_Driver/Src/stm32f4xx_hal_rtc_ex.c ****   uint32_t tmp = 0U;
 2252              		.loc 1 1152 3 view .LVU804
1153:Drivers/STM32F4xx_HAL_Driver/Src/stm32f4xx_hal_rtc_ex.c **** 
1154:Drivers/STM32F4xx_HAL_Driver/Src/stm32f4xx_hal_rtc_ex.c ****   /* Check the parameters */
1155:Drivers/STM32F4xx_HAL_Driver/Src/stm32f4xx_hal_rtc_ex.c ****   assert_param(IS_RTC_BKP(BackupRegister));
 2253              		.loc 1 1155 3 view .LVU805
1156:Drivers/STM32F4xx_HAL_Driver/Src/stm32f4xx_hal_rtc_ex.c **** 
1157:Drivers/STM32F4xx_HAL_Driver/Src/stm32f4xx_hal_rtc_ex.c ****   tmp = (uint32_t)&(hrtc->Instance->BKP0R);
 2254              		.loc 1 1157 3 view .LVU806
 2255              		.loc 1 1157 19 is_stmt 0 view .LVU807
 2256 0000 0368     		ldr	r3, [r0]
 2257 0002 5033     		adds	r3, r3, #80
 2258              	.LVL138:
1158:Drivers/STM32F4xx_HAL_Driver/Src/stm32f4xx_hal_rtc_ex.c ****   tmp += (BackupRegister * 4U);
 2259              		.loc 1 1158 3 is_stmt 1 view .LVU808
1159:Drivers/STM32F4xx_HAL_Driver/Src/stm32f4xx_hal_rtc_ex.c **** 
1160:Drivers/STM32F4xx_HAL_Driver/Src/stm32f4xx_hal_rtc_ex.c ****   /* Read the specified register */
1161:Drivers/STM32F4xx_HAL_Driver/Src/stm32f4xx_hal_rtc_ex.c ****   return (*(__IO uint32_t *)tmp);
 2260              		.loc 1 1161 3 view .LVU809
 2261              		.loc 1 1161 11 is_stmt 0 view .LVU810
 2262 0004 53F82100 		ldr	r0, [r3, r1, lsl #2]
 2263              	.LVL139:
1162:Drivers/STM32F4xx_HAL_Driver/Src/stm32f4xx_hal_rtc_ex.c **** }
 2264              		.loc 1 1162 1 view .LVU811
 2265 0008 7047     		bx	lr
 2266              		.cfi_endproc
 2267              	.LFE257:
 2269 000a 00BF     		.section	.text.HAL_RTCEx_SetCoarseCalib,"ax",%progbits
 2270              		.align	1
 2271              		.p2align 2,,3
 2272              		.global	HAL_RTCEx_SetCoarseCalib
 2273              		.syntax unified
 2274              		.thumb
 2275              		.thumb_func
 2277              	HAL_RTCEx_SetCoarseCalib:
 2278              	.LVL140:
 2279              	.LFB258:
1163:Drivers/STM32F4xx_HAL_Driver/Src/stm32f4xx_hal_rtc_ex.c **** 
1164:Drivers/STM32F4xx_HAL_Driver/Src/stm32f4xx_hal_rtc_ex.c **** /**
1165:Drivers/STM32F4xx_HAL_Driver/Src/stm32f4xx_hal_rtc_ex.c ****   * @brief  Sets the Coarse calibration parameters.
1166:Drivers/STM32F4xx_HAL_Driver/Src/stm32f4xx_hal_rtc_ex.c ****   * @param  hrtc pointer to a RTC_HandleTypeDef structure that contains
1167:Drivers/STM32F4xx_HAL_Driver/Src/stm32f4xx_hal_rtc_ex.c ****   *                the configuration information for RTC.
1168:Drivers/STM32F4xx_HAL_Driver/Src/stm32f4xx_hal_rtc_ex.c ****   * @param  CalibSign Specifies the sign of the coarse calibration value.
1169:Drivers/STM32F4xx_HAL_Driver/Src/stm32f4xx_hal_rtc_ex.c ****   *          This parameter can be  one of the following values :
1170:Drivers/STM32F4xx_HAL_Driver/Src/stm32f4xx_hal_rtc_ex.c ****   *             @arg RTC_CALIBSIGN_POSITIVE: The value sign is positive
1171:Drivers/STM32F4xx_HAL_Driver/Src/stm32f4xx_hal_rtc_ex.c ****   *             @arg RTC_CALIBSIGN_NEGATIVE: The value sign is negative
1172:Drivers/STM32F4xx_HAL_Driver/Src/stm32f4xx_hal_rtc_ex.c ****   * @param  Value value of coarse calibration expressed in ppm (coded on 5 bits).
1173:Drivers/STM32F4xx_HAL_Driver/Src/stm32f4xx_hal_rtc_ex.c ****   *
1174:Drivers/STM32F4xx_HAL_Driver/Src/stm32f4xx_hal_rtc_ex.c ****   * @note   This Calibration value should be between 0 and 63 when using negative
1175:Drivers/STM32F4xx_HAL_Driver/Src/stm32f4xx_hal_rtc_ex.c ****   *         sign with a 2-ppm step.
1176:Drivers/STM32F4xx_HAL_Driver/Src/stm32f4xx_hal_rtc_ex.c ****   *
ARM GAS  /tmp/cchQ4tcR.s 			page 67


1177:Drivers/STM32F4xx_HAL_Driver/Src/stm32f4xx_hal_rtc_ex.c ****   * @note   This Calibration value should be between 0 and 126 when using positive
1178:Drivers/STM32F4xx_HAL_Driver/Src/stm32f4xx_hal_rtc_ex.c ****   *         sign with a 4-ppm step.
1179:Drivers/STM32F4xx_HAL_Driver/Src/stm32f4xx_hal_rtc_ex.c ****   * @retval HAL status
1180:Drivers/STM32F4xx_HAL_Driver/Src/stm32f4xx_hal_rtc_ex.c ****   */
1181:Drivers/STM32F4xx_HAL_Driver/Src/stm32f4xx_hal_rtc_ex.c **** HAL_StatusTypeDef HAL_RTCEx_SetCoarseCalib(RTC_HandleTypeDef* hrtc, uint32_t CalibSign, uint32_t Va
1182:Drivers/STM32F4xx_HAL_Driver/Src/stm32f4xx_hal_rtc_ex.c **** {
 2280              		.loc 1 1182 1 is_stmt 1 view -0
 2281              		.cfi_startproc
 2282              		@ args = 0, pretend = 0, frame = 0
 2283              		@ frame_needed = 0, uses_anonymous_args = 0
1183:Drivers/STM32F4xx_HAL_Driver/Src/stm32f4xx_hal_rtc_ex.c ****   /* Check the parameters */
1184:Drivers/STM32F4xx_HAL_Driver/Src/stm32f4xx_hal_rtc_ex.c ****   assert_param(IS_RTC_CALIB_SIGN(CalibSign));
 2284              		.loc 1 1184 3 view .LVU813
1185:Drivers/STM32F4xx_HAL_Driver/Src/stm32f4xx_hal_rtc_ex.c ****   assert_param(IS_RTC_CALIB_VALUE(Value));
 2285              		.loc 1 1185 3 view .LVU814
1186:Drivers/STM32F4xx_HAL_Driver/Src/stm32f4xx_hal_rtc_ex.c **** 
1187:Drivers/STM32F4xx_HAL_Driver/Src/stm32f4xx_hal_rtc_ex.c ****   /* Process Locked */
1188:Drivers/STM32F4xx_HAL_Driver/Src/stm32f4xx_hal_rtc_ex.c ****   __HAL_LOCK(hrtc);
 2286              		.loc 1 1188 3 view .LVU815
 2287              		.loc 1 1188 3 view .LVU816
1182:Drivers/STM32F4xx_HAL_Driver/Src/stm32f4xx_hal_rtc_ex.c ****   /* Check the parameters */
 2288              		.loc 1 1182 1 is_stmt 0 view .LVU817
 2289 0000 F8B5     		push	{r3, r4, r5, r6, r7, lr}
 2290              		.cfi_def_cfa_offset 24
 2291              		.cfi_offset 3, -24
 2292              		.cfi_offset 4, -20
 2293              		.cfi_offset 5, -16
 2294              		.cfi_offset 6, -12
 2295              		.cfi_offset 7, -8
 2296              		.cfi_offset 14, -4
 2297              		.loc 1 1188 3 view .LVU818
 2298 0002 037F     		ldrb	r3, [r0, #28]	@ zero_extendqisi2
 2299 0004 012B     		cmp	r3, #1
 2300 0006 27D0     		beq	.L193
 2301              		.loc 1 1188 3 is_stmt 1 discriminator 2 view .LVU819
1189:Drivers/STM32F4xx_HAL_Driver/Src/stm32f4xx_hal_rtc_ex.c **** 
1190:Drivers/STM32F4xx_HAL_Driver/Src/stm32f4xx_hal_rtc_ex.c ****   hrtc->State = HAL_RTC_STATE_BUSY;
1191:Drivers/STM32F4xx_HAL_Driver/Src/stm32f4xx_hal_rtc_ex.c **** 
1192:Drivers/STM32F4xx_HAL_Driver/Src/stm32f4xx_hal_rtc_ex.c ****   /* Disable the write protection for RTC registers */
1193:Drivers/STM32F4xx_HAL_Driver/Src/stm32f4xx_hal_rtc_ex.c ****   __HAL_RTC_WRITEPROTECTION_DISABLE(hrtc);
 2302              		.loc 1 1193 3 is_stmt 0 discriminator 2 view .LVU820
 2303 0008 0368     		ldr	r3, [r0]
 2304 000a 1746     		mov	r7, r2
1190:Drivers/STM32F4xx_HAL_Driver/Src/stm32f4xx_hal_rtc_ex.c **** 
 2305              		.loc 1 1190 15 discriminator 2 view .LVU821
 2306 000c 0222     		movs	r2, #2
 2307              	.LVL141:
1190:Drivers/STM32F4xx_HAL_Driver/Src/stm32f4xx_hal_rtc_ex.c **** 
 2308              		.loc 1 1190 15 discriminator 2 view .LVU822
 2309 000e 4277     		strb	r2, [r0, #29]
1188:Drivers/STM32F4xx_HAL_Driver/Src/stm32f4xx_hal_rtc_ex.c **** 
 2310              		.loc 1 1188 3 discriminator 2 view .LVU823
 2311 0010 0126     		movs	r6, #1
 2312              		.loc 1 1193 3 discriminator 2 view .LVU824
 2313 0012 CA22     		movs	r2, #202
1188:Drivers/STM32F4xx_HAL_Driver/Src/stm32f4xx_hal_rtc_ex.c **** 
 2314              		.loc 1 1188 3 discriminator 2 view .LVU825
ARM GAS  /tmp/cchQ4tcR.s 			page 68


 2315 0014 0677     		strb	r6, [r0, #28]
1188:Drivers/STM32F4xx_HAL_Driver/Src/stm32f4xx_hal_rtc_ex.c **** 
 2316              		.loc 1 1188 3 is_stmt 1 discriminator 2 view .LVU826
1190:Drivers/STM32F4xx_HAL_Driver/Src/stm32f4xx_hal_rtc_ex.c **** 
 2317              		.loc 1 1190 3 discriminator 2 view .LVU827
 2318              		.loc 1 1193 3 discriminator 2 view .LVU828
 2319              		.loc 1 1193 3 discriminator 2 view .LVU829
 2320 0016 5A62     		str	r2, [r3, #36]
 2321              		.loc 1 1193 3 discriminator 2 view .LVU830
 2322 0018 5322     		movs	r2, #83
 2323 001a 5A62     		str	r2, [r3, #36]
 2324              		.loc 1 1193 3 discriminator 2 view .LVU831
1194:Drivers/STM32F4xx_HAL_Driver/Src/stm32f4xx_hal_rtc_ex.c **** 
1195:Drivers/STM32F4xx_HAL_Driver/Src/stm32f4xx_hal_rtc_ex.c ****   /* Set Initialization mode */
1196:Drivers/STM32F4xx_HAL_Driver/Src/stm32f4xx_hal_rtc_ex.c ****   if(RTC_EnterInitMode(hrtc) != HAL_OK)
 2325              		.loc 1 1196 3 discriminator 2 view .LVU832
 2326 001c 0446     		mov	r4, r0
 2327 001e 0D46     		mov	r5, r1
