ARM GAS  /tmp/ccBPDmLJ.s 			page 1


   1              		.cpu cortex-m4
   2              		.arch armv7e-m
   3              		.fpu fpv4-sp-d16
   4              		.eabi_attribute 27, 1
   5              		.eabi_attribute 28, 1
   6              		.eabi_attribute 20, 1
   7              		.eabi_attribute 21, 1
   8              		.eabi_attribute 23, 3
   9              		.eabi_attribute 24, 1
  10              		.eabi_attribute 25, 1
  11              		.eabi_attribute 26, 1
  12              		.eabi_attribute 30, 2
  13              		.eabi_attribute 34, 1
  14              		.eabi_attribute 18, 4
  15              		.file	"usbd_core.c"
  16              		.text
  17              	.Ltext0:
  18              		.cfi_sections	.debug_frame
  19              		.section	.text.USBD_Init,"ax",%progbits
  20              		.align	1
  21              		.p2align 2,,3
  22              		.global	USBD_Init
  23              		.syntax unified
  24              		.thumb
  25              		.thumb_func
  27              	USBD_Init:
  28              	.LVL0:
  29              	.LFB239:
  30              		.file 1 "Middlewares/ST/STM32_USB_Device_Library/Core/Src/usbd_core.c"
   1:Middlewares/ST/STM32_USB_Device_Library/Core/Src/usbd_core.c **** /**
   2:Middlewares/ST/STM32_USB_Device_Library/Core/Src/usbd_core.c ****   ******************************************************************************
   3:Middlewares/ST/STM32_USB_Device_Library/Core/Src/usbd_core.c ****   * @file    usbd_core.c
   4:Middlewares/ST/STM32_USB_Device_Library/Core/Src/usbd_core.c ****   * @author  MCD Application Team
   5:Middlewares/ST/STM32_USB_Device_Library/Core/Src/usbd_core.c ****   * @brief   This file provides all the USBD core functions.
   6:Middlewares/ST/STM32_USB_Device_Library/Core/Src/usbd_core.c ****   ******************************************************************************
   7:Middlewares/ST/STM32_USB_Device_Library/Core/Src/usbd_core.c ****   * @attention
   8:Middlewares/ST/STM32_USB_Device_Library/Core/Src/usbd_core.c ****   *
   9:Middlewares/ST/STM32_USB_Device_Library/Core/Src/usbd_core.c ****   * <h2><center>&copy; Copyright (c) 2015 STMicroelectronics.
  10:Middlewares/ST/STM32_USB_Device_Library/Core/Src/usbd_core.c ****   * All rights reserved.</center></h2>
  11:Middlewares/ST/STM32_USB_Device_Library/Core/Src/usbd_core.c ****   *
  12:Middlewares/ST/STM32_USB_Device_Library/Core/Src/usbd_core.c ****   * This software component is licensed by ST under Ultimate Liberty license
  13:Middlewares/ST/STM32_USB_Device_Library/Core/Src/usbd_core.c ****   * SLA0044, the "License"; You may not use this file except in compliance with
  14:Middlewares/ST/STM32_USB_Device_Library/Core/Src/usbd_core.c ****   * the License. You may obtain a copy of the License at:
  15:Middlewares/ST/STM32_USB_Device_Library/Core/Src/usbd_core.c ****   *                      www.st.com/SLA0044
  16:Middlewares/ST/STM32_USB_Device_Library/Core/Src/usbd_core.c ****   *
  17:Middlewares/ST/STM32_USB_Device_Library/Core/Src/usbd_core.c ****   ******************************************************************************
  18:Middlewares/ST/STM32_USB_Device_Library/Core/Src/usbd_core.c ****   */
  19:Middlewares/ST/STM32_USB_Device_Library/Core/Src/usbd_core.c **** 
  20:Middlewares/ST/STM32_USB_Device_Library/Core/Src/usbd_core.c **** /* Includes ------------------------------------------------------------------*/
  21:Middlewares/ST/STM32_USB_Device_Library/Core/Src/usbd_core.c **** #include "usbd_core.h"
  22:Middlewares/ST/STM32_USB_Device_Library/Core/Src/usbd_core.c **** 
  23:Middlewares/ST/STM32_USB_Device_Library/Core/Src/usbd_core.c **** /** @addtogroup STM32_USBD_DEVICE_LIBRARY
  24:Middlewares/ST/STM32_USB_Device_Library/Core/Src/usbd_core.c ****   * @{
  25:Middlewares/ST/STM32_USB_Device_Library/Core/Src/usbd_core.c ****   */
  26:Middlewares/ST/STM32_USB_Device_Library/Core/Src/usbd_core.c **** 
  27:Middlewares/ST/STM32_USB_Device_Library/Core/Src/usbd_core.c **** 
  28:Middlewares/ST/STM32_USB_Device_Library/Core/Src/usbd_core.c **** /** @defgroup USBD_CORE
ARM GAS  /tmp/ccBPDmLJ.s 			page 2


  29:Middlewares/ST/STM32_USB_Device_Library/Core/Src/usbd_core.c ****   * @brief usbd core module
  30:Middlewares/ST/STM32_USB_Device_Library/Core/Src/usbd_core.c ****   * @{
  31:Middlewares/ST/STM32_USB_Device_Library/Core/Src/usbd_core.c ****   */
  32:Middlewares/ST/STM32_USB_Device_Library/Core/Src/usbd_core.c **** 
  33:Middlewares/ST/STM32_USB_Device_Library/Core/Src/usbd_core.c **** /** @defgroup USBD_CORE_Private_TypesDefinitions
  34:Middlewares/ST/STM32_USB_Device_Library/Core/Src/usbd_core.c ****   * @{
  35:Middlewares/ST/STM32_USB_Device_Library/Core/Src/usbd_core.c ****   */
  36:Middlewares/ST/STM32_USB_Device_Library/Core/Src/usbd_core.c **** 
  37:Middlewares/ST/STM32_USB_Device_Library/Core/Src/usbd_core.c **** /**
  38:Middlewares/ST/STM32_USB_Device_Library/Core/Src/usbd_core.c ****   * @}
  39:Middlewares/ST/STM32_USB_Device_Library/Core/Src/usbd_core.c ****   */
  40:Middlewares/ST/STM32_USB_Device_Library/Core/Src/usbd_core.c **** 
  41:Middlewares/ST/STM32_USB_Device_Library/Core/Src/usbd_core.c **** 
  42:Middlewares/ST/STM32_USB_Device_Library/Core/Src/usbd_core.c **** /** @defgroup USBD_CORE_Private_Defines
  43:Middlewares/ST/STM32_USB_Device_Library/Core/Src/usbd_core.c ****   * @{
  44:Middlewares/ST/STM32_USB_Device_Library/Core/Src/usbd_core.c ****   */
  45:Middlewares/ST/STM32_USB_Device_Library/Core/Src/usbd_core.c **** 
  46:Middlewares/ST/STM32_USB_Device_Library/Core/Src/usbd_core.c **** /**
  47:Middlewares/ST/STM32_USB_Device_Library/Core/Src/usbd_core.c ****   * @}
  48:Middlewares/ST/STM32_USB_Device_Library/Core/Src/usbd_core.c ****   */
  49:Middlewares/ST/STM32_USB_Device_Library/Core/Src/usbd_core.c **** 
  50:Middlewares/ST/STM32_USB_Device_Library/Core/Src/usbd_core.c **** 
  51:Middlewares/ST/STM32_USB_Device_Library/Core/Src/usbd_core.c **** /** @defgroup USBD_CORE_Private_Macros
  52:Middlewares/ST/STM32_USB_Device_Library/Core/Src/usbd_core.c ****   * @{
  53:Middlewares/ST/STM32_USB_Device_Library/Core/Src/usbd_core.c ****   */
  54:Middlewares/ST/STM32_USB_Device_Library/Core/Src/usbd_core.c **** 
  55:Middlewares/ST/STM32_USB_Device_Library/Core/Src/usbd_core.c **** /**
  56:Middlewares/ST/STM32_USB_Device_Library/Core/Src/usbd_core.c ****   * @}
  57:Middlewares/ST/STM32_USB_Device_Library/Core/Src/usbd_core.c ****   */
  58:Middlewares/ST/STM32_USB_Device_Library/Core/Src/usbd_core.c **** 
  59:Middlewares/ST/STM32_USB_Device_Library/Core/Src/usbd_core.c **** 
  60:Middlewares/ST/STM32_USB_Device_Library/Core/Src/usbd_core.c **** /** @defgroup USBD_CORE_Private_FunctionPrototypes
  61:Middlewares/ST/STM32_USB_Device_Library/Core/Src/usbd_core.c ****   * @{
  62:Middlewares/ST/STM32_USB_Device_Library/Core/Src/usbd_core.c ****   */
  63:Middlewares/ST/STM32_USB_Device_Library/Core/Src/usbd_core.c **** 
  64:Middlewares/ST/STM32_USB_Device_Library/Core/Src/usbd_core.c **** /**
  65:Middlewares/ST/STM32_USB_Device_Library/Core/Src/usbd_core.c ****   * @}
  66:Middlewares/ST/STM32_USB_Device_Library/Core/Src/usbd_core.c ****   */
  67:Middlewares/ST/STM32_USB_Device_Library/Core/Src/usbd_core.c **** 
  68:Middlewares/ST/STM32_USB_Device_Library/Core/Src/usbd_core.c **** /** @defgroup USBD_CORE_Private_Variables
  69:Middlewares/ST/STM32_USB_Device_Library/Core/Src/usbd_core.c ****   * @{
  70:Middlewares/ST/STM32_USB_Device_Library/Core/Src/usbd_core.c ****   */
  71:Middlewares/ST/STM32_USB_Device_Library/Core/Src/usbd_core.c **** 
  72:Middlewares/ST/STM32_USB_Device_Library/Core/Src/usbd_core.c **** /**
  73:Middlewares/ST/STM32_USB_Device_Library/Core/Src/usbd_core.c ****   * @}
  74:Middlewares/ST/STM32_USB_Device_Library/Core/Src/usbd_core.c ****   */
  75:Middlewares/ST/STM32_USB_Device_Library/Core/Src/usbd_core.c **** 
  76:Middlewares/ST/STM32_USB_Device_Library/Core/Src/usbd_core.c **** 
  77:Middlewares/ST/STM32_USB_Device_Library/Core/Src/usbd_core.c **** /** @defgroup USBD_CORE_Private_Functions
  78:Middlewares/ST/STM32_USB_Device_Library/Core/Src/usbd_core.c ****   * @{
  79:Middlewares/ST/STM32_USB_Device_Library/Core/Src/usbd_core.c ****   */
  80:Middlewares/ST/STM32_USB_Device_Library/Core/Src/usbd_core.c **** 
  81:Middlewares/ST/STM32_USB_Device_Library/Core/Src/usbd_core.c **** /**
  82:Middlewares/ST/STM32_USB_Device_Library/Core/Src/usbd_core.c ****   * @brief  USBD_Init
  83:Middlewares/ST/STM32_USB_Device_Library/Core/Src/usbd_core.c ****   *         Initializes the device stack and load the class driver
  84:Middlewares/ST/STM32_USB_Device_Library/Core/Src/usbd_core.c ****   * @param  pdev: device instance
  85:Middlewares/ST/STM32_USB_Device_Library/Core/Src/usbd_core.c ****   * @param  pdesc: Descriptor structure address
ARM GAS  /tmp/ccBPDmLJ.s 			page 3


  86:Middlewares/ST/STM32_USB_Device_Library/Core/Src/usbd_core.c ****   * @param  id: Low level core index
  87:Middlewares/ST/STM32_USB_Device_Library/Core/Src/usbd_core.c ****   * @retval None
  88:Middlewares/ST/STM32_USB_Device_Library/Core/Src/usbd_core.c ****   */
  89:Middlewares/ST/STM32_USB_Device_Library/Core/Src/usbd_core.c **** USBD_StatusTypeDef USBD_Init(USBD_HandleTypeDef *pdev,
  90:Middlewares/ST/STM32_USB_Device_Library/Core/Src/usbd_core.c ****                              USBD_DescriptorsTypeDef *pdesc, uint8_t id)
  91:Middlewares/ST/STM32_USB_Device_Library/Core/Src/usbd_core.c **** {
  31              		.loc 1 91 1 view -0
  32              		.cfi_startproc
  33              		@ args = 0, pretend = 0, frame = 0
  34              		@ frame_needed = 0, uses_anonymous_args = 0
  35              		@ link register save eliminated.
  92:Middlewares/ST/STM32_USB_Device_Library/Core/Src/usbd_core.c ****   USBD_StatusTypeDef ret;
  36              		.loc 1 92 3 view .LVU1
  93:Middlewares/ST/STM32_USB_Device_Library/Core/Src/usbd_core.c **** 
  94:Middlewares/ST/STM32_USB_Device_Library/Core/Src/usbd_core.c ****   /* Check whether the USB Host handle is valid */
  95:Middlewares/ST/STM32_USB_Device_Library/Core/Src/usbd_core.c ****   if (pdev == NULL)
  37              		.loc 1 95 3 view .LVU2
  38              		.loc 1 95 6 is_stmt 0 view .LVU3
  39 0000 78B1     		cbz	r0, .L2
  96:Middlewares/ST/STM32_USB_Device_Library/Core/Src/usbd_core.c ****   {
  97:Middlewares/ST/STM32_USB_Device_Library/Core/Src/usbd_core.c **** #if (USBD_DEBUG_LEVEL > 1U)
  98:Middlewares/ST/STM32_USB_Device_Library/Core/Src/usbd_core.c ****     USBD_ErrLog("Invalid Device handle");
  99:Middlewares/ST/STM32_USB_Device_Library/Core/Src/usbd_core.c **** #endif
 100:Middlewares/ST/STM32_USB_Device_Library/Core/Src/usbd_core.c ****     return USBD_FAIL;
 101:Middlewares/ST/STM32_USB_Device_Library/Core/Src/usbd_core.c ****   }
 102:Middlewares/ST/STM32_USB_Device_Library/Core/Src/usbd_core.c **** 
 103:Middlewares/ST/STM32_USB_Device_Library/Core/Src/usbd_core.c ****   /* Unlink previous class resources */
 104:Middlewares/ST/STM32_USB_Device_Library/Core/Src/usbd_core.c ****   pdev->pClass = NULL;
  40              		.loc 1 104 3 is_stmt 1 view .LVU4
  41              		.loc 1 104 16 is_stmt 0 view .LVU5
  42 0002 0023     		movs	r3, #0
  43 0004 C0F8B832 		str	r3, [r0, #696]
 105:Middlewares/ST/STM32_USB_Device_Library/Core/Src/usbd_core.c ****   pdev->pUserData = NULL;
  44              		.loc 1 105 3 is_stmt 1 view .LVU6
  45              		.loc 1 105 19 is_stmt 0 view .LVU7
  46 0008 C0F8C032 		str	r3, [r0, #704]
 106:Middlewares/ST/STM32_USB_Device_Library/Core/Src/usbd_core.c ****   pdev->pConfDesc = NULL;
  47              		.loc 1 106 3 is_stmt 1 view .LVU8
  48              		.loc 1 106 19 is_stmt 0 view .LVU9
  49 000c C0F8CC32 		str	r3, [r0, #716]
 107:Middlewares/ST/STM32_USB_Device_Library/Core/Src/usbd_core.c **** 
 108:Middlewares/ST/STM32_USB_Device_Library/Core/Src/usbd_core.c ****   /* Assign USBD Descriptors */
 109:Middlewares/ST/STM32_USB_Device_Library/Core/Src/usbd_core.c ****   if (pdesc != NULL)
  50              		.loc 1 109 3 is_stmt 1 view .LVU10
  51              		.loc 1 109 6 is_stmt 0 view .LVU11
  52 0010 09B1     		cbz	r1, .L3
 110:Middlewares/ST/STM32_USB_Device_Library/Core/Src/usbd_core.c ****   {
 111:Middlewares/ST/STM32_USB_Device_Library/Core/Src/usbd_core.c ****     pdev->pDesc = pdesc;
  53              		.loc 1 111 5 is_stmt 1 view .LVU12
  54              		.loc 1 111 17 is_stmt 0 view .LVU13
  55 0012 C0F8B412 		str	r1, [r0, #692]
  56              	.L3:
 112:Middlewares/ST/STM32_USB_Device_Library/Core/Src/usbd_core.c ****   }
 113:Middlewares/ST/STM32_USB_Device_Library/Core/Src/usbd_core.c **** 
 114:Middlewares/ST/STM32_USB_Device_Library/Core/Src/usbd_core.c ****   /* Set Device initial State */
 115:Middlewares/ST/STM32_USB_Device_Library/Core/Src/usbd_core.c ****   pdev->dev_state = USBD_STATE_DEFAULT;
  57              		.loc 1 115 3 is_stmt 1 view .LVU14
ARM GAS  /tmp/ccBPDmLJ.s 			page 4


  58              		.loc 1 115 19 is_stmt 0 view .LVU15
  59 0016 0123     		movs	r3, #1
  60 0018 80F89C32 		strb	r3, [r0, #668]
 116:Middlewares/ST/STM32_USB_Device_Library/Core/Src/usbd_core.c ****   pdev->id = id;
  61              		.loc 1 116 3 is_stmt 1 view .LVU16
  62              		.loc 1 116 12 is_stmt 0 view .LVU17
  63 001c 0270     		strb	r2, [r0]
 117:Middlewares/ST/STM32_USB_Device_Library/Core/Src/usbd_core.c **** 
 118:Middlewares/ST/STM32_USB_Device_Library/Core/Src/usbd_core.c ****   /* Initialize low level driver */
 119:Middlewares/ST/STM32_USB_Device_Library/Core/Src/usbd_core.c ****   ret = USBD_LL_Init(pdev);
  64              		.loc 1 119 3 is_stmt 1 view .LVU18
  65              		.loc 1 119 9 is_stmt 0 view .LVU19
  66 001e FFF7FEBF 		b	USBD_LL_Init
  67              	.LVL1:
  68              	.L2:
 120:Middlewares/ST/STM32_USB_Device_Library/Core/Src/usbd_core.c **** 
 121:Middlewares/ST/STM32_USB_Device_Library/Core/Src/usbd_core.c ****   return ret;
 122:Middlewares/ST/STM32_USB_Device_Library/Core/Src/usbd_core.c **** }
  69              		.loc 1 122 1 view .LVU20
  70 0022 0320     		movs	r0, #3
  71              	.LVL2:
  72              		.loc 1 122 1 view .LVU21
  73 0024 7047     		bx	lr
  74              		.cfi_endproc
  75              	.LFE239:
  77 0026 00BF     		.section	.text.USBD_DeInit,"ax",%progbits
  78              		.align	1
  79              		.p2align 2,,3
  80              		.global	USBD_DeInit
  81              		.syntax unified
  82              		.thumb
  83              		.thumb_func
  85              	USBD_DeInit:
  86              	.LVL3:
  87              	.LFB240:
 123:Middlewares/ST/STM32_USB_Device_Library/Core/Src/usbd_core.c **** 
 124:Middlewares/ST/STM32_USB_Device_Library/Core/Src/usbd_core.c **** /**
 125:Middlewares/ST/STM32_USB_Device_Library/Core/Src/usbd_core.c ****   * @brief  USBD_DeInit
 126:Middlewares/ST/STM32_USB_Device_Library/Core/Src/usbd_core.c ****   *         Re-Initialize the device library
 127:Middlewares/ST/STM32_USB_Device_Library/Core/Src/usbd_core.c ****   * @param  pdev: device instance
 128:Middlewares/ST/STM32_USB_Device_Library/Core/Src/usbd_core.c ****   * @retval status: status
 129:Middlewares/ST/STM32_USB_Device_Library/Core/Src/usbd_core.c ****   */
 130:Middlewares/ST/STM32_USB_Device_Library/Core/Src/usbd_core.c **** USBD_StatusTypeDef USBD_DeInit(USBD_HandleTypeDef *pdev)
 131:Middlewares/ST/STM32_USB_Device_Library/Core/Src/usbd_core.c **** {
  88              		.loc 1 131 1 is_stmt 1 view -0
  89              		.cfi_startproc
  90              		@ args = 0, pretend = 0, frame = 0
  91              		@ frame_needed = 0, uses_anonymous_args = 0
 132:Middlewares/ST/STM32_USB_Device_Library/Core/Src/usbd_core.c ****   USBD_StatusTypeDef ret;
  92              		.loc 1 132 3 view .LVU23
 133:Middlewares/ST/STM32_USB_Device_Library/Core/Src/usbd_core.c **** 
 134:Middlewares/ST/STM32_USB_Device_Library/Core/Src/usbd_core.c ****   /* Disconnect the USB Device */
 135:Middlewares/ST/STM32_USB_Device_Library/Core/Src/usbd_core.c ****   (void)USBD_LL_Stop(pdev);
  93              		.loc 1 135 3 view .LVU24
 131:Middlewares/ST/STM32_USB_Device_Library/Core/Src/usbd_core.c ****   USBD_StatusTypeDef ret;
  94              		.loc 1 131 1 is_stmt 0 view .LVU25
  95 0000 10B5     		push	{r4, lr}
ARM GAS  /tmp/ccBPDmLJ.s 			page 5


  96              		.cfi_def_cfa_offset 8
  97              		.cfi_offset 4, -8
  98              		.cfi_offset 14, -4
 131:Middlewares/ST/STM32_USB_Device_Library/Core/Src/usbd_core.c ****   USBD_StatusTypeDef ret;
  99              		.loc 1 131 1 view .LVU26
 100 0002 0446     		mov	r4, r0
 101              		.loc 1 135 9 view .LVU27
 102 0004 FFF7FEFF 		bl	USBD_LL_Stop
 103              	.LVL4:
 136:Middlewares/ST/STM32_USB_Device_Library/Core/Src/usbd_core.c **** 
 137:Middlewares/ST/STM32_USB_Device_Library/Core/Src/usbd_core.c ****   /* Set Default State */
 138:Middlewares/ST/STM32_USB_Device_Library/Core/Src/usbd_core.c ****   pdev->dev_state = USBD_STATE_DEFAULT;
 104              		.loc 1 138 3 is_stmt 1 view .LVU28
 139:Middlewares/ST/STM32_USB_Device_Library/Core/Src/usbd_core.c **** 
 140:Middlewares/ST/STM32_USB_Device_Library/Core/Src/usbd_core.c ****   /* Free Class Resources */
 141:Middlewares/ST/STM32_USB_Device_Library/Core/Src/usbd_core.c ****   if (pdev->pClass != NULL)
 105              		.loc 1 141 11 is_stmt 0 view .LVU29
 106 0008 D4F8B832 		ldr	r3, [r4, #696]
 138:Middlewares/ST/STM32_USB_Device_Library/Core/Src/usbd_core.c **** 
 107              		.loc 1 138 19 view .LVU30
 108 000c 0122     		movs	r2, #1
 109 000e 84F89C22 		strb	r2, [r4, #668]
 110              		.loc 1 141 3 is_stmt 1 view .LVU31
 111              		.loc 1 141 6 is_stmt 0 view .LVU32
 112 0012 43B1     		cbz	r3, .L9
 142:Middlewares/ST/STM32_USB_Device_Library/Core/Src/usbd_core.c ****   {
 143:Middlewares/ST/STM32_USB_Device_Library/Core/Src/usbd_core.c ****     pdev->pClass->DeInit(pdev, (uint8_t)pdev->dev_config);
 113              		.loc 1 143 5 is_stmt 1 view .LVU33
 114 0014 5B68     		ldr	r3, [r3, #4]
 115 0016 2179     		ldrb	r1, [r4, #4]	@ zero_extendqisi2
 116 0018 2046     		mov	r0, r4
 117 001a 9847     		blx	r3
 118              	.LVL5:
 144:Middlewares/ST/STM32_USB_Device_Library/Core/Src/usbd_core.c ****     pdev->pClass = NULL;
 119              		.loc 1 144 5 view .LVU34
 120              		.loc 1 144 18 is_stmt 0 view .LVU35
 121 001c 0023     		movs	r3, #0
 122 001e C4F8B832 		str	r3, [r4, #696]
 145:Middlewares/ST/STM32_USB_Device_Library/Core/Src/usbd_core.c ****     pdev->pUserData = NULL;
 123              		.loc 1 145 5 is_stmt 1 view .LVU36
 124              		.loc 1 145 21 is_stmt 0 view .LVU37
 125 0022 C4F8C032 		str	r3, [r4, #704]
 126              	.L9:
 146:Middlewares/ST/STM32_USB_Device_Library/Core/Src/usbd_core.c ****   }
 147:Middlewares/ST/STM32_USB_Device_Library/Core/Src/usbd_core.c **** 
 148:Middlewares/ST/STM32_USB_Device_Library/Core/Src/usbd_core.c ****   /* Free Device descriptors resources */
 149:Middlewares/ST/STM32_USB_Device_Library/Core/Src/usbd_core.c ****   pdev->pDesc = NULL;
 127              		.loc 1 149 3 is_stmt 1 view .LVU38
 128              		.loc 1 149 15 is_stmt 0 view .LVU39
 129 0026 0023     		movs	r3, #0
 130 0028 C4F8B432 		str	r3, [r4, #692]
 150:Middlewares/ST/STM32_USB_Device_Library/Core/Src/usbd_core.c ****   pdev->pConfDesc = NULL;
 131              		.loc 1 150 3 is_stmt 1 view .LVU40
 132              		.loc 1 150 19 is_stmt 0 view .LVU41
 133 002c C4F8CC32 		str	r3, [r4, #716]
 151:Middlewares/ST/STM32_USB_Device_Library/Core/Src/usbd_core.c **** 
 152:Middlewares/ST/STM32_USB_Device_Library/Core/Src/usbd_core.c ****   /* DeInitialize low level driver */
ARM GAS  /tmp/ccBPDmLJ.s 			page 6


 153:Middlewares/ST/STM32_USB_Device_Library/Core/Src/usbd_core.c ****   ret = USBD_LL_DeInit(pdev);
 134              		.loc 1 153 3 is_stmt 1 view .LVU42
 135              		.loc 1 153 9 is_stmt 0 view .LVU43
 136 0030 2046     		mov	r0, r4
 154:Middlewares/ST/STM32_USB_Device_Library/Core/Src/usbd_core.c **** 
 155:Middlewares/ST/STM32_USB_Device_Library/Core/Src/usbd_core.c ****   return ret;
 156:Middlewares/ST/STM32_USB_Device_Library/Core/Src/usbd_core.c **** }
 137              		.loc 1 156 1 view .LVU44
 138 0032 BDE81040 		pop	{r4, lr}
 139              		.cfi_restore 14
 140              		.cfi_restore 4
 141              		.cfi_def_cfa_offset 0
 142              	.LVL6:
 153:Middlewares/ST/STM32_USB_Device_Library/Core/Src/usbd_core.c **** 
 143              		.loc 1 153 9 view .LVU45
 144 0036 FFF7FEBF 		b	USBD_LL_DeInit
 145              	.LVL7:
 153:Middlewares/ST/STM32_USB_Device_Library/Core/Src/usbd_core.c **** 
 146              		.loc 1 153 9 view .LVU46
 147              		.cfi_endproc
 148              	.LFE240:
 150 003a 00BF     		.section	.text.USBD_RegisterClass,"ax",%progbits
 151              		.align	1
 152              		.p2align 2,,3
 153              		.global	USBD_RegisterClass
 154              		.syntax unified
 155              		.thumb
 156              		.thumb_func
 158              	USBD_RegisterClass:
 159              	.LVL8:
 160              	.LFB241:
 157:Middlewares/ST/STM32_USB_Device_Library/Core/Src/usbd_core.c **** 
 158:Middlewares/ST/STM32_USB_Device_Library/Core/Src/usbd_core.c **** /**
 159:Middlewares/ST/STM32_USB_Device_Library/Core/Src/usbd_core.c ****   * @brief  USBD_RegisterClass
 160:Middlewares/ST/STM32_USB_Device_Library/Core/Src/usbd_core.c ****   *         Link class driver to Device Core.
 161:Middlewares/ST/STM32_USB_Device_Library/Core/Src/usbd_core.c ****   * @param  pDevice : Device Handle
 162:Middlewares/ST/STM32_USB_Device_Library/Core/Src/usbd_core.c ****   * @param  pclass: Class handle
 163:Middlewares/ST/STM32_USB_Device_Library/Core/Src/usbd_core.c ****   * @retval USBD Status
 164:Middlewares/ST/STM32_USB_Device_Library/Core/Src/usbd_core.c ****   */
 165:Middlewares/ST/STM32_USB_Device_Library/Core/Src/usbd_core.c **** USBD_StatusTypeDef USBD_RegisterClass(USBD_HandleTypeDef *pdev, USBD_ClassTypeDef *pclass)
 166:Middlewares/ST/STM32_USB_Device_Library/Core/Src/usbd_core.c **** {
 161              		.loc 1 166 1 is_stmt 1 view -0
 162              		.cfi_startproc
 163              		@ args = 0, pretend = 0, frame = 8
 164              		@ frame_needed = 0, uses_anonymous_args = 0
 167:Middlewares/ST/STM32_USB_Device_Library/Core/Src/usbd_core.c ****   uint16_t len = 0U;
 165              		.loc 1 167 3 view .LVU48
 166:Middlewares/ST/STM32_USB_Device_Library/Core/Src/usbd_core.c ****   uint16_t len = 0U;
 166              		.loc 1 166 1 is_stmt 0 view .LVU49
 167 0000 30B5     		push	{r4, r5, lr}
 168              		.cfi_def_cfa_offset 12
 169              		.cfi_offset 4, -12
 170              		.cfi_offset 5, -8
 171              		.cfi_offset 14, -4
 172 0002 83B0     		sub	sp, sp, #12
 173              		.cfi_def_cfa_offset 24
 174              		.loc 1 167 12 view .LVU50
ARM GAS  /tmp/ccBPDmLJ.s 			page 7


 175 0004 0024     		movs	r4, #0
 176 0006 ADF80640 		strh	r4, [sp, #6]	@ movhi
 168:Middlewares/ST/STM32_USB_Device_Library/Core/Src/usbd_core.c **** 
 169:Middlewares/ST/STM32_USB_Device_Library/Core/Src/usbd_core.c ****   if (pclass == NULL)
 177              		.loc 1 169 3 is_stmt 1 view .LVU51
 178              		.loc 1 169 6 is_stmt 0 view .LVU52
 179 000a 79B1     		cbz	r1, .L16
 170:Middlewares/ST/STM32_USB_Device_Library/Core/Src/usbd_core.c ****   {
 171:Middlewares/ST/STM32_USB_Device_Library/Core/Src/usbd_core.c **** #if (USBD_DEBUG_LEVEL > 1U)
 172:Middlewares/ST/STM32_USB_Device_Library/Core/Src/usbd_core.c ****     USBD_ErrLog("Invalid Class handle");
 173:Middlewares/ST/STM32_USB_Device_Library/Core/Src/usbd_core.c **** #endif
 174:Middlewares/ST/STM32_USB_Device_Library/Core/Src/usbd_core.c ****     return USBD_FAIL;
 175:Middlewares/ST/STM32_USB_Device_Library/Core/Src/usbd_core.c ****   }
 176:Middlewares/ST/STM32_USB_Device_Library/Core/Src/usbd_core.c **** 
 177:Middlewares/ST/STM32_USB_Device_Library/Core/Src/usbd_core.c ****   /* link the class to the USB Device handle */
 178:Middlewares/ST/STM32_USB_Device_Library/Core/Src/usbd_core.c ****   pdev->pClass = pclass;
 180              		.loc 1 178 3 is_stmt 1 view .LVU53
 179:Middlewares/ST/STM32_USB_Device_Library/Core/Src/usbd_core.c **** 
 180:Middlewares/ST/STM32_USB_Device_Library/Core/Src/usbd_core.c ****   /* Get Device Configuration Descriptor */
 181:Middlewares/ST/STM32_USB_Device_Library/Core/Src/usbd_core.c **** #ifdef USE_USB_HS
 182:Middlewares/ST/STM32_USB_Device_Library/Core/Src/usbd_core.c ****   if (pdev->pClass->GetHSConfigDescriptor != NULL)
 183:Middlewares/ST/STM32_USB_Device_Library/Core/Src/usbd_core.c ****   {
 184:Middlewares/ST/STM32_USB_Device_Library/Core/Src/usbd_core.c ****     pdev->pConfDesc = (void *)pdev->pClass->GetHSConfigDescriptor(&len);
 185:Middlewares/ST/STM32_USB_Device_Library/Core/Src/usbd_core.c ****   }
 186:Middlewares/ST/STM32_USB_Device_Library/Core/Src/usbd_core.c **** #else /* Default USE_USB_FS */
 187:Middlewares/ST/STM32_USB_Device_Library/Core/Src/usbd_core.c ****   if (pdev->pClass->GetFSConfigDescriptor != NULL)
 181              		.loc 1 187 19 is_stmt 0 view .LVU54
 182 000c CB6A     		ldr	r3, [r1, #44]
 178:Middlewares/ST/STM32_USB_Device_Library/Core/Src/usbd_core.c **** 
 183              		.loc 1 178 16 view .LVU55
 184 000e C0F8B812 		str	r1, [r0, #696]
 185              		.loc 1 187 3 is_stmt 1 view .LVU56
 186 0012 0546     		mov	r5, r0
 187              		.loc 1 187 6 is_stmt 0 view .LVU57
 188 0014 3BB1     		cbz	r3, .L17
 188:Middlewares/ST/STM32_USB_Device_Library/Core/Src/usbd_core.c ****   {
 189:Middlewares/ST/STM32_USB_Device_Library/Core/Src/usbd_core.c ****     pdev->pConfDesc = (void *)pdev->pClass->GetFSConfigDescriptor(&len);
 189              		.loc 1 189 5 is_stmt 1 view .LVU58
 190              		.loc 1 189 31 is_stmt 0 view .LVU59
 191 0016 0DF10600 		add	r0, sp, #6
 192              	.LVL9:
 193              		.loc 1 189 31 view .LVU60
 194 001a 9847     		blx	r3
 195              	.LVL10:
 196              		.loc 1 189 21 view .LVU61
 197 001c C5F8CC02 		str	r0, [r5, #716]
 190:Middlewares/ST/STM32_USB_Device_Library/Core/Src/usbd_core.c ****   }
 191:Middlewares/ST/STM32_USB_Device_Library/Core/Src/usbd_core.c **** #endif /* USE_USB_FS */
 192:Middlewares/ST/STM32_USB_Device_Library/Core/Src/usbd_core.c **** 
 193:Middlewares/ST/STM32_USB_Device_Library/Core/Src/usbd_core.c ****   return USBD_OK;
 198              		.loc 1 193 10 view .LVU62
 199 0020 2046     		mov	r0, r4
 194:Middlewares/ST/STM32_USB_Device_Library/Core/Src/usbd_core.c **** }
 200              		.loc 1 194 1 view .LVU63
 201 0022 03B0     		add	sp, sp, #12
 202              		.cfi_remember_state
 203              		.cfi_def_cfa_offset 12
ARM GAS  /tmp/ccBPDmLJ.s 			page 8


 204              		@ sp needed
 205 0024 30BD     		pop	{r4, r5, pc}
 206              	.LVL11:
 207              	.L17:
 208              		.cfi_restore_state
 193:Middlewares/ST/STM32_USB_Device_Library/Core/Src/usbd_core.c **** }
 209              		.loc 1 193 10 view .LVU64
 210 0026 1846     		mov	r0, r3
 211              	.LVL12:
 212              		.loc 1 194 1 view .LVU65
 213 0028 03B0     		add	sp, sp, #12
 214              		.cfi_remember_state
 215              		.cfi_def_cfa_offset 12
 216              		@ sp needed
 217 002a 30BD     		pop	{r4, r5, pc}
 218              	.LVL13:
 219              	.L16:
 220              		.cfi_restore_state
 174:Middlewares/ST/STM32_USB_Device_Library/Core/Src/usbd_core.c ****   }
 221              		.loc 1 174 12 view .LVU66
 222 002c 0320     		movs	r0, #3
 223              	.LVL14:
 224              		.loc 1 194 1 view .LVU67
 225 002e 03B0     		add	sp, sp, #12
 226              		.cfi_def_cfa_offset 12
 227              		@ sp needed
 228 0030 30BD     		pop	{r4, r5, pc}
 229              		.cfi_endproc
 230              	.LFE241:
 232 0032 00BF     		.section	.text.USBD_Start,"ax",%progbits
 233              		.align	1
 234              		.p2align 2,,3
 235              		.global	USBD_Start
 236              		.syntax unified
 237              		.thumb
 238              		.thumb_func
 240              	USBD_Start:
 241              	.LVL15:
 242              	.LFB242:
 195:Middlewares/ST/STM32_USB_Device_Library/Core/Src/usbd_core.c **** 
 196:Middlewares/ST/STM32_USB_Device_Library/Core/Src/usbd_core.c **** /**
 197:Middlewares/ST/STM32_USB_Device_Library/Core/Src/usbd_core.c ****   * @brief  USBD_Start
 198:Middlewares/ST/STM32_USB_Device_Library/Core/Src/usbd_core.c ****   *         Start the USB Device Core.
 199:Middlewares/ST/STM32_USB_Device_Library/Core/Src/usbd_core.c ****   * @param  pdev: Device Handle
 200:Middlewares/ST/STM32_USB_Device_Library/Core/Src/usbd_core.c ****   * @retval USBD Status
 201:Middlewares/ST/STM32_USB_Device_Library/Core/Src/usbd_core.c ****   */
 202:Middlewares/ST/STM32_USB_Device_Library/Core/Src/usbd_core.c **** USBD_StatusTypeDef USBD_Start(USBD_HandleTypeDef *pdev)
 203:Middlewares/ST/STM32_USB_Device_Library/Core/Src/usbd_core.c **** {
 243              		.loc 1 203 1 is_stmt 1 view -0
 244              		.cfi_startproc
 245              		@ args = 0, pretend = 0, frame = 0
 246              		@ frame_needed = 0, uses_anonymous_args = 0
 247              		@ link register save eliminated.
 204:Middlewares/ST/STM32_USB_Device_Library/Core/Src/usbd_core.c ****   /* Start the low level driver  */
 205:Middlewares/ST/STM32_USB_Device_Library/Core/Src/usbd_core.c ****   return USBD_LL_Start(pdev);
 248              		.loc 1 205 3 view .LVU69
 249              		.loc 1 205 10 is_stmt 0 view .LVU70
ARM GAS  /tmp/ccBPDmLJ.s 			page 9


 250 0000 FFF7FEBF 		b	USBD_LL_Start
 251              	.LVL16:
 252              		.loc 1 205 10 view .LVU71
 253              		.cfi_endproc
 254              	.LFE242:
 256              		.section	.text.USBD_Stop,"ax",%progbits
 257              		.align	1
 258              		.p2align 2,,3
 259              		.global	USBD_Stop
 260              		.syntax unified
 261              		.thumb
 262              		.thumb_func
 264              	USBD_Stop:
 265              	.LVL17:
 266              	.LFB243:
 206:Middlewares/ST/STM32_USB_Device_Library/Core/Src/usbd_core.c **** }
 207:Middlewares/ST/STM32_USB_Device_Library/Core/Src/usbd_core.c **** 
 208:Middlewares/ST/STM32_USB_Device_Library/Core/Src/usbd_core.c **** /**
 209:Middlewares/ST/STM32_USB_Device_Library/Core/Src/usbd_core.c ****   * @brief  USBD_Stop
 210:Middlewares/ST/STM32_USB_Device_Library/Core/Src/usbd_core.c ****   *         Stop the USB Device Core.
 211:Middlewares/ST/STM32_USB_Device_Library/Core/Src/usbd_core.c ****   * @param  pdev: Device Handle
 212:Middlewares/ST/STM32_USB_Device_Library/Core/Src/usbd_core.c ****   * @retval USBD Status
 213:Middlewares/ST/STM32_USB_Device_Library/Core/Src/usbd_core.c ****   */
 214:Middlewares/ST/STM32_USB_Device_Library/Core/Src/usbd_core.c **** USBD_StatusTypeDef USBD_Stop(USBD_HandleTypeDef *pdev)
 215:Middlewares/ST/STM32_USB_Device_Library/Core/Src/usbd_core.c **** {
 267              		.loc 1 215 1 is_stmt 1 view -0
 268              		.cfi_startproc
 269              		@ args = 0, pretend = 0, frame = 0
 270              		@ frame_needed = 0, uses_anonymous_args = 0
 216:Middlewares/ST/STM32_USB_Device_Library/Core/Src/usbd_core.c ****   /* Disconnect USB Device */
 217:Middlewares/ST/STM32_USB_Device_Library/Core/Src/usbd_core.c ****   (void)USBD_LL_Stop(pdev);
 271              		.loc 1 217 3 view .LVU73
 215:Middlewares/ST/STM32_USB_Device_Library/Core/Src/usbd_core.c ****   /* Disconnect USB Device */
 272              		.loc 1 215 1 is_stmt 0 view .LVU74
 273 0000 10B5     		push	{r4, lr}
 274              		.cfi_def_cfa_offset 8
 275              		.cfi_offset 4, -8
 276              		.cfi_offset 14, -4
 215:Middlewares/ST/STM32_USB_Device_Library/Core/Src/usbd_core.c ****   /* Disconnect USB Device */
 277              		.loc 1 215 1 view .LVU75
 278 0002 0446     		mov	r4, r0
 279              		.loc 1 217 9 view .LVU76
 280 0004 FFF7FEFF 		bl	USBD_LL_Stop
 281              	.LVL18:
 218:Middlewares/ST/STM32_USB_Device_Library/Core/Src/usbd_core.c **** 
 219:Middlewares/ST/STM32_USB_Device_Library/Core/Src/usbd_core.c ****   /* Free Class Resources */
 220:Middlewares/ST/STM32_USB_Device_Library/Core/Src/usbd_core.c ****   if (pdev->pClass != NULL)
 282              		.loc 1 220 3 is_stmt 1 view .LVU77
 283              		.loc 1 220 11 is_stmt 0 view .LVU78
 284 0008 D4F8B832 		ldr	r3, [r4, #696]
 285              		.loc 1 220 6 view .LVU79
 286 000c 1BB1     		cbz	r3, .L21
 221:Middlewares/ST/STM32_USB_Device_Library/Core/Src/usbd_core.c ****   {
 222:Middlewares/ST/STM32_USB_Device_Library/Core/Src/usbd_core.c ****     (void)pdev->pClass->DeInit(pdev, (uint8_t)pdev->dev_config);
 287              		.loc 1 222 5 is_stmt 1 view .LVU80
 288              		.loc 1 222 11 is_stmt 0 view .LVU81
 289 000e 5B68     		ldr	r3, [r3, #4]
ARM GAS  /tmp/ccBPDmLJ.s 			page 10


 290 0010 2179     		ldrb	r1, [r4, #4]	@ zero_extendqisi2
 291 0012 2046     		mov	r0, r4
 292 0014 9847     		blx	r3
 293              	.LVL19:
 294              	.L21:
 223:Middlewares/ST/STM32_USB_Device_Library/Core/Src/usbd_core.c ****   }
 224:Middlewares/ST/STM32_USB_Device_Library/Core/Src/usbd_core.c **** 
 225:Middlewares/ST/STM32_USB_Device_Library/Core/Src/usbd_core.c ****   return USBD_OK;
 295              		.loc 1 225 3 is_stmt 1 view .LVU82
 226:Middlewares/ST/STM32_USB_Device_Library/Core/Src/usbd_core.c **** }
 296              		.loc 1 226 1 is_stmt 0 view .LVU83
 297 0016 0020     		movs	r0, #0
 298 0018 10BD     		pop	{r4, pc}
 299              		.loc 1 226 1 view .LVU84
 300              		.cfi_endproc
 301              	.LFE243:
 303 001a 00BF     		.section	.text.USBD_RunTestMode,"ax",%progbits
 304              		.align	1
 305              		.p2align 2,,3
 306              		.global	USBD_RunTestMode
 307              		.syntax unified
 308              		.thumb
 309              		.thumb_func
 311              	USBD_RunTestMode:
 312              	.LVL20:
 313              	.LFB244:
 227:Middlewares/ST/STM32_USB_Device_Library/Core/Src/usbd_core.c **** 
 228:Middlewares/ST/STM32_USB_Device_Library/Core/Src/usbd_core.c **** /**
 229:Middlewares/ST/STM32_USB_Device_Library/Core/Src/usbd_core.c ****   * @brief  USBD_RunTestMode
 230:Middlewares/ST/STM32_USB_Device_Library/Core/Src/usbd_core.c ****   *         Launch test mode process
 231:Middlewares/ST/STM32_USB_Device_Library/Core/Src/usbd_core.c ****   * @param  pdev: device instance
 232:Middlewares/ST/STM32_USB_Device_Library/Core/Src/usbd_core.c ****   * @retval status
 233:Middlewares/ST/STM32_USB_Device_Library/Core/Src/usbd_core.c ****   */
 234:Middlewares/ST/STM32_USB_Device_Library/Core/Src/usbd_core.c **** USBD_StatusTypeDef USBD_RunTestMode(USBD_HandleTypeDef  *pdev)
 235:Middlewares/ST/STM32_USB_Device_Library/Core/Src/usbd_core.c **** {
 314              		.loc 1 235 1 is_stmt 1 view -0
 315              		.cfi_startproc
 316              		@ args = 0, pretend = 0, frame = 0
 317              		@ frame_needed = 0, uses_anonymous_args = 0
 318              		@ link register save eliminated.
 236:Middlewares/ST/STM32_USB_Device_Library/Core/Src/usbd_core.c ****   /* Prevent unused argument compilation warning */
 237:Middlewares/ST/STM32_USB_Device_Library/Core/Src/usbd_core.c ****   UNUSED(pdev);
 319              		.loc 1 237 3 view .LVU86
 238:Middlewares/ST/STM32_USB_Device_Library/Core/Src/usbd_core.c **** 
 239:Middlewares/ST/STM32_USB_Device_Library/Core/Src/usbd_core.c ****   return USBD_OK;
 320              		.loc 1 239 3 view .LVU87
 240:Middlewares/ST/STM32_USB_Device_Library/Core/Src/usbd_core.c **** }
 321              		.loc 1 240 1 is_stmt 0 view .LVU88
 322 0000 0020     		movs	r0, #0
 323              	.LVL21:
 324              		.loc 1 240 1 view .LVU89
 325 0002 7047     		bx	lr
 326              		.cfi_endproc
 327              	.LFE244:
 329              		.section	.text.USBD_SetClassConfig,"ax",%progbits
 330              		.align	1
 331              		.p2align 2,,3
ARM GAS  /tmp/ccBPDmLJ.s 			page 11


 332              		.global	USBD_SetClassConfig
 333              		.syntax unified
 334              		.thumb
 335              		.thumb_func
 337              	USBD_SetClassConfig:
 338              	.LVL22:
 339              	.LFB245:
 241:Middlewares/ST/STM32_USB_Device_Library/Core/Src/usbd_core.c **** 
 242:Middlewares/ST/STM32_USB_Device_Library/Core/Src/usbd_core.c **** /**
 243:Middlewares/ST/STM32_USB_Device_Library/Core/Src/usbd_core.c ****   * @brief  USBD_SetClassConfig
 244:Middlewares/ST/STM32_USB_Device_Library/Core/Src/usbd_core.c ****   *        Configure device and start the interface
 245:Middlewares/ST/STM32_USB_Device_Library/Core/Src/usbd_core.c ****   * @param  pdev: device instance
 246:Middlewares/ST/STM32_USB_Device_Library/Core/Src/usbd_core.c ****   * @param  cfgidx: configuration index
 247:Middlewares/ST/STM32_USB_Device_Library/Core/Src/usbd_core.c ****   * @retval status
 248:Middlewares/ST/STM32_USB_Device_Library/Core/Src/usbd_core.c ****   */
 249:Middlewares/ST/STM32_USB_Device_Library/Core/Src/usbd_core.c **** 
 250:Middlewares/ST/STM32_USB_Device_Library/Core/Src/usbd_core.c **** USBD_StatusTypeDef USBD_SetClassConfig(USBD_HandleTypeDef *pdev, uint8_t cfgidx)
 251:Middlewares/ST/STM32_USB_Device_Library/Core/Src/usbd_core.c **** {
 340              		.loc 1 251 1 is_stmt 1 view -0
 341              		.cfi_startproc
 342              		@ args = 0, pretend = 0, frame = 0
 343              		@ frame_needed = 0, uses_anonymous_args = 0
 344              		@ link register save eliminated.
 252:Middlewares/ST/STM32_USB_Device_Library/Core/Src/usbd_core.c ****   USBD_StatusTypeDef ret = USBD_FAIL;
 345              		.loc 1 252 3 view .LVU91
 253:Middlewares/ST/STM32_USB_Device_Library/Core/Src/usbd_core.c **** 
 254:Middlewares/ST/STM32_USB_Device_Library/Core/Src/usbd_core.c ****   if (pdev->pClass != NULL)
 346              		.loc 1 254 3 view .LVU92
 347              		.loc 1 254 11 is_stmt 0 view .LVU93
 348 0000 D0F8B832 		ldr	r3, [r0, #696]
 349              		.loc 1 254 6 view .LVU94
 350 0004 0BB1     		cbz	r3, .L28
 255:Middlewares/ST/STM32_USB_Device_Library/Core/Src/usbd_core.c ****   {
 256:Middlewares/ST/STM32_USB_Device_Library/Core/Src/usbd_core.c ****     /* Set configuration and Start the Class */
 257:Middlewares/ST/STM32_USB_Device_Library/Core/Src/usbd_core.c ****     ret = (USBD_StatusTypeDef)pdev->pClass->Init(pdev, cfgidx);
 351              		.loc 1 257 5 is_stmt 1 view .LVU95
 352              		.loc 1 257 31 is_stmt 0 view .LVU96
 353 0006 1B68     		ldr	r3, [r3]
 354 0008 1847     		bx	r3
 355              	.LVL23:
 356              	.L28:
 258:Middlewares/ST/STM32_USB_Device_Library/Core/Src/usbd_core.c ****   }
 259:Middlewares/ST/STM32_USB_Device_Library/Core/Src/usbd_core.c **** 
 260:Middlewares/ST/STM32_USB_Device_Library/Core/Src/usbd_core.c ****   return ret;
 357              		.loc 1 260 3 is_stmt 1 view .LVU97
 261:Middlewares/ST/STM32_USB_Device_Library/Core/Src/usbd_core.c **** }
 358              		.loc 1 261 1 is_stmt 0 view .LVU98
 359 000a 0320     		movs	r0, #3
 360              	.LVL24:
 361              		.loc 1 261 1 view .LVU99
 362 000c 7047     		bx	lr
 363              		.cfi_endproc
 364              	.LFE245:
 366 000e 00BF     		.section	.text.USBD_ClrClassConfig,"ax",%progbits
 367              		.align	1
 368              		.p2align 2,,3
 369              		.global	USBD_ClrClassConfig
ARM GAS  /tmp/ccBPDmLJ.s 			page 12


 370              		.syntax unified
 371              		.thumb
 372              		.thumb_func
 374              	USBD_ClrClassConfig:
 375              	.LVL25:
 376              	.LFB246:
 262:Middlewares/ST/STM32_USB_Device_Library/Core/Src/usbd_core.c **** 
 263:Middlewares/ST/STM32_USB_Device_Library/Core/Src/usbd_core.c **** /**
 264:Middlewares/ST/STM32_USB_Device_Library/Core/Src/usbd_core.c ****   * @brief  USBD_ClrClassConfig
 265:Middlewares/ST/STM32_USB_Device_Library/Core/Src/usbd_core.c ****   *         Clear current configuration
 266:Middlewares/ST/STM32_USB_Device_Library/Core/Src/usbd_core.c ****   * @param  pdev: device instance
 267:Middlewares/ST/STM32_USB_Device_Library/Core/Src/usbd_core.c ****   * @param  cfgidx: configuration index
 268:Middlewares/ST/STM32_USB_Device_Library/Core/Src/usbd_core.c ****   * @retval status: USBD_StatusTypeDef
 269:Middlewares/ST/STM32_USB_Device_Library/Core/Src/usbd_core.c ****   */
 270:Middlewares/ST/STM32_USB_Device_Library/Core/Src/usbd_core.c **** USBD_StatusTypeDef USBD_ClrClassConfig(USBD_HandleTypeDef *pdev, uint8_t cfgidx)
 271:Middlewares/ST/STM32_USB_Device_Library/Core/Src/usbd_core.c **** {
 377              		.loc 1 271 1 is_stmt 1 view -0
 378              		.cfi_startproc
 379              		@ args = 0, pretend = 0, frame = 0
 380              		@ frame_needed = 0, uses_anonymous_args = 0
 272:Middlewares/ST/STM32_USB_Device_Library/Core/Src/usbd_core.c ****   /* Clear configuration and De-initialize the Class process */
 273:Middlewares/ST/STM32_USB_Device_Library/Core/Src/usbd_core.c ****   if (pdev->pClass != NULL)
 381              		.loc 1 273 3 view .LVU101
 271:Middlewares/ST/STM32_USB_Device_Library/Core/Src/usbd_core.c ****   /* Clear configuration and De-initialize the Class process */
 382              		.loc 1 271 1 is_stmt 0 view .LVU102
 383 0000 08B5     		push	{r3, lr}
 384              		.cfi_def_cfa_offset 8
 385              		.cfi_offset 3, -8
 386              		.cfi_offset 14, -4
 387              		.loc 1 273 11 view .LVU103
 388 0002 D0F8B832 		ldr	r3, [r0, #696]
 389              		.loc 1 273 6 view .LVU104
 390 0006 0BB1     		cbz	r3, .L30
 274:Middlewares/ST/STM32_USB_Device_Library/Core/Src/usbd_core.c ****   {
 275:Middlewares/ST/STM32_USB_Device_Library/Core/Src/usbd_core.c ****     pdev->pClass->DeInit(pdev, cfgidx);
 391              		.loc 1 275 5 is_stmt 1 view .LVU105
 392 0008 5B68     		ldr	r3, [r3, #4]
 393 000a 9847     		blx	r3
 394              	.LVL26:
 395              	.L30:
 276:Middlewares/ST/STM32_USB_Device_Library/Core/Src/usbd_core.c ****   }
 277:Middlewares/ST/STM32_USB_Device_Library/Core/Src/usbd_core.c **** 
 278:Middlewares/ST/STM32_USB_Device_Library/Core/Src/usbd_core.c ****   return USBD_OK;
 396              		.loc 1 278 3 view .LVU106
 279:Middlewares/ST/STM32_USB_Device_Library/Core/Src/usbd_core.c **** }
 397              		.loc 1 279 1 is_stmt 0 view .LVU107
 398 000c 0020     		movs	r0, #0
 399 000e 08BD     		pop	{r3, pc}
 400              		.cfi_endproc
 401              	.LFE246:
 403              		.section	.text.USBD_LL_SetupStage,"ax",%progbits
 404              		.align	1
 405              		.p2align 2,,3
 406              		.global	USBD_LL_SetupStage
 407              		.syntax unified
 408              		.thumb
 409              		.thumb_func
ARM GAS  /tmp/ccBPDmLJ.s 			page 13


 411              	USBD_LL_SetupStage:
 412              	.LVL27:
 413              	.LFB247:
 280:Middlewares/ST/STM32_USB_Device_Library/Core/Src/usbd_core.c **** 
 281:Middlewares/ST/STM32_USB_Device_Library/Core/Src/usbd_core.c **** 
 282:Middlewares/ST/STM32_USB_Device_Library/Core/Src/usbd_core.c **** /**
 283:Middlewares/ST/STM32_USB_Device_Library/Core/Src/usbd_core.c ****   * @brief  USBD_LL_SetupStage
 284:Middlewares/ST/STM32_USB_Device_Library/Core/Src/usbd_core.c ****   *         Handle the setup stage
 285:Middlewares/ST/STM32_USB_Device_Library/Core/Src/usbd_core.c ****   * @param  pdev: device instance
 286:Middlewares/ST/STM32_USB_Device_Library/Core/Src/usbd_core.c ****   * @retval status
 287:Middlewares/ST/STM32_USB_Device_Library/Core/Src/usbd_core.c ****   */
 288:Middlewares/ST/STM32_USB_Device_Library/Core/Src/usbd_core.c **** USBD_StatusTypeDef USBD_LL_SetupStage(USBD_HandleTypeDef *pdev, uint8_t *psetup)
 289:Middlewares/ST/STM32_USB_Device_Library/Core/Src/usbd_core.c **** {
 414              		.loc 1 289 1 is_stmt 1 view -0
 415              		.cfi_startproc
 416              		@ args = 0, pretend = 0, frame = 0
 417              		@ frame_needed = 0, uses_anonymous_args = 0
 290:Middlewares/ST/STM32_USB_Device_Library/Core/Src/usbd_core.c ****   USBD_StatusTypeDef ret;
 418              		.loc 1 290 3 view .LVU109
 291:Middlewares/ST/STM32_USB_Device_Library/Core/Src/usbd_core.c **** 
 292:Middlewares/ST/STM32_USB_Device_Library/Core/Src/usbd_core.c ****   USBD_ParseSetupRequest(&pdev->request, psetup);
 419              		.loc 1 292 3 view .LVU110
 289:Middlewares/ST/STM32_USB_Device_Library/Core/Src/usbd_core.c ****   USBD_StatusTypeDef ret;
 420              		.loc 1 289 1 is_stmt 0 view .LVU111
 421 0000 38B5     		push	{r3, r4, r5, lr}
 422              		.cfi_def_cfa_offset 16
 423              		.cfi_offset 3, -16
 424              		.cfi_offset 4, -12
 425              		.cfi_offset 5, -8
 426              		.cfi_offset 14, -4
 289:Middlewares/ST/STM32_USB_Device_Library/Core/Src/usbd_core.c ****   USBD_StatusTypeDef ret;
 427              		.loc 1 289 1 view .LVU112
 428 0002 0446     		mov	r4, r0
 429              		.loc 1 292 3 view .LVU113
 430 0004 00F2AA25 		addw	r5, r0, #682
 431 0008 2846     		mov	r0, r5
 432              	.LVL28:
 433              		.loc 1 292 3 view .LVU114
 434 000a FFF7FEFF 		bl	USBD_ParseSetupRequest
 435              	.LVL29:
 293:Middlewares/ST/STM32_USB_Device_Library/Core/Src/usbd_core.c **** 
 294:Middlewares/ST/STM32_USB_Device_Library/Core/Src/usbd_core.c ****   pdev->ep0_state = USBD_EP0_SETUP;
 436              		.loc 1 294 3 is_stmt 1 view .LVU115
 295:Middlewares/ST/STM32_USB_Device_Library/Core/Src/usbd_core.c **** 
 296:Middlewares/ST/STM32_USB_Device_Library/Core/Src/usbd_core.c ****   pdev->ep0_data_len = pdev->request.wLength;
 297:Middlewares/ST/STM32_USB_Device_Library/Core/Src/usbd_core.c **** 
 298:Middlewares/ST/STM32_USB_Device_Library/Core/Src/usbd_core.c ****   switch (pdev->request.bmRequest & 0x1FU)
 437              		.loc 1 298 24 is_stmt 0 view .LVU116
 438 000e 94F8AA12 		ldrb	r1, [r4, #682]	@ zero_extendqisi2
 296:Middlewares/ST/STM32_USB_Device_Library/Core/Src/usbd_core.c **** 
 439              		.loc 1 296 37 view .LVU117
 440 0012 B4F8B022 		ldrh	r2, [r4, #688]
 441 0016 C4F89822 		str	r2, [r4, #664]
 294:Middlewares/ST/STM32_USB_Device_Library/Core/Src/usbd_core.c **** 
 442              		.loc 1 294 19 view .LVU118
 443 001a 0123     		movs	r3, #1
 444 001c C4F89432 		str	r3, [r4, #660]
ARM GAS  /tmp/ccBPDmLJ.s 			page 14


 296:Middlewares/ST/STM32_USB_Device_Library/Core/Src/usbd_core.c **** 
 445              		.loc 1 296 3 is_stmt 1 view .LVU119
 446              		.loc 1 298 3 view .LVU120
 447 0020 01F01F03 		and	r3, r1, #31
 448 0024 012B     		cmp	r3, #1
 449 0026 09D0     		beq	.L36
 450 0028 022B     		cmp	r3, #2
 451 002a 13D0     		beq	.L37
 452 002c 63B1     		cbz	r3, .L40
 299:Middlewares/ST/STM32_USB_Device_Library/Core/Src/usbd_core.c ****   {
 300:Middlewares/ST/STM32_USB_Device_Library/Core/Src/usbd_core.c ****     case USB_REQ_RECIPIENT_DEVICE:
 301:Middlewares/ST/STM32_USB_Device_Library/Core/Src/usbd_core.c ****       ret = USBD_StdDevReq(pdev, &pdev->request);
 302:Middlewares/ST/STM32_USB_Device_Library/Core/Src/usbd_core.c ****       break;
 303:Middlewares/ST/STM32_USB_Device_Library/Core/Src/usbd_core.c **** 
 304:Middlewares/ST/STM32_USB_Device_Library/Core/Src/usbd_core.c ****     case USB_REQ_RECIPIENT_INTERFACE:
 305:Middlewares/ST/STM32_USB_Device_Library/Core/Src/usbd_core.c ****       ret = USBD_StdItfReq(pdev, &pdev->request);
 306:Middlewares/ST/STM32_USB_Device_Library/Core/Src/usbd_core.c ****       break;
 307:Middlewares/ST/STM32_USB_Device_Library/Core/Src/usbd_core.c **** 
 308:Middlewares/ST/STM32_USB_Device_Library/Core/Src/usbd_core.c ****     case USB_REQ_RECIPIENT_ENDPOINT:
 309:Middlewares/ST/STM32_USB_Device_Library/Core/Src/usbd_core.c ****       ret = USBD_StdEPReq(pdev, &pdev->request);
 310:Middlewares/ST/STM32_USB_Device_Library/Core/Src/usbd_core.c ****       break;
 311:Middlewares/ST/STM32_USB_Device_Library/Core/Src/usbd_core.c **** 
 312:Middlewares/ST/STM32_USB_Device_Library/Core/Src/usbd_core.c ****     default:
 313:Middlewares/ST/STM32_USB_Device_Library/Core/Src/usbd_core.c ****       ret = USBD_LL_StallEP(pdev, (pdev->request.bmRequest & 0x80U));
 453              		.loc 1 313 7 view .LVU121
 454              		.loc 1 313 13 is_stmt 0 view .LVU122
 455 002e 2046     		mov	r0, r4
 456 0030 01F08001 		and	r1, r1, #128
 314:Middlewares/ST/STM32_USB_Device_Library/Core/Src/usbd_core.c ****       break;
 315:Middlewares/ST/STM32_USB_Device_Library/Core/Src/usbd_core.c ****   }
 316:Middlewares/ST/STM32_USB_Device_Library/Core/Src/usbd_core.c **** 
 317:Middlewares/ST/STM32_USB_Device_Library/Core/Src/usbd_core.c ****   return ret;
 318:Middlewares/ST/STM32_USB_Device_Library/Core/Src/usbd_core.c **** }
 457              		.loc 1 318 1 view .LVU123
 458 0034 BDE83840 		pop	{r3, r4, r5, lr}
 459              		.cfi_remember_state
 460              		.cfi_restore 14
 461              		.cfi_restore 5
 462              		.cfi_restore 4
 463              		.cfi_restore 3
 464              		.cfi_def_cfa_offset 0
 465              	.LVL30:
 313:Middlewares/ST/STM32_USB_Device_Library/Core/Src/usbd_core.c ****       break;
 466              		.loc 1 313 13 view .LVU124
 467 0038 FFF7FEBF 		b	USBD_LL_StallEP
 468              	.LVL31:
 469              	.L36:
 470              		.cfi_restore_state
 305:Middlewares/ST/STM32_USB_Device_Library/Core/Src/usbd_core.c ****       break;
 471              		.loc 1 305 7 is_stmt 1 view .LVU125
 305:Middlewares/ST/STM32_USB_Device_Library/Core/Src/usbd_core.c ****       break;
 472              		.loc 1 305 13 is_stmt 0 view .LVU126
 473 003c 2946     		mov	r1, r5
 474 003e 2046     		mov	r0, r4
 475              		.loc 1 318 1 view .LVU127
 476 0040 BDE83840 		pop	{r3, r4, r5, lr}
 477              		.cfi_remember_state
ARM GAS  /tmp/ccBPDmLJ.s 			page 15


 478              		.cfi_restore 14
 479              		.cfi_restore 5
 480              		.cfi_restore 4
 481              		.cfi_restore 3
 482              		.cfi_def_cfa_offset 0
 483              	.LVL32:
 305:Middlewares/ST/STM32_USB_Device_Library/Core/Src/usbd_core.c ****       break;
 484              		.loc 1 305 13 view .LVU128
 485 0044 FFF7FEBF 		b	USBD_StdItfReq
 486              	.LVL33:
 487              	.L40:
 488              		.cfi_restore_state
 301:Middlewares/ST/STM32_USB_Device_Library/Core/Src/usbd_core.c ****       break;
 489              		.loc 1 301 7 is_stmt 1 view .LVU129
 301:Middlewares/ST/STM32_USB_Device_Library/Core/Src/usbd_core.c ****       break;
 490              		.loc 1 301 13 is_stmt 0 view .LVU130
 491 0048 2946     		mov	r1, r5
 492 004a 2046     		mov	r0, r4
 493              		.loc 1 318 1 view .LVU131
 494 004c BDE83840 		pop	{r3, r4, r5, lr}
 495              		.cfi_remember_state
 496              		.cfi_restore 14
 497              		.cfi_restore 5
 498              		.cfi_restore 4
 499              		.cfi_restore 3
 500              		.cfi_def_cfa_offset 0
 501              	.LVL34:
 301:Middlewares/ST/STM32_USB_Device_Library/Core/Src/usbd_core.c ****       break;
 502              		.loc 1 301 13 view .LVU132
 503 0050 FFF7FEBF 		b	USBD_StdDevReq
 504              	.LVL35:
 505              	.L37:
 506              		.cfi_restore_state
 309:Middlewares/ST/STM32_USB_Device_Library/Core/Src/usbd_core.c ****       break;
 507              		.loc 1 309 7 is_stmt 1 view .LVU133
 309:Middlewares/ST/STM32_USB_Device_Library/Core/Src/usbd_core.c ****       break;
 508              		.loc 1 309 13 is_stmt 0 view .LVU134
 509 0054 2946     		mov	r1, r5
 510 0056 2046     		mov	r0, r4
 511              		.loc 1 318 1 view .LVU135
 512 0058 BDE83840 		pop	{r3, r4, r5, lr}
 513              		.cfi_restore 14
 514              		.cfi_restore 5
 515              		.cfi_restore 4
 516              		.cfi_restore 3
 517              		.cfi_def_cfa_offset 0
 518              	.LVL36:
 309:Middlewares/ST/STM32_USB_Device_Library/Core/Src/usbd_core.c ****       break;
 519              		.loc 1 309 13 view .LVU136
 520 005c FFF7FEBF 		b	USBD_StdEPReq
 521              	.LVL37:
 309:Middlewares/ST/STM32_USB_Device_Library/Core/Src/usbd_core.c ****       break;
 522              		.loc 1 309 13 view .LVU137
 523              		.cfi_endproc
 524              	.LFE247:
 526              		.section	.text.USBD_LL_DataOutStage,"ax",%progbits
 527              		.align	1
ARM GAS  /tmp/ccBPDmLJ.s 			page 16


 528              		.p2align 2,,3
 529              		.global	USBD_LL_DataOutStage
 530              		.syntax unified
 531              		.thumb
 532              		.thumb_func
 534              	USBD_LL_DataOutStage:
 535              	.LVL38:
 536              	.LFB248:
 319:Middlewares/ST/STM32_USB_Device_Library/Core/Src/usbd_core.c **** 
 320:Middlewares/ST/STM32_USB_Device_Library/Core/Src/usbd_core.c **** /**
 321:Middlewares/ST/STM32_USB_Device_Library/Core/Src/usbd_core.c ****   * @brief  USBD_LL_DataOutStage
 322:Middlewares/ST/STM32_USB_Device_Library/Core/Src/usbd_core.c ****   *         Handle data OUT stage
 323:Middlewares/ST/STM32_USB_Device_Library/Core/Src/usbd_core.c ****   * @param  pdev: device instance
 324:Middlewares/ST/STM32_USB_Device_Library/Core/Src/usbd_core.c ****   * @param  epnum: endpoint index
 325:Middlewares/ST/STM32_USB_Device_Library/Core/Src/usbd_core.c ****   * @param  pdata: data pointer
 326:Middlewares/ST/STM32_USB_Device_Library/Core/Src/usbd_core.c ****   * @retval status
 327:Middlewares/ST/STM32_USB_Device_Library/Core/Src/usbd_core.c ****   */
 328:Middlewares/ST/STM32_USB_Device_Library/Core/Src/usbd_core.c **** USBD_StatusTypeDef USBD_LL_DataOutStage(USBD_HandleTypeDef *pdev,
 329:Middlewares/ST/STM32_USB_Device_Library/Core/Src/usbd_core.c ****                                         uint8_t epnum, uint8_t *pdata)
 330:Middlewares/ST/STM32_USB_Device_Library/Core/Src/usbd_core.c **** {
 537              		.loc 1 330 1 is_stmt 1 view -0
 538              		.cfi_startproc
 539              		@ args = 0, pretend = 0, frame = 0
 540              		@ frame_needed = 0, uses_anonymous_args = 0
 331:Middlewares/ST/STM32_USB_Device_Library/Core/Src/usbd_core.c ****   USBD_EndpointTypeDef *pep;
 541              		.loc 1 331 3 view .LVU139
 332:Middlewares/ST/STM32_USB_Device_Library/Core/Src/usbd_core.c ****   USBD_StatusTypeDef ret;
 542              		.loc 1 332 3 view .LVU140
 333:Middlewares/ST/STM32_USB_Device_Library/Core/Src/usbd_core.c **** 
 334:Middlewares/ST/STM32_USB_Device_Library/Core/Src/usbd_core.c ****   if (epnum == 0U)
 543              		.loc 1 334 3 view .LVU141
 330:Middlewares/ST/STM32_USB_Device_Library/Core/Src/usbd_core.c ****   USBD_EndpointTypeDef *pep;
 544              		.loc 1 330 1 is_stmt 0 view .LVU142
 545 0000 10B5     		push	{r4, lr}
 546              		.cfi_def_cfa_offset 8
 547              		.cfi_offset 4, -8
 548              		.cfi_offset 14, -4
 330:Middlewares/ST/STM32_USB_Device_Library/Core/Src/usbd_core.c ****   USBD_EndpointTypeDef *pep;
 549              		.loc 1 330 1 view .LVU143
 550 0002 0446     		mov	r4, r0
 551              		.loc 1 334 6 view .LVU144
 552 0004 31B9     		cbnz	r1, .L42
 553 0006 1346     		mov	r3, r2
 335:Middlewares/ST/STM32_USB_Device_Library/Core/Src/usbd_core.c ****   {
 336:Middlewares/ST/STM32_USB_Device_Library/Core/Src/usbd_core.c ****     pep = &pdev->ep_out[0];
 554              		.loc 1 336 5 is_stmt 1 view .LVU145
 555              	.LVL39:
 337:Middlewares/ST/STM32_USB_Device_Library/Core/Src/usbd_core.c **** 
 338:Middlewares/ST/STM32_USB_Device_Library/Core/Src/usbd_core.c ****     if (pdev->ep0_state == USBD_EP0_DATA_OUT)
 556              		.loc 1 338 5 view .LVU146
 557              		.loc 1 338 13 is_stmt 0 view .LVU147
 558 0008 D0F89422 		ldr	r2, [r0, #660]
 559              	.LVL40:
 560              		.loc 1 338 8 view .LVU148
 561 000c 032A     		cmp	r2, #3
 562 000e 0DD0     		beq	.L54
 563              	.LVL41:
ARM GAS  /tmp/ccBPDmLJ.s 			page 17


 564              	.L43:
 339:Middlewares/ST/STM32_USB_Device_Library/Core/Src/usbd_core.c ****     {
 340:Middlewares/ST/STM32_USB_Device_Library/Core/Src/usbd_core.c ****       if (pep->rem_length > pep->maxpacket)
 341:Middlewares/ST/STM32_USB_Device_Library/Core/Src/usbd_core.c ****       {
 342:Middlewares/ST/STM32_USB_Device_Library/Core/Src/usbd_core.c ****         pep->rem_length -= pep->maxpacket;
 343:Middlewares/ST/STM32_USB_Device_Library/Core/Src/usbd_core.c **** 
 344:Middlewares/ST/STM32_USB_Device_Library/Core/Src/usbd_core.c ****         (void)USBD_CtlContinueRx(pdev, pdata, MIN(pep->rem_length, pep->maxpacket));
 345:Middlewares/ST/STM32_USB_Device_Library/Core/Src/usbd_core.c ****       }
 346:Middlewares/ST/STM32_USB_Device_Library/Core/Src/usbd_core.c ****       else
 347:Middlewares/ST/STM32_USB_Device_Library/Core/Src/usbd_core.c ****       {
 348:Middlewares/ST/STM32_USB_Device_Library/Core/Src/usbd_core.c ****         if (pdev->dev_state == USBD_STATE_CONFIGURED)
 349:Middlewares/ST/STM32_USB_Device_Library/Core/Src/usbd_core.c ****         {
 350:Middlewares/ST/STM32_USB_Device_Library/Core/Src/usbd_core.c ****           if (pdev->pClass->EP0_RxReady != NULL)
 351:Middlewares/ST/STM32_USB_Device_Library/Core/Src/usbd_core.c ****           {
 352:Middlewares/ST/STM32_USB_Device_Library/Core/Src/usbd_core.c ****             pdev->pClass->EP0_RxReady(pdev);
 353:Middlewares/ST/STM32_USB_Device_Library/Core/Src/usbd_core.c ****           }
 354:Middlewares/ST/STM32_USB_Device_Library/Core/Src/usbd_core.c ****         }
 355:Middlewares/ST/STM32_USB_Device_Library/Core/Src/usbd_core.c **** 
 356:Middlewares/ST/STM32_USB_Device_Library/Core/Src/usbd_core.c ****         (void)USBD_CtlSendStatus(pdev);
 357:Middlewares/ST/STM32_USB_Device_Library/Core/Src/usbd_core.c ****       }
 358:Middlewares/ST/STM32_USB_Device_Library/Core/Src/usbd_core.c ****     }
 359:Middlewares/ST/STM32_USB_Device_Library/Core/Src/usbd_core.c ****     else
 360:Middlewares/ST/STM32_USB_Device_Library/Core/Src/usbd_core.c ****     {
 361:Middlewares/ST/STM32_USB_Device_Library/Core/Src/usbd_core.c **** #if 0
 362:Middlewares/ST/STM32_USB_Device_Library/Core/Src/usbd_core.c ****       if (pdev->ep0_state == USBD_EP0_STATUS_OUT)
 363:Middlewares/ST/STM32_USB_Device_Library/Core/Src/usbd_core.c ****       {
 364:Middlewares/ST/STM32_USB_Device_Library/Core/Src/usbd_core.c ****         /*
 365:Middlewares/ST/STM32_USB_Device_Library/Core/Src/usbd_core.c ****           * STATUS PHASE completed, update ep0_state to idle
 366:Middlewares/ST/STM32_USB_Device_Library/Core/Src/usbd_core.c ****           */
 367:Middlewares/ST/STM32_USB_Device_Library/Core/Src/usbd_core.c ****         pdev->ep0_state = USBD_EP0_IDLE;
 368:Middlewares/ST/STM32_USB_Device_Library/Core/Src/usbd_core.c ****         (void)USBD_LL_StallEP(pdev, 0U);
 369:Middlewares/ST/STM32_USB_Device_Library/Core/Src/usbd_core.c ****       }
 370:Middlewares/ST/STM32_USB_Device_Library/Core/Src/usbd_core.c **** #endif
 371:Middlewares/ST/STM32_USB_Device_Library/Core/Src/usbd_core.c ****     }
 372:Middlewares/ST/STM32_USB_Device_Library/Core/Src/usbd_core.c ****   }
 373:Middlewares/ST/STM32_USB_Device_Library/Core/Src/usbd_core.c ****   else
 374:Middlewares/ST/STM32_USB_Device_Library/Core/Src/usbd_core.c ****   {
 375:Middlewares/ST/STM32_USB_Device_Library/Core/Src/usbd_core.c ****     if (pdev->dev_state == USBD_STATE_CONFIGURED)
 376:Middlewares/ST/STM32_USB_Device_Library/Core/Src/usbd_core.c ****     {
 377:Middlewares/ST/STM32_USB_Device_Library/Core/Src/usbd_core.c ****       if (pdev->pClass->DataOut != NULL)
 378:Middlewares/ST/STM32_USB_Device_Library/Core/Src/usbd_core.c ****       {
 379:Middlewares/ST/STM32_USB_Device_Library/Core/Src/usbd_core.c ****         ret = (USBD_StatusTypeDef)pdev->pClass->DataOut(pdev, epnum);
 380:Middlewares/ST/STM32_USB_Device_Library/Core/Src/usbd_core.c **** 
 381:Middlewares/ST/STM32_USB_Device_Library/Core/Src/usbd_core.c ****         if (ret != USBD_OK)
 382:Middlewares/ST/STM32_USB_Device_Library/Core/Src/usbd_core.c ****         {
 383:Middlewares/ST/STM32_USB_Device_Library/Core/Src/usbd_core.c ****           return ret;
 384:Middlewares/ST/STM32_USB_Device_Library/Core/Src/usbd_core.c ****         }
 385:Middlewares/ST/STM32_USB_Device_Library/Core/Src/usbd_core.c ****       }
 386:Middlewares/ST/STM32_USB_Device_Library/Core/Src/usbd_core.c ****     }
 387:Middlewares/ST/STM32_USB_Device_Library/Core/Src/usbd_core.c ****   }
 388:Middlewares/ST/STM32_USB_Device_Library/Core/Src/usbd_core.c **** 
 389:Middlewares/ST/STM32_USB_Device_Library/Core/Src/usbd_core.c ****   return USBD_OK;
 390:Middlewares/ST/STM32_USB_Device_Library/Core/Src/usbd_core.c **** }
 565              		.loc 1 390 1 view .LVU149
 566 0010 0020     		movs	r0, #0
 567 0012 10BD     		pop	{r4, pc}
 568              	.LVL42:
ARM GAS  /tmp/ccBPDmLJ.s 			page 18


 569              	.L42:
 375:Middlewares/ST/STM32_USB_Device_Library/Core/Src/usbd_core.c ****     {
 570              		.loc 1 375 5 is_stmt 1 view .LVU150
 375:Middlewares/ST/STM32_USB_Device_Library/Core/Src/usbd_core.c ****     {
 571              		.loc 1 375 13 is_stmt 0 view .LVU151
 572 0014 90F89C32 		ldrb	r3, [r0, #668]	@ zero_extendqisi2
 375:Middlewares/ST/STM32_USB_Device_Library/Core/Src/usbd_core.c ****     {
 573              		.loc 1 375 8 view .LVU152
 574 0018 032B     		cmp	r3, #3
 575 001a F9D1     		bne	.L43
 377:Middlewares/ST/STM32_USB_Device_Library/Core/Src/usbd_core.c ****       {
 576              		.loc 1 377 7 is_stmt 1 view .LVU153
 377:Middlewares/ST/STM32_USB_Device_Library/Core/Src/usbd_core.c ****       {
 577              		.loc 1 377 23 is_stmt 0 view .LVU154
 578 001c D0F8B832 		ldr	r3, [r0, #696]
 579 0020 9B69     		ldr	r3, [r3, #24]
 377:Middlewares/ST/STM32_USB_Device_Library/Core/Src/usbd_core.c ****       {
 580              		.loc 1 377 10 view .LVU155
 581 0022 002B     		cmp	r3, #0
 582 0024 F4D0     		beq	.L43
 379:Middlewares/ST/STM32_USB_Device_Library/Core/Src/usbd_core.c **** 
 583              		.loc 1 379 9 is_stmt 1 view .LVU156
 584              		.loc 1 390 1 is_stmt 0 view .LVU157
 585 0026 BDE81040 		pop	{r4, lr}
 586              		.cfi_remember_state
 587              		.cfi_restore 14
 588              		.cfi_restore 4
 589              		.cfi_def_cfa_offset 0
 379:Middlewares/ST/STM32_USB_Device_Library/Core/Src/usbd_core.c **** 
 590              		.loc 1 379 35 view .LVU158
 591 002a 1847     		bx	r3
 592              	.LVL43:
 593              	.L54:
 594              		.cfi_restore_state
 340:Middlewares/ST/STM32_USB_Device_Library/Core/Src/usbd_core.c ****       {
 595              		.loc 1 340 7 is_stmt 1 view .LVU159
 340:Middlewares/ST/STM32_USB_Device_Library/Core/Src/usbd_core.c ****       {
 596              		.loc 1 340 32 is_stmt 0 view .LVU160
 597 002c D0E95712 		ldrd	r1, r2, [r0, #348]
 598              	.LVL44:
 340:Middlewares/ST/STM32_USB_Device_Library/Core/Src/usbd_core.c ****       {
 599              		.loc 1 340 10 view .LVU161
 600 0030 9142     		cmp	r1, r2
 601 0032 08D8     		bhi	.L55
 348:Middlewares/ST/STM32_USB_Device_Library/Core/Src/usbd_core.c ****         {
 602              		.loc 1 348 9 is_stmt 1 view .LVU162
 348:Middlewares/ST/STM32_USB_Device_Library/Core/Src/usbd_core.c ****         {
 603              		.loc 1 348 17 is_stmt 0 view .LVU163
 604 0034 90F89C32 		ldrb	r3, [r0, #668]	@ zero_extendqisi2
 605              	.LVL45:
 348:Middlewares/ST/STM32_USB_Device_Library/Core/Src/usbd_core.c ****         {
 606              		.loc 1 348 12 view .LVU164
 607 0038 032B     		cmp	r3, #3
 608 003a 0ED0     		beq	.L56
 609              	.LVL46:
 610              	.L45:
 356:Middlewares/ST/STM32_USB_Device_Library/Core/Src/usbd_core.c ****       }
ARM GAS  /tmp/ccBPDmLJ.s 			page 19


 611              		.loc 1 356 9 is_stmt 1 view .LVU165
 356:Middlewares/ST/STM32_USB_Device_Library/Core/Src/usbd_core.c ****       }
 612              		.loc 1 356 15 is_stmt 0 view .LVU166
 613 003c 2046     		mov	r0, r4
 614 003e FFF7FEFF 		bl	USBD_CtlSendStatus
 615              	.LVL47:
 616              		.loc 1 390 1 view .LVU167
 617 0042 0020     		movs	r0, #0
 618 0044 10BD     		pop	{r4, pc}
 619              	.LVL48:
 620              	.L55:
 342:Middlewares/ST/STM32_USB_Device_Library/Core/Src/usbd_core.c **** 
 621              		.loc 1 342 9 is_stmt 1 view .LVU168
 342:Middlewares/ST/STM32_USB_Device_Library/Core/Src/usbd_core.c **** 
 622              		.loc 1 342 25 is_stmt 0 view .LVU169
 623 0046 891A     		subs	r1, r1, r2
 344:Middlewares/ST/STM32_USB_Device_Library/Core/Src/usbd_core.c ****       }
 624              		.loc 1 344 15 view .LVU170
 625 0048 8A42     		cmp	r2, r1
 626 004a 28BF     		it	cs
 627 004c 0A46     		movcs	r2, r1
 342:Middlewares/ST/STM32_USB_Device_Library/Core/Src/usbd_core.c **** 
 628              		.loc 1 342 25 view .LVU171
 629 004e C0F85C11 		str	r1, [r0, #348]
 344:Middlewares/ST/STM32_USB_Device_Library/Core/Src/usbd_core.c ****       }
 630              		.loc 1 344 9 is_stmt 1 view .LVU172
 344:Middlewares/ST/STM32_USB_Device_Library/Core/Src/usbd_core.c ****       }
 631              		.loc 1 344 15 is_stmt 0 view .LVU173
 632 0052 1946     		mov	r1, r3
 633 0054 FFF7FEFF 		bl	USBD_CtlContinueRx
 634              	.LVL49:
 344:Middlewares/ST/STM32_USB_Device_Library/Core/Src/usbd_core.c ****       }
 635              		.loc 1 344 15 view .LVU174
 636 0058 DAE7     		b	.L43
 637              	.LVL50:
 638              	.L56:
 350:Middlewares/ST/STM32_USB_Device_Library/Core/Src/usbd_core.c ****           {
 639              		.loc 1 350 11 is_stmt 1 view .LVU175
 350:Middlewares/ST/STM32_USB_Device_Library/Core/Src/usbd_core.c ****           {
 640              		.loc 1 350 27 is_stmt 0 view .LVU176
 641 005a D0F8B832 		ldr	r3, [r0, #696]
 642 005e 1B69     		ldr	r3, [r3, #16]
 350:Middlewares/ST/STM32_USB_Device_Library/Core/Src/usbd_core.c ****           {
 643              		.loc 1 350 14 view .LVU177
 644 0060 002B     		cmp	r3, #0
 645 0062 EBD0     		beq	.L45
 352:Middlewares/ST/STM32_USB_Device_Library/Core/Src/usbd_core.c ****           }
 646              		.loc 1 352 13 is_stmt 1 view .LVU178
 647 0064 9847     		blx	r3
 648              	.LVL51:
 352:Middlewares/ST/STM32_USB_Device_Library/Core/Src/usbd_core.c ****           }
 649              		.loc 1 352 13 is_stmt 0 view .LVU179
 650 0066 E9E7     		b	.L45
 651              		.cfi_endproc
 652              	.LFE248:
 654              		.section	.text.USBD_LL_DataInStage,"ax",%progbits
 655              		.align	1
ARM GAS  /tmp/ccBPDmLJ.s 			page 20


 656              		.p2align 2,,3
 657              		.global	USBD_LL_DataInStage
 658              		.syntax unified
 659              		.thumb
 660              		.thumb_func
 662              	USBD_LL_DataInStage:
 663              	.LVL52:
 664              	.LFB249:
 391:Middlewares/ST/STM32_USB_Device_Library/Core/Src/usbd_core.c **** 
 392:Middlewares/ST/STM32_USB_Device_Library/Core/Src/usbd_core.c **** /**
 393:Middlewares/ST/STM32_USB_Device_Library/Core/Src/usbd_core.c ****   * @brief  USBD_LL_DataInStage
 394:Middlewares/ST/STM32_USB_Device_Library/Core/Src/usbd_core.c ****   *         Handle data in stage
 395:Middlewares/ST/STM32_USB_Device_Library/Core/Src/usbd_core.c ****   * @param  pdev: device instance
 396:Middlewares/ST/STM32_USB_Device_Library/Core/Src/usbd_core.c ****   * @param  epnum: endpoint index
 397:Middlewares/ST/STM32_USB_Device_Library/Core/Src/usbd_core.c ****   * @retval status
 398:Middlewares/ST/STM32_USB_Device_Library/Core/Src/usbd_core.c ****   */
 399:Middlewares/ST/STM32_USB_Device_Library/Core/Src/usbd_core.c **** USBD_StatusTypeDef USBD_LL_DataInStage(USBD_HandleTypeDef *pdev,
 400:Middlewares/ST/STM32_USB_Device_Library/Core/Src/usbd_core.c ****                                        uint8_t epnum, uint8_t *pdata)
 401:Middlewares/ST/STM32_USB_Device_Library/Core/Src/usbd_core.c **** {
 665              		.loc 1 401 1 is_stmt 1 view -0
 666              		.cfi_startproc
 667              		@ args = 0, pretend = 0, frame = 0
 668              		@ frame_needed = 0, uses_anonymous_args = 0
 402:Middlewares/ST/STM32_USB_Device_Library/Core/Src/usbd_core.c ****   USBD_EndpointTypeDef *pep;
 669              		.loc 1 402 3 view .LVU181
 403:Middlewares/ST/STM32_USB_Device_Library/Core/Src/usbd_core.c ****   USBD_StatusTypeDef ret;
 670              		.loc 1 403 3 view .LVU182
 404:Middlewares/ST/STM32_USB_Device_Library/Core/Src/usbd_core.c **** 
 405:Middlewares/ST/STM32_USB_Device_Library/Core/Src/usbd_core.c ****   if (epnum == 0U)
 671              		.loc 1 405 3 view .LVU183
 401:Middlewares/ST/STM32_USB_Device_Library/Core/Src/usbd_core.c ****   USBD_EndpointTypeDef *pep;
 672              		.loc 1 401 1 is_stmt 0 view .LVU184
 673 0000 70B5     		push	{r4, r5, r6, lr}
 674              		.cfi_def_cfa_offset 16
 675              		.cfi_offset 4, -16
 676              		.cfi_offset 5, -12
 677              		.cfi_offset 6, -8
 678              		.cfi_offset 14, -4
 401:Middlewares/ST/STM32_USB_Device_Library/Core/Src/usbd_core.c ****   USBD_EndpointTypeDef *pep;
 679              		.loc 1 401 1 view .LVU185
 680 0002 0446     		mov	r4, r0
 681              		.loc 1 405 6 view .LVU186
 682 0004 51B9     		cbnz	r1, .L58
 683 0006 1346     		mov	r3, r2
 406:Middlewares/ST/STM32_USB_Device_Library/Core/Src/usbd_core.c ****   {
 407:Middlewares/ST/STM32_USB_Device_Library/Core/Src/usbd_core.c ****     pep = &pdev->ep_in[0];
 684              		.loc 1 407 5 is_stmt 1 view .LVU187
 685              	.LVL53:
 408:Middlewares/ST/STM32_USB_Device_Library/Core/Src/usbd_core.c **** 
 409:Middlewares/ST/STM32_USB_Device_Library/Core/Src/usbd_core.c ****     if (pdev->ep0_state == USBD_EP0_DATA_IN)
 686              		.loc 1 409 5 view .LVU188
 687              		.loc 1 409 13 is_stmt 0 view .LVU189
 688 0008 D0F89422 		ldr	r2, [r0, #660]
 689              	.LVL54:
 690              		.loc 1 409 8 view .LVU190
 691 000c 022A     		cmp	r2, #2
 692 000e 11D0     		beq	.L74
ARM GAS  /tmp/ccBPDmLJ.s 			page 21


 693              	.LVL55:
 694              	.L59:
 410:Middlewares/ST/STM32_USB_Device_Library/Core/Src/usbd_core.c ****     {
 411:Middlewares/ST/STM32_USB_Device_Library/Core/Src/usbd_core.c ****       if (pep->rem_length > pep->maxpacket)
 412:Middlewares/ST/STM32_USB_Device_Library/Core/Src/usbd_core.c ****       {
 413:Middlewares/ST/STM32_USB_Device_Library/Core/Src/usbd_core.c ****         pep->rem_length -= pep->maxpacket;
 414:Middlewares/ST/STM32_USB_Device_Library/Core/Src/usbd_core.c **** 
 415:Middlewares/ST/STM32_USB_Device_Library/Core/Src/usbd_core.c ****         (void)USBD_CtlContinueSendData(pdev, pdata, pep->rem_length);
 416:Middlewares/ST/STM32_USB_Device_Library/Core/Src/usbd_core.c **** 
 417:Middlewares/ST/STM32_USB_Device_Library/Core/Src/usbd_core.c ****         /* Prepare endpoint for premature end of transfer */
 418:Middlewares/ST/STM32_USB_Device_Library/Core/Src/usbd_core.c ****         (void)USBD_LL_PrepareReceive(pdev, 0U, NULL, 0U);
 419:Middlewares/ST/STM32_USB_Device_Library/Core/Src/usbd_core.c ****       }
 420:Middlewares/ST/STM32_USB_Device_Library/Core/Src/usbd_core.c ****       else
 421:Middlewares/ST/STM32_USB_Device_Library/Core/Src/usbd_core.c ****       {
 422:Middlewares/ST/STM32_USB_Device_Library/Core/Src/usbd_core.c ****         /* last packet is MPS multiple, so send ZLP packet */
 423:Middlewares/ST/STM32_USB_Device_Library/Core/Src/usbd_core.c ****         if ((pep->maxpacket == pep->rem_length) &&
 424:Middlewares/ST/STM32_USB_Device_Library/Core/Src/usbd_core.c ****             (pep->total_length >= pep->maxpacket) &&
 425:Middlewares/ST/STM32_USB_Device_Library/Core/Src/usbd_core.c ****             (pep->total_length < pdev->ep0_data_len))
 426:Middlewares/ST/STM32_USB_Device_Library/Core/Src/usbd_core.c ****         {
 427:Middlewares/ST/STM32_USB_Device_Library/Core/Src/usbd_core.c ****           (void)USBD_CtlContinueSendData(pdev, NULL, 0U);
 428:Middlewares/ST/STM32_USB_Device_Library/Core/Src/usbd_core.c ****           pdev->ep0_data_len = 0U;
 429:Middlewares/ST/STM32_USB_Device_Library/Core/Src/usbd_core.c **** 
 430:Middlewares/ST/STM32_USB_Device_Library/Core/Src/usbd_core.c ****           /* Prepare endpoint for premature end of transfer */
 431:Middlewares/ST/STM32_USB_Device_Library/Core/Src/usbd_core.c ****           (void)USBD_LL_PrepareReceive(pdev, 0U, NULL, 0U);
 432:Middlewares/ST/STM32_USB_Device_Library/Core/Src/usbd_core.c ****         }
 433:Middlewares/ST/STM32_USB_Device_Library/Core/Src/usbd_core.c ****         else
 434:Middlewares/ST/STM32_USB_Device_Library/Core/Src/usbd_core.c ****         {
 435:Middlewares/ST/STM32_USB_Device_Library/Core/Src/usbd_core.c ****           if (pdev->dev_state == USBD_STATE_CONFIGURED)
 436:Middlewares/ST/STM32_USB_Device_Library/Core/Src/usbd_core.c ****           {
 437:Middlewares/ST/STM32_USB_Device_Library/Core/Src/usbd_core.c ****             if (pdev->pClass->EP0_TxSent != NULL)
 438:Middlewares/ST/STM32_USB_Device_Library/Core/Src/usbd_core.c ****             {
 439:Middlewares/ST/STM32_USB_Device_Library/Core/Src/usbd_core.c ****               pdev->pClass->EP0_TxSent(pdev);
 440:Middlewares/ST/STM32_USB_Device_Library/Core/Src/usbd_core.c ****             }
 441:Middlewares/ST/STM32_USB_Device_Library/Core/Src/usbd_core.c ****           }
 442:Middlewares/ST/STM32_USB_Device_Library/Core/Src/usbd_core.c ****           (void)USBD_LL_StallEP(pdev, 0x80U);
 443:Middlewares/ST/STM32_USB_Device_Library/Core/Src/usbd_core.c ****           (void)USBD_CtlReceiveStatus(pdev);
 444:Middlewares/ST/STM32_USB_Device_Library/Core/Src/usbd_core.c ****         }
 445:Middlewares/ST/STM32_USB_Device_Library/Core/Src/usbd_core.c ****       }
 446:Middlewares/ST/STM32_USB_Device_Library/Core/Src/usbd_core.c ****     }
 447:Middlewares/ST/STM32_USB_Device_Library/Core/Src/usbd_core.c ****     else
 448:Middlewares/ST/STM32_USB_Device_Library/Core/Src/usbd_core.c ****     {
 449:Middlewares/ST/STM32_USB_Device_Library/Core/Src/usbd_core.c **** #if 0
 450:Middlewares/ST/STM32_USB_Device_Library/Core/Src/usbd_core.c ****       if ((pdev->ep0_state == USBD_EP0_STATUS_IN) ||
 451:Middlewares/ST/STM32_USB_Device_Library/Core/Src/usbd_core.c ****           (pdev->ep0_state == USBD_EP0_IDLE))
 452:Middlewares/ST/STM32_USB_Device_Library/Core/Src/usbd_core.c ****       {
 453:Middlewares/ST/STM32_USB_Device_Library/Core/Src/usbd_core.c ****         (void)USBD_LL_StallEP(pdev, 0x80U);
 454:Middlewares/ST/STM32_USB_Device_Library/Core/Src/usbd_core.c ****       }
 455:Middlewares/ST/STM32_USB_Device_Library/Core/Src/usbd_core.c **** #endif
 456:Middlewares/ST/STM32_USB_Device_Library/Core/Src/usbd_core.c ****     }
 695              		.loc 1 456 5 is_stmt 1 view .LVU191
 457:Middlewares/ST/STM32_USB_Device_Library/Core/Src/usbd_core.c **** 
 458:Middlewares/ST/STM32_USB_Device_Library/Core/Src/usbd_core.c ****     if (pdev->dev_test_mode == 1U)
 696              		.loc 1 458 5 view .LVU192
 697              		.loc 1 458 8 is_stmt 0 view .LVU193
 698 0010 94F8A032 		ldrb	r3, [r4, #672]	@ zero_extendqisi2
 699 0014 012B     		cmp	r3, #1
 700 0016 22D0     		beq	.L75
ARM GAS  /tmp/ccBPDmLJ.s 			page 22


 701              	.LVL56:
 702              	.L64:
 459:Middlewares/ST/STM32_USB_Device_Library/Core/Src/usbd_core.c ****     {
 460:Middlewares/ST/STM32_USB_Device_Library/Core/Src/usbd_core.c ****       (void)USBD_RunTestMode(pdev);
 461:Middlewares/ST/STM32_USB_Device_Library/Core/Src/usbd_core.c ****       pdev->dev_test_mode = 0U;
 462:Middlewares/ST/STM32_USB_Device_Library/Core/Src/usbd_core.c ****     }
 463:Middlewares/ST/STM32_USB_Device_Library/Core/Src/usbd_core.c ****   }
 464:Middlewares/ST/STM32_USB_Device_Library/Core/Src/usbd_core.c ****   else
 465:Middlewares/ST/STM32_USB_Device_Library/Core/Src/usbd_core.c ****   {
 466:Middlewares/ST/STM32_USB_Device_Library/Core/Src/usbd_core.c ****     if (pdev->dev_state == USBD_STATE_CONFIGURED)
 467:Middlewares/ST/STM32_USB_Device_Library/Core/Src/usbd_core.c ****     {
 468:Middlewares/ST/STM32_USB_Device_Library/Core/Src/usbd_core.c ****       if (pdev->pClass->DataIn != NULL)
 469:Middlewares/ST/STM32_USB_Device_Library/Core/Src/usbd_core.c ****       {
 470:Middlewares/ST/STM32_USB_Device_Library/Core/Src/usbd_core.c ****         ret = (USBD_StatusTypeDef)pdev->pClass->DataIn(pdev, epnum);
 471:Middlewares/ST/STM32_USB_Device_Library/Core/Src/usbd_core.c **** 
 472:Middlewares/ST/STM32_USB_Device_Library/Core/Src/usbd_core.c ****         if (ret != USBD_OK)
 473:Middlewares/ST/STM32_USB_Device_Library/Core/Src/usbd_core.c ****         {
 474:Middlewares/ST/STM32_USB_Device_Library/Core/Src/usbd_core.c ****           return ret;
 475:Middlewares/ST/STM32_USB_Device_Library/Core/Src/usbd_core.c ****         }
 476:Middlewares/ST/STM32_USB_Device_Library/Core/Src/usbd_core.c ****       }
 477:Middlewares/ST/STM32_USB_Device_Library/Core/Src/usbd_core.c ****     }
 478:Middlewares/ST/STM32_USB_Device_Library/Core/Src/usbd_core.c ****   }
 479:Middlewares/ST/STM32_USB_Device_Library/Core/Src/usbd_core.c **** 
 480:Middlewares/ST/STM32_USB_Device_Library/Core/Src/usbd_core.c ****   return USBD_OK;
 481:Middlewares/ST/STM32_USB_Device_Library/Core/Src/usbd_core.c **** }
 703              		.loc 1 481 1 view .LVU194
 704 0018 0020     		movs	r0, #0
 705 001a 70BD     		pop	{r4, r5, r6, pc}
 706              	.LVL57:
 707              	.L58:
 466:Middlewares/ST/STM32_USB_Device_Library/Core/Src/usbd_core.c ****     {
 708              		.loc 1 466 5 is_stmt 1 view .LVU195
 466:Middlewares/ST/STM32_USB_Device_Library/Core/Src/usbd_core.c ****     {
 709              		.loc 1 466 13 is_stmt 0 view .LVU196
 710 001c 90F89C32 		ldrb	r3, [r0, #668]	@ zero_extendqisi2
 466:Middlewares/ST/STM32_USB_Device_Library/Core/Src/usbd_core.c ****     {
 711              		.loc 1 466 8 view .LVU197
 712 0020 032B     		cmp	r3, #3
 713 0022 F9D1     		bne	.L64
 468:Middlewares/ST/STM32_USB_Device_Library/Core/Src/usbd_core.c ****       {
 714              		.loc 1 468 7 is_stmt 1 view .LVU198
 468:Middlewares/ST/STM32_USB_Device_Library/Core/Src/usbd_core.c ****       {
 715              		.loc 1 468 23 is_stmt 0 view .LVU199
 716 0024 D0F8B832 		ldr	r3, [r0, #696]
 717 0028 5B69     		ldr	r3, [r3, #20]
 468:Middlewares/ST/STM32_USB_Device_Library/Core/Src/usbd_core.c ****       {
 718              		.loc 1 468 10 view .LVU200
 719 002a 002B     		cmp	r3, #0
 720 002c F4D0     		beq	.L64
 470:Middlewares/ST/STM32_USB_Device_Library/Core/Src/usbd_core.c **** 
 721              		.loc 1 470 9 is_stmt 1 view .LVU201
 722              		.loc 1 481 1 is_stmt 0 view .LVU202
 723 002e BDE87040 		pop	{r4, r5, r6, lr}
 724              		.cfi_remember_state
 725              		.cfi_restore 14
 726              		.cfi_restore 6
 727              		.cfi_restore 5
ARM GAS  /tmp/ccBPDmLJ.s 			page 23


 728              		.cfi_restore 4
 729              		.cfi_def_cfa_offset 0
 470:Middlewares/ST/STM32_USB_Device_Library/Core/Src/usbd_core.c **** 
 730              		.loc 1 470 35 view .LVU203
 731 0032 1847     		bx	r3
 732              	.LVL58:
 733              	.L74:
 734              		.cfi_restore_state
 411:Middlewares/ST/STM32_USB_Device_Library/Core/Src/usbd_core.c ****       {
 735              		.loc 1 411 32 view .LVU204
 736 0034 D0E90726 		ldrd	r2, r6, [r0, #28]
 411:Middlewares/ST/STM32_USB_Device_Library/Core/Src/usbd_core.c ****       {
 737              		.loc 1 411 10 view .LVU205
 738 0038 B242     		cmp	r2, r6
 739 003a 0D46     		mov	r5, r1
 411:Middlewares/ST/STM32_USB_Device_Library/Core/Src/usbd_core.c ****       {
 740              		.loc 1 411 7 is_stmt 1 view .LVU206
 411:Middlewares/ST/STM32_USB_Device_Library/Core/Src/usbd_core.c ****       {
 741              		.loc 1 411 10 is_stmt 0 view .LVU207
 742 003c 14D8     		bhi	.L76
 423:Middlewares/ST/STM32_USB_Device_Library/Core/Src/usbd_core.c ****             (pep->total_length >= pep->maxpacket) &&
 743              		.loc 1 423 9 is_stmt 1 view .LVU208
 423:Middlewares/ST/STM32_USB_Device_Library/Core/Src/usbd_core.c ****             (pep->total_length >= pep->maxpacket) &&
 744              		.loc 1 423 12 is_stmt 0 view .LVU209
 745 003e 1FD0     		beq	.L77
 746              	.LVL59:
 747              	.L61:
 435:Middlewares/ST/STM32_USB_Device_Library/Core/Src/usbd_core.c ****           {
 748              		.loc 1 435 11 is_stmt 1 view .LVU210
 435:Middlewares/ST/STM32_USB_Device_Library/Core/Src/usbd_core.c ****           {
 749              		.loc 1 435 19 is_stmt 0 view .LVU211
 750 0040 94F89C32 		ldrb	r3, [r4, #668]	@ zero_extendqisi2
 435:Middlewares/ST/STM32_USB_Device_Library/Core/Src/usbd_core.c ****           {
 751              		.loc 1 435 14 view .LVU212
 752 0044 032B     		cmp	r3, #3
 753 0046 28D0     		beq	.L78
 754              	.LVL60:
 755              	.L62:
 442:Middlewares/ST/STM32_USB_Device_Library/Core/Src/usbd_core.c ****           (void)USBD_CtlReceiveStatus(pdev);
 756              		.loc 1 442 11 is_stmt 1 view .LVU213
 442:Middlewares/ST/STM32_USB_Device_Library/Core/Src/usbd_core.c ****           (void)USBD_CtlReceiveStatus(pdev);
 757              		.loc 1 442 17 is_stmt 0 view .LVU214
 758 0048 8021     		movs	r1, #128
 759 004a 2046     		mov	r0, r4
 760 004c FFF7FEFF 		bl	USBD_LL_StallEP
 761              	.LVL61:
 443:Middlewares/ST/STM32_USB_Device_Library/Core/Src/usbd_core.c ****         }
 762              		.loc 1 443 11 is_stmt 1 view .LVU215
 443:Middlewares/ST/STM32_USB_Device_Library/Core/Src/usbd_core.c ****         }
 763              		.loc 1 443 17 is_stmt 0 view .LVU216
 764 0050 2046     		mov	r0, r4
 765 0052 FFF7FEFF 		bl	USBD_CtlReceiveStatus
 766              	.LVL62:
 456:Middlewares/ST/STM32_USB_Device_Library/Core/Src/usbd_core.c **** 
 767              		.loc 1 456 5 is_stmt 1 view .LVU217
 458:Middlewares/ST/STM32_USB_Device_Library/Core/Src/usbd_core.c ****     {
 768              		.loc 1 458 5 view .LVU218
ARM GAS  /tmp/ccBPDmLJ.s 			page 24


 458:Middlewares/ST/STM32_USB_Device_Library/Core/Src/usbd_core.c ****     {
 769              		.loc 1 458 8 is_stmt 0 view .LVU219
 770 0056 94F8A032 		ldrb	r3, [r4, #672]	@ zero_extendqisi2
 771 005a 012B     		cmp	r3, #1
 772 005c DCD1     		bne	.L64
 773              	.L75:
 460:Middlewares/ST/STM32_USB_Device_Library/Core/Src/usbd_core.c ****       pdev->dev_test_mode = 0U;
 774              		.loc 1 460 7 is_stmt 1 view .LVU220
 775              	.LVL63:
 237:Middlewares/ST/STM32_USB_Device_Library/Core/Src/usbd_core.c **** 
 776              		.loc 1 237 3 view .LVU221
 239:Middlewares/ST/STM32_USB_Device_Library/Core/Src/usbd_core.c **** }
 777              		.loc 1 239 3 view .LVU222
 461:Middlewares/ST/STM32_USB_Device_Library/Core/Src/usbd_core.c ****     }
 778              		.loc 1 461 7 view .LVU223
 461:Middlewares/ST/STM32_USB_Device_Library/Core/Src/usbd_core.c ****     }
 779              		.loc 1 461 27 is_stmt 0 view .LVU224
 780 005e 0023     		movs	r3, #0
 781 0060 84F8A032 		strb	r3, [r4, #672]
 782              		.loc 1 481 1 view .LVU225
 783 0064 0020     		movs	r0, #0
 784 0066 70BD     		pop	{r4, r5, r6, pc}
 785              	.LVL64:
 786              	.L76:
 413:Middlewares/ST/STM32_USB_Device_Library/Core/Src/usbd_core.c **** 
 787              		.loc 1 413 9 is_stmt 1 view .LVU226
 413:Middlewares/ST/STM32_USB_Device_Library/Core/Src/usbd_core.c **** 
 788              		.loc 1 413 25 is_stmt 0 view .LVU227
 789 0068 921B     		subs	r2, r2, r6
 790 006a C261     		str	r2, [r0, #28]
 415:Middlewares/ST/STM32_USB_Device_Library/Core/Src/usbd_core.c **** 
 791              		.loc 1 415 9 is_stmt 1 view .LVU228
 415:Middlewares/ST/STM32_USB_Device_Library/Core/Src/usbd_core.c **** 
 792              		.loc 1 415 15 is_stmt 0 view .LVU229
 793 006c 1946     		mov	r1, r3
 794              	.LVL65:
 415:Middlewares/ST/STM32_USB_Device_Library/Core/Src/usbd_core.c **** 
 795              		.loc 1 415 15 view .LVU230
 796 006e FFF7FEFF 		bl	USBD_CtlContinueSendData
 797              	.LVL66:
 418:Middlewares/ST/STM32_USB_Device_Library/Core/Src/usbd_core.c ****       }
 798              		.loc 1 418 9 is_stmt 1 view .LVU231
 799              	.L73:
 431:Middlewares/ST/STM32_USB_Device_Library/Core/Src/usbd_core.c ****         }
 800              		.loc 1 431 11 view .LVU232
 431:Middlewares/ST/STM32_USB_Device_Library/Core/Src/usbd_core.c ****         }
 801              		.loc 1 431 17 is_stmt 0 view .LVU233
 802 0072 2B46     		mov	r3, r5
 803 0074 2A46     		mov	r2, r5
 804 0076 2946     		mov	r1, r5
 805 0078 2046     		mov	r0, r4
 806 007a FFF7FEFF 		bl	USBD_LL_PrepareReceive
 807              	.LVL67:
 431:Middlewares/ST/STM32_USB_Device_Library/Core/Src/usbd_core.c ****         }
 808              		.loc 1 431 11 view .LVU234
 809 007e C7E7     		b	.L59
 810              	.LVL68:
ARM GAS  /tmp/ccBPDmLJ.s 			page 25


 811              	.L77:
 424:Middlewares/ST/STM32_USB_Device_Library/Core/Src/usbd_core.c ****             (pep->total_length < pdev->ep0_data_len))
 812              		.loc 1 424 17 discriminator 1 view .LVU235
 813 0080 8369     		ldr	r3, [r0, #24]
 814              	.LVL69:
 423:Middlewares/ST/STM32_USB_Device_Library/Core/Src/usbd_core.c ****             (pep->total_length >= pep->maxpacket) &&
 815              		.loc 1 423 49 discriminator 1 view .LVU236
 816 0082 9A42     		cmp	r2, r3
 817 0084 DCD8     		bhi	.L61
 424:Middlewares/ST/STM32_USB_Device_Library/Core/Src/usbd_core.c ****             (pep->total_length < pdev->ep0_data_len))
 818              		.loc 1 424 51 view .LVU237
 819 0086 D0F89822 		ldr	r2, [r0, #664]
 820 008a 9342     		cmp	r3, r2
 821 008c D8D2     		bcs	.L61
 427:Middlewares/ST/STM32_USB_Device_Library/Core/Src/usbd_core.c ****           pdev->ep0_data_len = 0U;
 822              		.loc 1 427 11 is_stmt 1 view .LVU238
 427:Middlewares/ST/STM32_USB_Device_Library/Core/Src/usbd_core.c ****           pdev->ep0_data_len = 0U;
 823              		.loc 1 427 17 is_stmt 0 view .LVU239
 824 008e 0A46     		mov	r2, r1
 825 0090 FFF7FEFF 		bl	USBD_CtlContinueSendData
 826              	.LVL70:
 428:Middlewares/ST/STM32_USB_Device_Library/Core/Src/usbd_core.c **** 
 827              		.loc 1 428 11 is_stmt 1 view .LVU240
 428:Middlewares/ST/STM32_USB_Device_Library/Core/Src/usbd_core.c **** 
 828              		.loc 1 428 30 is_stmt 0 view .LVU241
 829 0094 C4F89852 		str	r5, [r4, #664]
 830 0098 EBE7     		b	.L73
 831              	.LVL71:
 832              	.L78:
 437:Middlewares/ST/STM32_USB_Device_Library/Core/Src/usbd_core.c ****             {
 833              		.loc 1 437 13 is_stmt 1 view .LVU242
 437:Middlewares/ST/STM32_USB_Device_Library/Core/Src/usbd_core.c ****             {
 834              		.loc 1 437 29 is_stmt 0 view .LVU243
 835 009a D4F8B832 		ldr	r3, [r4, #696]
 836 009e DB68     		ldr	r3, [r3, #12]
 437:Middlewares/ST/STM32_USB_Device_Library/Core/Src/usbd_core.c ****             {
 837              		.loc 1 437 16 view .LVU244
 838 00a0 002B     		cmp	r3, #0
 839 00a2 D1D0     		beq	.L62
 439:Middlewares/ST/STM32_USB_Device_Library/Core/Src/usbd_core.c ****             }
 840              		.loc 1 439 15 is_stmt 1 view .LVU245
 841 00a4 2046     		mov	r0, r4
 842              	.LVL72:
 439:Middlewares/ST/STM32_USB_Device_Library/Core/Src/usbd_core.c ****             }
 843              		.loc 1 439 15 is_stmt 0 view .LVU246
 844 00a6 9847     		blx	r3
 845              	.LVL73:
 439:Middlewares/ST/STM32_USB_Device_Library/Core/Src/usbd_core.c ****             }
 846              		.loc 1 439 15 view .LVU247
 847 00a8 CEE7     		b	.L62
 848              		.cfi_endproc
 849              	.LFE249:
 851 00aa 00BF     		.section	.text.USBD_LL_Reset,"ax",%progbits
 852              		.align	1
 853              		.p2align 2,,3
 854              		.global	USBD_LL_Reset
 855              		.syntax unified
ARM GAS  /tmp/ccBPDmLJ.s 			page 26


 856              		.thumb
 857              		.thumb_func
 859              	USBD_LL_Reset:
 860              	.LVL74:
 861              	.LFB250:
 482:Middlewares/ST/STM32_USB_Device_Library/Core/Src/usbd_core.c **** 
 483:Middlewares/ST/STM32_USB_Device_Library/Core/Src/usbd_core.c **** /**
 484:Middlewares/ST/STM32_USB_Device_Library/Core/Src/usbd_core.c ****   * @brief  USBD_LL_Reset
 485:Middlewares/ST/STM32_USB_Device_Library/Core/Src/usbd_core.c ****   *         Handle Reset event
 486:Middlewares/ST/STM32_USB_Device_Library/Core/Src/usbd_core.c ****   * @param  pdev: device instance
 487:Middlewares/ST/STM32_USB_Device_Library/Core/Src/usbd_core.c ****   * @retval status
 488:Middlewares/ST/STM32_USB_Device_Library/Core/Src/usbd_core.c ****   */
 489:Middlewares/ST/STM32_USB_Device_Library/Core/Src/usbd_core.c **** 
 490:Middlewares/ST/STM32_USB_Device_Library/Core/Src/usbd_core.c **** USBD_StatusTypeDef USBD_LL_Reset(USBD_HandleTypeDef *pdev)
 491:Middlewares/ST/STM32_USB_Device_Library/Core/Src/usbd_core.c **** {
 862              		.loc 1 491 1 is_stmt 1 view -0
 863              		.cfi_startproc
 864              		@ args = 0, pretend = 0, frame = 0
 865              		@ frame_needed = 0, uses_anonymous_args = 0
 492:Middlewares/ST/STM32_USB_Device_Library/Core/Src/usbd_core.c ****   /* Upon Reset call user call back */
 493:Middlewares/ST/STM32_USB_Device_Library/Core/Src/usbd_core.c ****   pdev->dev_state = USBD_STATE_DEFAULT;
 866              		.loc 1 493 3 view .LVU249
 494:Middlewares/ST/STM32_USB_Device_Library/Core/Src/usbd_core.c ****   pdev->ep0_state = USBD_EP0_IDLE;
 495:Middlewares/ST/STM32_USB_Device_Library/Core/Src/usbd_core.c ****   pdev->dev_config = 0U;
 496:Middlewares/ST/STM32_USB_Device_Library/Core/Src/usbd_core.c ****   pdev->dev_remote_wakeup = 0U;
 497:Middlewares/ST/STM32_USB_Device_Library/Core/Src/usbd_core.c **** 
 498:Middlewares/ST/STM32_USB_Device_Library/Core/Src/usbd_core.c ****   if (pdev->pClass == NULL)
 867              		.loc 1 498 11 is_stmt 0 view .LVU250
 868 0000 D0F8B832 		ldr	r3, [r0, #696]
 494:Middlewares/ST/STM32_USB_Device_Library/Core/Src/usbd_core.c ****   pdev->ep0_state = USBD_EP0_IDLE;
 869              		.loc 1 494 19 view .LVU251
 870 0004 0021     		movs	r1, #0
 493:Middlewares/ST/STM32_USB_Device_Library/Core/Src/usbd_core.c ****   pdev->ep0_state = USBD_EP0_IDLE;
 871              		.loc 1 493 19 view .LVU252
 872 0006 0122     		movs	r2, #1
 873 0008 80F89C22 		strb	r2, [r0, #668]
 494:Middlewares/ST/STM32_USB_Device_Library/Core/Src/usbd_core.c ****   pdev->ep0_state = USBD_EP0_IDLE;
 874              		.loc 1 494 3 is_stmt 1 view .LVU253
 495:Middlewares/ST/STM32_USB_Device_Library/Core/Src/usbd_core.c ****   pdev->dev_remote_wakeup = 0U;
 875              		.loc 1 495 20 is_stmt 0 view .LVU254
 876 000c 4160     		str	r1, [r0, #4]
 494:Middlewares/ST/STM32_USB_Device_Library/Core/Src/usbd_core.c ****   pdev->ep0_state = USBD_EP0_IDLE;
 877              		.loc 1 494 19 view .LVU255
 878 000e C0F89412 		str	r1, [r0, #660]
 495:Middlewares/ST/STM32_USB_Device_Library/Core/Src/usbd_core.c ****   pdev->dev_remote_wakeup = 0U;
 879              		.loc 1 495 3 is_stmt 1 view .LVU256
 496:Middlewares/ST/STM32_USB_Device_Library/Core/Src/usbd_core.c **** 
 880              		.loc 1 496 3 view .LVU257
 496:Middlewares/ST/STM32_USB_Device_Library/Core/Src/usbd_core.c **** 
 881              		.loc 1 496 27 is_stmt 0 view .LVU258
 882 0012 C0F8A412 		str	r1, [r0, #676]
 883              		.loc 1 498 3 is_stmt 1 view .LVU259
 884              		.loc 1 498 6 is_stmt 0 view .LVU260
 885 0016 EBB1     		cbz	r3, .L82
 499:Middlewares/ST/STM32_USB_Device_Library/Core/Src/usbd_core.c ****   {
 500:Middlewares/ST/STM32_USB_Device_Library/Core/Src/usbd_core.c ****     return USBD_FAIL;
 501:Middlewares/ST/STM32_USB_Device_Library/Core/Src/usbd_core.c ****   }
ARM GAS  /tmp/ccBPDmLJ.s 			page 27


 502:Middlewares/ST/STM32_USB_Device_Library/Core/Src/usbd_core.c **** 
 503:Middlewares/ST/STM32_USB_Device_Library/Core/Src/usbd_core.c ****   if (pdev->pClassData != NULL)
 886              		.loc 1 503 3 is_stmt 1 view .LVU261
 887              		.loc 1 503 6 is_stmt 0 view .LVU262
 888 0018 D0F8BC22 		ldr	r2, [r0, #700]
 491:Middlewares/ST/STM32_USB_Device_Library/Core/Src/usbd_core.c ****   /* Upon Reset call user call back */
 889              		.loc 1 491 1 view .LVU263
 890 001c 70B5     		push	{r4, r5, r6, lr}
 891              		.cfi_def_cfa_offset 16
 892              		.cfi_offset 4, -16
 893              		.cfi_offset 5, -12
 894              		.cfi_offset 6, -8
 895              		.cfi_offset 14, -4
 896 001e 0446     		mov	r4, r0
 897              		.loc 1 503 6 view .LVU264
 898 0020 12B1     		cbz	r2, .L81
 504:Middlewares/ST/STM32_USB_Device_Library/Core/Src/usbd_core.c ****   {
 505:Middlewares/ST/STM32_USB_Device_Library/Core/Src/usbd_core.c ****     if (pdev->pClass->DeInit != NULL)
 899              		.loc 1 505 5 is_stmt 1 view .LVU265
 900              		.loc 1 505 21 is_stmt 0 view .LVU266
 901 0022 5B68     		ldr	r3, [r3, #4]
 902              		.loc 1 505 8 view .LVU267
 903 0024 03B1     		cbz	r3, .L81
 506:Middlewares/ST/STM32_USB_Device_Library/Core/Src/usbd_core.c ****     {
 507:Middlewares/ST/STM32_USB_Device_Library/Core/Src/usbd_core.c ****       (void)pdev->pClass->DeInit(pdev, (uint8_t)pdev->dev_config);
 904              		.loc 1 507 7 is_stmt 1 view .LVU268
 905              		.loc 1 507 13 is_stmt 0 view .LVU269
 906 0026 9847     		blx	r3
 907              	.LVL75:
 908              	.L81:
 508:Middlewares/ST/STM32_USB_Device_Library/Core/Src/usbd_core.c ****     }
 509:Middlewares/ST/STM32_USB_Device_Library/Core/Src/usbd_core.c ****   }
 510:Middlewares/ST/STM32_USB_Device_Library/Core/Src/usbd_core.c **** 
 511:Middlewares/ST/STM32_USB_Device_Library/Core/Src/usbd_core.c ****   /* Open EP0 OUT */
 512:Middlewares/ST/STM32_USB_Device_Library/Core/Src/usbd_core.c ****   (void)USBD_LL_OpenEP(pdev, 0x00U, USBD_EP_TYPE_CTRL, USB_MAX_EP0_SIZE);
 909              		.loc 1 512 3 is_stmt 1 view .LVU270
 513:Middlewares/ST/STM32_USB_Device_Library/Core/Src/usbd_core.c ****   pdev->ep_out[0x00U & 0xFU].is_used = 1U;
 514:Middlewares/ST/STM32_USB_Device_Library/Core/Src/usbd_core.c **** 
 515:Middlewares/ST/STM32_USB_Device_Library/Core/Src/usbd_core.c ****   pdev->ep_out[0].maxpacket = USB_MAX_EP0_SIZE;
 910              		.loc 1 515 29 is_stmt 0 view .LVU271
 911 0028 4025     		movs	r5, #64
 512:Middlewares/ST/STM32_USB_Device_Library/Core/Src/usbd_core.c ****   pdev->ep_out[0x00U & 0xFU].is_used = 1U;
 912              		.loc 1 512 9 view .LVU272
 913 002a 0022     		movs	r2, #0
 914 002c 1146     		mov	r1, r2
 915 002e 2B46     		mov	r3, r5
 513:Middlewares/ST/STM32_USB_Device_Library/Core/Src/usbd_core.c ****   pdev->ep_out[0x00U & 0xFU].is_used = 1U;
 916              		.loc 1 513 38 view .LVU273
 917 0030 0126     		movs	r6, #1
 512:Middlewares/ST/STM32_USB_Device_Library/Core/Src/usbd_core.c ****   pdev->ep_out[0x00U & 0xFU].is_used = 1U;
 918              		.loc 1 512 9 view .LVU274
 919 0032 2046     		mov	r0, r4
 920 0034 FFF7FEFF 		bl	USBD_LL_OpenEP
 921              	.LVL76:
 513:Middlewares/ST/STM32_USB_Device_Library/Core/Src/usbd_core.c ****   pdev->ep_out[0x00U & 0xFU].is_used = 1U;
 922              		.loc 1 513 3 is_stmt 1 view .LVU275
 513:Middlewares/ST/STM32_USB_Device_Library/Core/Src/usbd_core.c ****   pdev->ep_out[0x00U & 0xFU].is_used = 1U;
ARM GAS  /tmp/ccBPDmLJ.s 			page 28


 923              		.loc 1 513 38 is_stmt 0 view .LVU276
 924 0038 A4F86461 		strh	r6, [r4, #356]	@ movhi
 925              		.loc 1 515 3 is_stmt 1 view .LVU277
 926              		.loc 1 515 29 is_stmt 0 view .LVU278
 927 003c C4F86051 		str	r5, [r4, #352]
 516:Middlewares/ST/STM32_USB_Device_Library/Core/Src/usbd_core.c **** 
 517:Middlewares/ST/STM32_USB_Device_Library/Core/Src/usbd_core.c ****   /* Open EP0 IN */
 518:Middlewares/ST/STM32_USB_Device_Library/Core/Src/usbd_core.c ****   (void)USBD_LL_OpenEP(pdev, 0x80U, USBD_EP_TYPE_CTRL, USB_MAX_EP0_SIZE);
 928              		.loc 1 518 3 is_stmt 1 view .LVU279
 929              		.loc 1 518 9 is_stmt 0 view .LVU280
 930 0040 2B46     		mov	r3, r5
 931 0042 0022     		movs	r2, #0
 932 0044 8021     		movs	r1, #128
 933 0046 2046     		mov	r0, r4
 934 0048 FFF7FEFF 		bl	USBD_LL_OpenEP
 935              	.LVL77:
 519:Middlewares/ST/STM32_USB_Device_Library/Core/Src/usbd_core.c ****   pdev->ep_in[0x80U & 0xFU].is_used = 1U;
 936              		.loc 1 519 3 is_stmt 1 view .LVU281
 937              		.loc 1 519 37 is_stmt 0 view .LVU282
 938 004c A684     		strh	r6, [r4, #36]	@ movhi
 520:Middlewares/ST/STM32_USB_Device_Library/Core/Src/usbd_core.c **** 
 521:Middlewares/ST/STM32_USB_Device_Library/Core/Src/usbd_core.c ****   pdev->ep_in[0].maxpacket = USB_MAX_EP0_SIZE;
 939              		.loc 1 521 3 is_stmt 1 view .LVU283
 940              		.loc 1 521 28 is_stmt 0 view .LVU284
 941 004e 2562     		str	r5, [r4, #32]
 522:Middlewares/ST/STM32_USB_Device_Library/Core/Src/usbd_core.c **** 
 523:Middlewares/ST/STM32_USB_Device_Library/Core/Src/usbd_core.c ****   return USBD_OK;
 942              		.loc 1 523 3 is_stmt 1 view .LVU285
 943              		.loc 1 523 10 is_stmt 0 view .LVU286
 944 0050 0020     		movs	r0, #0
 524:Middlewares/ST/STM32_USB_Device_Library/Core/Src/usbd_core.c **** }
 945              		.loc 1 524 1 view .LVU287
 946 0052 70BD     		pop	{r4, r5, r6, pc}
 947              	.LVL78:
 948              	.L82:
 949              		.cfi_def_cfa_offset 0
 950              		.cfi_restore 4
 951              		.cfi_restore 5
 952              		.cfi_restore 6
 953              		.cfi_restore 14
 500:Middlewares/ST/STM32_USB_Device_Library/Core/Src/usbd_core.c ****   }
 954              		.loc 1 500 12 view .LVU288
 955 0054 0320     		movs	r0, #3
 956              	.LVL79:
 957              		.loc 1 524 1 view .LVU289
 958 0056 7047     		bx	lr
 959              		.cfi_endproc
 960              	.LFE250:
 962              		.section	.text.USBD_LL_SetSpeed,"ax",%progbits
 963              		.align	1
 964              		.p2align 2,,3
 965              		.global	USBD_LL_SetSpeed
 966              		.syntax unified
 967              		.thumb
 968              		.thumb_func
 970              	USBD_LL_SetSpeed:
 971              	.LVL80:
ARM GAS  /tmp/ccBPDmLJ.s 			page 29


 972              	.LFB251:
 525:Middlewares/ST/STM32_USB_Device_Library/Core/Src/usbd_core.c **** 
 526:Middlewares/ST/STM32_USB_Device_Library/Core/Src/usbd_core.c **** /**
 527:Middlewares/ST/STM32_USB_Device_Library/Core/Src/usbd_core.c ****   * @brief  USBD_LL_SetSpeed
 528:Middlewares/ST/STM32_USB_Device_Library/Core/Src/usbd_core.c ****   *         Handle Reset event
 529:Middlewares/ST/STM32_USB_Device_Library/Core/Src/usbd_core.c ****   * @param  pdev: device instance
 530:Middlewares/ST/STM32_USB_Device_Library/Core/Src/usbd_core.c ****   * @retval status
 531:Middlewares/ST/STM32_USB_Device_Library/Core/Src/usbd_core.c ****   */
 532:Middlewares/ST/STM32_USB_Device_Library/Core/Src/usbd_core.c **** USBD_StatusTypeDef USBD_LL_SetSpeed(USBD_HandleTypeDef *pdev,
 533:Middlewares/ST/STM32_USB_Device_Library/Core/Src/usbd_core.c ****                                     USBD_SpeedTypeDef speed)
 534:Middlewares/ST/STM32_USB_Device_Library/Core/Src/usbd_core.c **** {
 973              		.loc 1 534 1 is_stmt 1 view -0
 974              		.cfi_startproc
 975              		@ args = 0, pretend = 0, frame = 0
 976              		@ frame_needed = 0, uses_anonymous_args = 0
 977              		@ link register save eliminated.
 535:Middlewares/ST/STM32_USB_Device_Library/Core/Src/usbd_core.c ****   pdev->dev_speed = speed;
 978              		.loc 1 535 3 view .LVU291
 979              		.loc 1 535 19 is_stmt 0 view .LVU292
 980 0000 0174     		strb	r1, [r0, #16]
 536:Middlewares/ST/STM32_USB_Device_Library/Core/Src/usbd_core.c **** 
 537:Middlewares/ST/STM32_USB_Device_Library/Core/Src/usbd_core.c ****   return USBD_OK;
 981              		.loc 1 537 3 is_stmt 1 view .LVU293
 538:Middlewares/ST/STM32_USB_Device_Library/Core/Src/usbd_core.c **** }
 982              		.loc 1 538 1 is_stmt 0 view .LVU294
 983 0002 0020     		movs	r0, #0
 984              	.LVL81:
 985              		.loc 1 538 1 view .LVU295
 986 0004 7047     		bx	lr
 987              		.cfi_endproc
 988              	.LFE251:
 990 0006 00BF     		.section	.text.USBD_LL_Suspend,"ax",%progbits
 991              		.align	1
 992              		.p2align 2,,3
 993              		.global	USBD_LL_Suspend
 994              		.syntax unified
 995              		.thumb
 996              		.thumb_func
 998              	USBD_LL_Suspend:
 999              	.LVL82:
 1000              	.LFB252:
 539:Middlewares/ST/STM32_USB_Device_Library/Core/Src/usbd_core.c **** 
 540:Middlewares/ST/STM32_USB_Device_Library/Core/Src/usbd_core.c **** /**
 541:Middlewares/ST/STM32_USB_Device_Library/Core/Src/usbd_core.c ****   * @brief  USBD_LL_Suspend
 542:Middlewares/ST/STM32_USB_Device_Library/Core/Src/usbd_core.c ****   *         Handle Suspend event
 543:Middlewares/ST/STM32_USB_Device_Library/Core/Src/usbd_core.c ****   * @param  pdev: device instance
 544:Middlewares/ST/STM32_USB_Device_Library/Core/Src/usbd_core.c ****   * @retval status
 545:Middlewares/ST/STM32_USB_Device_Library/Core/Src/usbd_core.c ****   */
 546:Middlewares/ST/STM32_USB_Device_Library/Core/Src/usbd_core.c **** 
 547:Middlewares/ST/STM32_USB_Device_Library/Core/Src/usbd_core.c **** USBD_StatusTypeDef USBD_LL_Suspend(USBD_HandleTypeDef *pdev)
 548:Middlewares/ST/STM32_USB_Device_Library/Core/Src/usbd_core.c **** {
 1001              		.loc 1 548 1 is_stmt 1 view -0
 1002              		.cfi_startproc
 1003              		@ args = 0, pretend = 0, frame = 0
 1004              		@ frame_needed = 0, uses_anonymous_args = 0
 1005              		@ link register save eliminated.
 549:Middlewares/ST/STM32_USB_Device_Library/Core/Src/usbd_core.c ****   pdev->dev_old_state = pdev->dev_state;
ARM GAS  /tmp/ccBPDmLJ.s 			page 30


 1006              		.loc 1 549 3 view .LVU297
 1007              		.loc 1 549 29 is_stmt 0 view .LVU298
 1008 0000 90F89C22 		ldrb	r2, [r0, #668]	@ zero_extendqisi2
 548:Middlewares/ST/STM32_USB_Device_Library/Core/Src/usbd_core.c ****   pdev->dev_old_state = pdev->dev_state;
 1009              		.loc 1 548 1 view .LVU299
 1010 0004 0346     		mov	r3, r0
 550:Middlewares/ST/STM32_USB_Device_Library/Core/Src/usbd_core.c ****   pdev->dev_state = USBD_STATE_SUSPENDED;
 1011              		.loc 1 550 19 view .LVU300
 1012 0006 0421     		movs	r1, #4
 549:Middlewares/ST/STM32_USB_Device_Library/Core/Src/usbd_core.c ****   pdev->dev_old_state = pdev->dev_state;
 1013              		.loc 1 549 29 view .LVU301
 1014 0008 D2B2     		uxtb	r2, r2
 549:Middlewares/ST/STM32_USB_Device_Library/Core/Src/usbd_core.c ****   pdev->dev_old_state = pdev->dev_state;
 1015              		.loc 1 549 23 view .LVU302
 1016 000a 83F89D22 		strb	r2, [r3, #669]
 1017              		.loc 1 550 3 is_stmt 1 view .LVU303
 551:Middlewares/ST/STM32_USB_Device_Library/Core/Src/usbd_core.c **** 
 552:Middlewares/ST/STM32_USB_Device_Library/Core/Src/usbd_core.c ****   return USBD_OK;
 553:Middlewares/ST/STM32_USB_Device_Library/Core/Src/usbd_core.c **** }
 1018              		.loc 1 553 1 is_stmt 0 view .LVU304
 1019 000e 0020     		movs	r0, #0
 1020              	.LVL83:
 550:Middlewares/ST/STM32_USB_Device_Library/Core/Src/usbd_core.c ****   pdev->dev_state = USBD_STATE_SUSPENDED;
 1021              		.loc 1 550 19 view .LVU305
 1022 0010 83F89C12 		strb	r1, [r3, #668]
 552:Middlewares/ST/STM32_USB_Device_Library/Core/Src/usbd_core.c **** }
 1023              		.loc 1 552 3 is_stmt 1 view .LVU306
 1024              		.loc 1 553 1 is_stmt 0 view .LVU307
 1025 0014 7047     		bx	lr
 1026              		.cfi_endproc
 1027              	.LFE252:
 1029 0016 00BF     		.section	.text.USBD_LL_Resume,"ax",%progbits
 1030              		.align	1
 1031              		.p2align 2,,3
 1032              		.global	USBD_LL_Resume
 1033              		.syntax unified
 1034              		.thumb
 1035              		.thumb_func
 1037              	USBD_LL_Resume:
 1038              	.LVL84:
 1039              	.LFB253:
 554:Middlewares/ST/STM32_USB_Device_Library/Core/Src/usbd_core.c **** 
 555:Middlewares/ST/STM32_USB_Device_Library/Core/Src/usbd_core.c **** /**
 556:Middlewares/ST/STM32_USB_Device_Library/Core/Src/usbd_core.c ****   * @brief  USBD_LL_Resume
 557:Middlewares/ST/STM32_USB_Device_Library/Core/Src/usbd_core.c ****   *         Handle Resume event
 558:Middlewares/ST/STM32_USB_Device_Library/Core/Src/usbd_core.c ****   * @param  pdev: device instance
 559:Middlewares/ST/STM32_USB_Device_Library/Core/Src/usbd_core.c ****   * @retval status
 560:Middlewares/ST/STM32_USB_Device_Library/Core/Src/usbd_core.c ****   */
 561:Middlewares/ST/STM32_USB_Device_Library/Core/Src/usbd_core.c **** 
 562:Middlewares/ST/STM32_USB_Device_Library/Core/Src/usbd_core.c **** USBD_StatusTypeDef USBD_LL_Resume(USBD_HandleTypeDef *pdev)
 563:Middlewares/ST/STM32_USB_Device_Library/Core/Src/usbd_core.c **** {
 1040              		.loc 1 563 1 is_stmt 1 view -0
 1041              		.cfi_startproc
 1042              		@ args = 0, pretend = 0, frame = 0
 1043              		@ frame_needed = 0, uses_anonymous_args = 0
 1044              		@ link register save eliminated.
 564:Middlewares/ST/STM32_USB_Device_Library/Core/Src/usbd_core.c ****   if (pdev->dev_state == USBD_STATE_SUSPENDED)
ARM GAS  /tmp/ccBPDmLJ.s 			page 31


 1045              		.loc 1 564 3 view .LVU309
 1046              		.loc 1 564 11 is_stmt 0 view .LVU310
 1047 0000 90F89C32 		ldrb	r3, [r0, #668]	@ zero_extendqisi2
 1048              		.loc 1 564 6 view .LVU311
 1049 0004 042B     		cmp	r3, #4
 1050 0006 04D1     		bne	.L96
 565:Middlewares/ST/STM32_USB_Device_Library/Core/Src/usbd_core.c ****   {
 566:Middlewares/ST/STM32_USB_Device_Library/Core/Src/usbd_core.c ****     pdev->dev_state = pdev->dev_old_state;
 1051              		.loc 1 566 5 is_stmt 1 view .LVU312
 1052              		.loc 1 566 27 is_stmt 0 view .LVU313
 1053 0008 90F89D32 		ldrb	r3, [r0, #669]	@ zero_extendqisi2
 1054 000c DBB2     		uxtb	r3, r3
 1055              		.loc 1 566 21 view .LVU314
 1056 000e 80F89C32 		strb	r3, [r0, #668]
 1057              	.L96:
 567:Middlewares/ST/STM32_USB_Device_Library/Core/Src/usbd_core.c ****   }
 568:Middlewares/ST/STM32_USB_Device_Library/Core/Src/usbd_core.c **** 
 569:Middlewares/ST/STM32_USB_Device_Library/Core/Src/usbd_core.c ****   return USBD_OK;
 1058              		.loc 1 569 3 is_stmt 1 view .LVU315
 570:Middlewares/ST/STM32_USB_Device_Library/Core/Src/usbd_core.c **** }
 1059              		.loc 1 570 1 is_stmt 0 view .LVU316
 1060 0012 0020     		movs	r0, #0
 1061              	.LVL85:
 1062              		.loc 1 570 1 view .LVU317
 1063 0014 7047     		bx	lr
 1064              		.cfi_endproc
 1065              	.LFE253:
 1067 0016 00BF     		.section	.text.USBD_LL_SOF,"ax",%progbits
 1068              		.align	1
 1069              		.p2align 2,,3
 1070              		.global	USBD_LL_SOF
 1071              		.syntax unified
 1072              		.thumb
 1073              		.thumb_func
 1075              	USBD_LL_SOF:
 1076              	.LVL86:
 1077              	.LFB254:
 571:Middlewares/ST/STM32_USB_Device_Library/Core/Src/usbd_core.c **** 
 572:Middlewares/ST/STM32_USB_Device_Library/Core/Src/usbd_core.c **** /**
 573:Middlewares/ST/STM32_USB_Device_Library/Core/Src/usbd_core.c ****   * @brief  USBD_LL_SOF
 574:Middlewares/ST/STM32_USB_Device_Library/Core/Src/usbd_core.c ****   *         Handle SOF event
 575:Middlewares/ST/STM32_USB_Device_Library/Core/Src/usbd_core.c ****   * @param  pdev: device instance
 576:Middlewares/ST/STM32_USB_Device_Library/Core/Src/usbd_core.c ****   * @retval status
 577:Middlewares/ST/STM32_USB_Device_Library/Core/Src/usbd_core.c ****   */
 578:Middlewares/ST/STM32_USB_Device_Library/Core/Src/usbd_core.c **** 
 579:Middlewares/ST/STM32_USB_Device_Library/Core/Src/usbd_core.c **** USBD_StatusTypeDef USBD_LL_SOF(USBD_HandleTypeDef *pdev)
 580:Middlewares/ST/STM32_USB_Device_Library/Core/Src/usbd_core.c **** {
 1078              		.loc 1 580 1 is_stmt 1 view -0
 1079              		.cfi_startproc
 1080              		@ args = 0, pretend = 0, frame = 0
 1081              		@ frame_needed = 0, uses_anonymous_args = 0
 581:Middlewares/ST/STM32_USB_Device_Library/Core/Src/usbd_core.c ****   if (pdev->pClass == NULL)
 1082              		.loc 1 581 3 view .LVU319
 1083              		.loc 1 581 11 is_stmt 0 view .LVU320
 1084 0000 D0F8B822 		ldr	r2, [r0, #696]
 1085              		.loc 1 581 6 view .LVU321
 1086 0004 5AB1     		cbz	r2, .L99
ARM GAS  /tmp/ccBPDmLJ.s 			page 32


 582:Middlewares/ST/STM32_USB_Device_Library/Core/Src/usbd_core.c ****   {
 583:Middlewares/ST/STM32_USB_Device_Library/Core/Src/usbd_core.c ****     return USBD_FAIL;
 584:Middlewares/ST/STM32_USB_Device_Library/Core/Src/usbd_core.c ****   }
 585:Middlewares/ST/STM32_USB_Device_Library/Core/Src/usbd_core.c **** 
 586:Middlewares/ST/STM32_USB_Device_Library/Core/Src/usbd_core.c ****   if (pdev->dev_state == USBD_STATE_CONFIGURED)
 1087              		.loc 1 586 3 is_stmt 1 view .LVU322
 580:Middlewares/ST/STM32_USB_Device_Library/Core/Src/usbd_core.c ****   if (pdev->pClass == NULL)
 1088              		.loc 1 580 1 is_stmt 0 view .LVU323
 1089 0006 08B5     		push	{r3, lr}
 1090              		.cfi_def_cfa_offset 8
 1091              		.cfi_offset 3, -8
 1092              		.cfi_offset 14, -4
 1093              		.loc 1 586 11 view .LVU324
 1094 0008 90F89C32 		ldrb	r3, [r0, #668]	@ zero_extendqisi2
 1095              		.loc 1 586 6 view .LVU325
 1096 000c 032B     		cmp	r3, #3
 1097 000e 01D0     		beq	.L106
 587:Middlewares/ST/STM32_USB_Device_Library/Core/Src/usbd_core.c ****   {
 588:Middlewares/ST/STM32_USB_Device_Library/Core/Src/usbd_core.c ****     if (pdev->pClass->SOF != NULL)
 589:Middlewares/ST/STM32_USB_Device_Library/Core/Src/usbd_core.c ****     {
 590:Middlewares/ST/STM32_USB_Device_Library/Core/Src/usbd_core.c ****       (void)pdev->pClass->SOF(pdev);
 591:Middlewares/ST/STM32_USB_Device_Library/Core/Src/usbd_core.c ****     }
 592:Middlewares/ST/STM32_USB_Device_Library/Core/Src/usbd_core.c ****   }
 593:Middlewares/ST/STM32_USB_Device_Library/Core/Src/usbd_core.c **** 
 594:Middlewares/ST/STM32_USB_Device_Library/Core/Src/usbd_core.c ****   return USBD_OK;
 1098              		.loc 1 594 10 view .LVU326
 1099 0010 0020     		movs	r0, #0
 1100              	.LVL87:
 595:Middlewares/ST/STM32_USB_Device_Library/Core/Src/usbd_core.c **** }
 1101              		.loc 1 595 1 view .LVU327
 1102 0012 08BD     		pop	{r3, pc}
 1103              	.LVL88:
 1104              	.L106:
 588:Middlewares/ST/STM32_USB_Device_Library/Core/Src/usbd_core.c ****     {
 1105              		.loc 1 588 5 is_stmt 1 view .LVU328
 588:Middlewares/ST/STM32_USB_Device_Library/Core/Src/usbd_core.c ****     {
 1106              		.loc 1 588 21 is_stmt 0 view .LVU329
 1107 0014 D369     		ldr	r3, [r2, #28]
 588:Middlewares/ST/STM32_USB_Device_Library/Core/Src/usbd_core.c ****     {
 1108              		.loc 1 588 8 view .LVU330
 1109 0016 23B1     		cbz	r3, .L101
 590:Middlewares/ST/STM32_USB_Device_Library/Core/Src/usbd_core.c ****     }
 1110              		.loc 1 590 7 is_stmt 1 view .LVU331
 590:Middlewares/ST/STM32_USB_Device_Library/Core/Src/usbd_core.c ****     }
 1111              		.loc 1 590 13 is_stmt 0 view .LVU332
 1112 0018 9847     		blx	r3
 1113              	.LVL89:
 594:Middlewares/ST/STM32_USB_Device_Library/Core/Src/usbd_core.c **** }
 1114              		.loc 1 594 10 view .LVU333
 1115 001a 0020     		movs	r0, #0
 1116              		.loc 1 595 1 view .LVU334
 1117 001c 08BD     		pop	{r3, pc}
 1118              	.LVL90:
 1119              	.L99:
 1120              		.cfi_def_cfa_offset 0
 1121              		.cfi_restore 3
 1122              		.cfi_restore 14
ARM GAS  /tmp/ccBPDmLJ.s 			page 33


 583:Middlewares/ST/STM32_USB_Device_Library/Core/Src/usbd_core.c ****   }
 1123              		.loc 1 583 12 view .LVU335
 1124 001e 0320     		movs	r0, #3
 1125              	.LVL91:
 1126              		.loc 1 595 1 view .LVU336
 1127 0020 7047     		bx	lr
 1128              	.LVL92:
 1129              	.L101:
 1130              		.cfi_def_cfa_offset 8
 1131              		.cfi_offset 3, -8
 1132              		.cfi_offset 14, -4
 594:Middlewares/ST/STM32_USB_Device_Library/Core/Src/usbd_core.c **** }
 1133              		.loc 1 594 10 view .LVU337
 1134 0022 1846     		mov	r0, r3
 1135              	.LVL93:
 1136              		.loc 1 595 1 view .LVU338
 1137 0024 08BD     		pop	{r3, pc}
 1138              		.cfi_endproc
 1139              	.LFE254:
 1141 0026 00BF     		.section	.text.USBD_LL_IsoINIncomplete,"ax",%progbits
 1142              		.align	1
 1143              		.p2align 2,,3
 1144              		.global	USBD_LL_IsoINIncomplete
 1145              		.syntax unified
 1146              		.thumb
 1147              		.thumb_func
 1149              	USBD_LL_IsoINIncomplete:
 1150              	.LVL94:
 1151              	.LFB255:
 596:Middlewares/ST/STM32_USB_Device_Library/Core/Src/usbd_core.c **** 
 597:Middlewares/ST/STM32_USB_Device_Library/Core/Src/usbd_core.c **** /**
 598:Middlewares/ST/STM32_USB_Device_Library/Core/Src/usbd_core.c ****   * @brief  USBD_LL_IsoINIncomplete
 599:Middlewares/ST/STM32_USB_Device_Library/Core/Src/usbd_core.c ****   *         Handle iso in incomplete event
 600:Middlewares/ST/STM32_USB_Device_Library/Core/Src/usbd_core.c ****   * @param  pdev: device instance
 601:Middlewares/ST/STM32_USB_Device_Library/Core/Src/usbd_core.c ****   * @retval status
 602:Middlewares/ST/STM32_USB_Device_Library/Core/Src/usbd_core.c ****   */
 603:Middlewares/ST/STM32_USB_Device_Library/Core/Src/usbd_core.c **** USBD_StatusTypeDef USBD_LL_IsoINIncomplete(USBD_HandleTypeDef *pdev,
 604:Middlewares/ST/STM32_USB_Device_Library/Core/Src/usbd_core.c ****                                            uint8_t epnum)
 605:Middlewares/ST/STM32_USB_Device_Library/Core/Src/usbd_core.c **** {
 1152              		.loc 1 605 1 is_stmt 1 view -0
 1153              		.cfi_startproc
 1154              		@ args = 0, pretend = 0, frame = 0
 1155              		@ frame_needed = 0, uses_anonymous_args = 0
 606:Middlewares/ST/STM32_USB_Device_Library/Core/Src/usbd_core.c ****   if (pdev->pClass == NULL)
 1156              		.loc 1 606 3 view .LVU340
 1157              		.loc 1 606 11 is_stmt 0 view .LVU341
 1158 0000 D0F8B822 		ldr	r2, [r0, #696]
 1159              		.loc 1 606 6 view .LVU342
 1160 0004 5AB1     		cbz	r2, .L109
 607:Middlewares/ST/STM32_USB_Device_Library/Core/Src/usbd_core.c ****   {
 608:Middlewares/ST/STM32_USB_Device_Library/Core/Src/usbd_core.c ****     return USBD_FAIL;
 609:Middlewares/ST/STM32_USB_Device_Library/Core/Src/usbd_core.c ****   }
 610:Middlewares/ST/STM32_USB_Device_Library/Core/Src/usbd_core.c **** 
 611:Middlewares/ST/STM32_USB_Device_Library/Core/Src/usbd_core.c ****   if (pdev->dev_state == USBD_STATE_CONFIGURED)
 1161              		.loc 1 611 3 is_stmt 1 view .LVU343
 605:Middlewares/ST/STM32_USB_Device_Library/Core/Src/usbd_core.c ****   if (pdev->pClass == NULL)
 1162              		.loc 1 605 1 is_stmt 0 view .LVU344
ARM GAS  /tmp/ccBPDmLJ.s 			page 34


 1163 0006 08B5     		push	{r3, lr}
 1164              		.cfi_def_cfa_offset 8
 1165              		.cfi_offset 3, -8
 1166              		.cfi_offset 14, -4
 1167              		.loc 1 611 11 view .LVU345
 1168 0008 90F89C32 		ldrb	r3, [r0, #668]	@ zero_extendqisi2
 1169              		.loc 1 611 6 view .LVU346
 1170 000c 032B     		cmp	r3, #3
 1171 000e 01D0     		beq	.L116
 612:Middlewares/ST/STM32_USB_Device_Library/Core/Src/usbd_core.c ****   {
 613:Middlewares/ST/STM32_USB_Device_Library/Core/Src/usbd_core.c ****     if (pdev->pClass->IsoINIncomplete != NULL)
 614:Middlewares/ST/STM32_USB_Device_Library/Core/Src/usbd_core.c ****     {
 615:Middlewares/ST/STM32_USB_Device_Library/Core/Src/usbd_core.c ****       (void)pdev->pClass->IsoINIncomplete(pdev, epnum);
 616:Middlewares/ST/STM32_USB_Device_Library/Core/Src/usbd_core.c ****     }
 617:Middlewares/ST/STM32_USB_Device_Library/Core/Src/usbd_core.c ****   }
 618:Middlewares/ST/STM32_USB_Device_Library/Core/Src/usbd_core.c **** 
 619:Middlewares/ST/STM32_USB_Device_Library/Core/Src/usbd_core.c ****   return USBD_OK;
 1172              		.loc 1 619 10 view .LVU347
 1173 0010 0020     		movs	r0, #0
 1174              	.LVL95:
 620:Middlewares/ST/STM32_USB_Device_Library/Core/Src/usbd_core.c **** }
 1175              		.loc 1 620 1 view .LVU348
 1176 0012 08BD     		pop	{r3, pc}
 1177              	.LVL96:
 1178              	.L116:
 613:Middlewares/ST/STM32_USB_Device_Library/Core/Src/usbd_core.c ****     {
 1179              		.loc 1 613 5 is_stmt 1 view .LVU349
 613:Middlewares/ST/STM32_USB_Device_Library/Core/Src/usbd_core.c ****     {
 1180              		.loc 1 613 21 is_stmt 0 view .LVU350
 1181 0014 136A     		ldr	r3, [r2, #32]
 613:Middlewares/ST/STM32_USB_Device_Library/Core/Src/usbd_core.c ****     {
 1182              		.loc 1 613 8 view .LVU351
 1183 0016 23B1     		cbz	r3, .L111
 615:Middlewares/ST/STM32_USB_Device_Library/Core/Src/usbd_core.c ****     }
 1184              		.loc 1 615 7 is_stmt 1 view .LVU352
 615:Middlewares/ST/STM32_USB_Device_Library/Core/Src/usbd_core.c ****     }
 1185              		.loc 1 615 13 is_stmt 0 view .LVU353
 1186 0018 9847     		blx	r3
 1187              	.LVL97:
 619:Middlewares/ST/STM32_USB_Device_Library/Core/Src/usbd_core.c **** }
 1188              		.loc 1 619 10 view .LVU354
 1189 001a 0020     		movs	r0, #0
 1190              		.loc 1 620 1 view .LVU355
 1191 001c 08BD     		pop	{r3, pc}
 1192              	.LVL98:
 1193              	.L109:
 1194              		.cfi_def_cfa_offset 0
 1195              		.cfi_restore 3
 1196              		.cfi_restore 14
 608:Middlewares/ST/STM32_USB_Device_Library/Core/Src/usbd_core.c ****   }
 1197              		.loc 1 608 12 view .LVU356
 1198 001e 0320     		movs	r0, #3
 1199              	.LVL99:
 1200              		.loc 1 620 1 view .LVU357
 1201 0020 7047     		bx	lr
 1202              	.LVL100:
 1203              	.L111:
ARM GAS  /tmp/ccBPDmLJ.s 			page 35


 1204              		.cfi_def_cfa_offset 8
 1205              		.cfi_offset 3, -8
 1206              		.cfi_offset 14, -4
 619:Middlewares/ST/STM32_USB_Device_Library/Core/Src/usbd_core.c **** }
 1207              		.loc 1 619 10 view .LVU358
 1208 0022 1846     		mov	r0, r3
 1209              	.LVL101:
 1210              		.loc 1 620 1 view .LVU359
 1211 0024 08BD     		pop	{r3, pc}
 1212              		.cfi_endproc
 1213              	.LFE255:
 1215 0026 00BF     		.section	.text.USBD_LL_IsoOUTIncomplete,"ax",%progbits
 1216              		.align	1
 1217              		.p2align 2,,3
 1218              		.global	USBD_LL_IsoOUTIncomplete
 1219              		.syntax unified
 1220              		.thumb
 1221              		.thumb_func
 1223              	USBD_LL_IsoOUTIncomplete:
 1224              	.LVL102:
 1225              	.LFB256:
 621:Middlewares/ST/STM32_USB_Device_Library/Core/Src/usbd_core.c **** 
 622:Middlewares/ST/STM32_USB_Device_Library/Core/Src/usbd_core.c **** /**
 623:Middlewares/ST/STM32_USB_Device_Library/Core/Src/usbd_core.c ****   * @brief  USBD_LL_IsoOUTIncomplete
 624:Middlewares/ST/STM32_USB_Device_Library/Core/Src/usbd_core.c ****   *         Handle iso out incomplete event
 625:Middlewares/ST/STM32_USB_Device_Library/Core/Src/usbd_core.c ****   * @param  pdev: device instance
 626:Middlewares/ST/STM32_USB_Device_Library/Core/Src/usbd_core.c ****   * @retval status
 627:Middlewares/ST/STM32_USB_Device_Library/Core/Src/usbd_core.c ****   */
 628:Middlewares/ST/STM32_USB_Device_Library/Core/Src/usbd_core.c **** USBD_StatusTypeDef USBD_LL_IsoOUTIncomplete(USBD_HandleTypeDef *pdev,
 629:Middlewares/ST/STM32_USB_Device_Library/Core/Src/usbd_core.c ****                                             uint8_t epnum)
 630:Middlewares/ST/STM32_USB_Device_Library/Core/Src/usbd_core.c **** {
 1226              		.loc 1 630 1 is_stmt 1 view -0
 1227              		.cfi_startproc
 1228              		@ args = 0, pretend = 0, frame = 0
 1229              		@ frame_needed = 0, uses_anonymous_args = 0
 631:Middlewares/ST/STM32_USB_Device_Library/Core/Src/usbd_core.c ****   if (pdev->pClass == NULL)
 1230              		.loc 1 631 3 view .LVU361
 1231              		.loc 1 631 11 is_stmt 0 view .LVU362
 1232 0000 D0F8B822 		ldr	r2, [r0, #696]
 1233              		.loc 1 631 6 view .LVU363
 1234 0004 5AB1     		cbz	r2, .L119
 632:Middlewares/ST/STM32_USB_Device_Library/Core/Src/usbd_core.c ****   {
 633:Middlewares/ST/STM32_USB_Device_Library/Core/Src/usbd_core.c ****     return USBD_FAIL;
 634:Middlewares/ST/STM32_USB_Device_Library/Core/Src/usbd_core.c ****   }
 635:Middlewares/ST/STM32_USB_Device_Library/Core/Src/usbd_core.c **** 
 636:Middlewares/ST/STM32_USB_Device_Library/Core/Src/usbd_core.c ****   if (pdev->dev_state == USBD_STATE_CONFIGURED)
 1235              		.loc 1 636 3 is_stmt 1 view .LVU364
 630:Middlewares/ST/STM32_USB_Device_Library/Core/Src/usbd_core.c ****   if (pdev->pClass == NULL)
 1236              		.loc 1 630 1 is_stmt 0 view .LVU365
 1237 0006 08B5     		push	{r3, lr}
 1238              		.cfi_def_cfa_offset 8
 1239              		.cfi_offset 3, -8
 1240              		.cfi_offset 14, -4
 1241              		.loc 1 636 11 view .LVU366
 1242 0008 90F89C32 		ldrb	r3, [r0, #668]	@ zero_extendqisi2
 1243              		.loc 1 636 6 view .LVU367
 1244 000c 032B     		cmp	r3, #3
ARM GAS  /tmp/ccBPDmLJ.s 			page 36


 1245 000e 01D0     		beq	.L126
 637:Middlewares/ST/STM32_USB_Device_Library/Core/Src/usbd_core.c ****   {
 638:Middlewares/ST/STM32_USB_Device_Library/Core/Src/usbd_core.c ****     if (pdev->pClass->IsoOUTIncomplete != NULL)
 639:Middlewares/ST/STM32_USB_Device_Library/Core/Src/usbd_core.c ****     {
 640:Middlewares/ST/STM32_USB_Device_Library/Core/Src/usbd_core.c ****       (void)pdev->pClass->IsoOUTIncomplete(pdev, epnum);
 641:Middlewares/ST/STM32_USB_Device_Library/Core/Src/usbd_core.c ****     }
 642:Middlewares/ST/STM32_USB_Device_Library/Core/Src/usbd_core.c ****   }
 643:Middlewares/ST/STM32_USB_Device_Library/Core/Src/usbd_core.c **** 
 644:Middlewares/ST/STM32_USB_Device_Library/Core/Src/usbd_core.c ****   return USBD_OK;
 1246              		.loc 1 644 10 view .LVU368
 1247 0010 0020     		movs	r0, #0
 1248              	.LVL103:
 645:Middlewares/ST/STM32_USB_Device_Library/Core/Src/usbd_core.c **** }
 1249              		.loc 1 645 1 view .LVU369
 1250 0012 08BD     		pop	{r3, pc}
 1251              	.LVL104:
 1252              	.L126:
 638:Middlewares/ST/STM32_USB_Device_Library/Core/Src/usbd_core.c ****     {
 1253              		.loc 1 638 5 is_stmt 1 view .LVU370
 638:Middlewares/ST/STM32_USB_Device_Library/Core/Src/usbd_core.c ****     {
 1254              		.loc 1 638 21 is_stmt 0 view .LVU371
 1255 0014 536A     		ldr	r3, [r2, #36]
 638:Middlewares/ST/STM32_USB_Device_Library/Core/Src/usbd_core.c ****     {
 1256              		.loc 1 638 8 view .LVU372
 1257 0016 23B1     		cbz	r3, .L121
 640:Middlewares/ST/STM32_USB_Device_Library/Core/Src/usbd_core.c ****     }
 1258              		.loc 1 640 7 is_stmt 1 view .LVU373
 640:Middlewares/ST/STM32_USB_Device_Library/Core/Src/usbd_core.c ****     }
 1259              		.loc 1 640 13 is_stmt 0 view .LVU374
 1260 0018 9847     		blx	r3
 1261              	.LVL105:
 644:Middlewares/ST/STM32_USB_Device_Library/Core/Src/usbd_core.c **** }
 1262              		.loc 1 644 10 view .LVU375
 1263 001a 0020     		movs	r0, #0
 1264              		.loc 1 645 1 view .LVU376
 1265 001c 08BD     		pop	{r3, pc}
 1266              	.LVL106:
 1267              	.L119:
 1268              		.cfi_def_cfa_offset 0
 1269              		.cfi_restore 3
 1270              		.cfi_restore 14
 633:Middlewares/ST/STM32_USB_Device_Library/Core/Src/usbd_core.c ****   }
 1271              		.loc 1 633 12 view .LVU377
 1272 001e 0320     		movs	r0, #3
 1273              	.LVL107:
 1274              		.loc 1 645 1 view .LVU378
 1275 0020 7047     		bx	lr
 1276              	.LVL108:
 1277              	.L121:
 1278              		.cfi_def_cfa_offset 8
 1279              		.cfi_offset 3, -8
 1280              		.cfi_offset 14, -4
 644:Middlewares/ST/STM32_USB_Device_Library/Core/Src/usbd_core.c **** }
 1281              		.loc 1 644 10 view .LVU379
 1282 0022 1846     		mov	r0, r3
 1283              	.LVL109:
 1284              		.loc 1 645 1 view .LVU380
ARM GAS  /tmp/ccBPDmLJ.s 			page 37


 1285 0024 08BD     		pop	{r3, pc}
 1286              		.cfi_endproc
 1287              	.LFE256:
 1289 0026 00BF     		.section	.text.USBD_LL_DevConnected,"ax",%progbits
 1290              		.align	1
 1291              		.p2align 2,,3
 1292              		.global	USBD_LL_DevConnected
 1293              		.syntax unified
 1294              		.thumb
 1295              		.thumb_func
 1297              	USBD_LL_DevConnected:
 1298              	.LFB260:
 1299              		.cfi_startproc
 1300              		@ args = 0, pretend = 0, frame = 0
 1301              		@ frame_needed = 0, uses_anonymous_args = 0
 1302              		@ link register save eliminated.
 1303 0000 0020     		movs	r0, #0
 1304 0002 7047     		bx	lr
 1305              		.cfi_endproc
 1306              	.LFE260:
 1308              		.section	.text.USBD_LL_DevDisconnected,"ax",%progbits
 1309              		.align	1
 1310              		.p2align 2,,3
 1311              		.global	USBD_LL_DevDisconnected
 1312              		.syntax unified
 1313              		.thumb
 1314              		.thumb_func
 1316              	USBD_LL_DevDisconnected:
 1317              	.LVL110:
 1318              	.LFB258:
 646:Middlewares/ST/STM32_USB_Device_Library/Core/Src/usbd_core.c **** 
 647:Middlewares/ST/STM32_USB_Device_Library/Core/Src/usbd_core.c **** /**
 648:Middlewares/ST/STM32_USB_Device_Library/Core/Src/usbd_core.c ****   * @brief  USBD_LL_DevConnected
 649:Middlewares/ST/STM32_USB_Device_Library/Core/Src/usbd_core.c ****   *         Handle device connection event
 650:Middlewares/ST/STM32_USB_Device_Library/Core/Src/usbd_core.c ****   * @param  pdev: device instance
 651:Middlewares/ST/STM32_USB_Device_Library/Core/Src/usbd_core.c ****   * @retval status
 652:Middlewares/ST/STM32_USB_Device_Library/Core/Src/usbd_core.c ****   */
 653:Middlewares/ST/STM32_USB_Device_Library/Core/Src/usbd_core.c **** USBD_StatusTypeDef USBD_LL_DevConnected(USBD_HandleTypeDef *pdev)
 654:Middlewares/ST/STM32_USB_Device_Library/Core/Src/usbd_core.c **** {
 655:Middlewares/ST/STM32_USB_Device_Library/Core/Src/usbd_core.c ****   /* Prevent unused argument compilation warning */
 656:Middlewares/ST/STM32_USB_Device_Library/Core/Src/usbd_core.c ****   UNUSED(pdev);
 657:Middlewares/ST/STM32_USB_Device_Library/Core/Src/usbd_core.c **** 
 658:Middlewares/ST/STM32_USB_Device_Library/Core/Src/usbd_core.c ****   return USBD_OK;
 659:Middlewares/ST/STM32_USB_Device_Library/Core/Src/usbd_core.c **** }
 660:Middlewares/ST/STM32_USB_Device_Library/Core/Src/usbd_core.c **** 
 661:Middlewares/ST/STM32_USB_Device_Library/Core/Src/usbd_core.c **** /**
 662:Middlewares/ST/STM32_USB_Device_Library/Core/Src/usbd_core.c ****   * @brief  USBD_LL_DevDisconnected
 663:Middlewares/ST/STM32_USB_Device_Library/Core/Src/usbd_core.c ****   *         Handle device disconnection event
 664:Middlewares/ST/STM32_USB_Device_Library/Core/Src/usbd_core.c ****   * @param  pdev: device instance
 665:Middlewares/ST/STM32_USB_Device_Library/Core/Src/usbd_core.c ****   * @retval status
 666:Middlewares/ST/STM32_USB_Device_Library/Core/Src/usbd_core.c ****   */
 667:Middlewares/ST/STM32_USB_Device_Library/Core/Src/usbd_core.c **** USBD_StatusTypeDef USBD_LL_DevDisconnected(USBD_HandleTypeDef *pdev)
 668:Middlewares/ST/STM32_USB_Device_Library/Core/Src/usbd_core.c **** {
 1319              		.loc 1 668 1 is_stmt 1 view -0
 1320              		.cfi_startproc
 1321              		@ args = 0, pretend = 0, frame = 0
 1322              		@ frame_needed = 0, uses_anonymous_args = 0
ARM GAS  /tmp/ccBPDmLJ.s 			page 38


 669:Middlewares/ST/STM32_USB_Device_Library/Core/Src/usbd_core.c ****   /* Free Class Resources */
 670:Middlewares/ST/STM32_USB_Device_Library/Core/Src/usbd_core.c ****   pdev->dev_state = USBD_STATE_DEFAULT;
 1323              		.loc 1 670 3 view .LVU382
 671:Middlewares/ST/STM32_USB_Device_Library/Core/Src/usbd_core.c **** 
 672:Middlewares/ST/STM32_USB_Device_Library/Core/Src/usbd_core.c ****   if (pdev->pClass != NULL)
 1324              		.loc 1 672 11 is_stmt 0 view .LVU383
 1325 0000 D0F8B822 		ldr	r2, [r0, #696]
 670:Middlewares/ST/STM32_USB_Device_Library/Core/Src/usbd_core.c **** 
 1326              		.loc 1 670 19 view .LVU384
 1327 0004 0121     		movs	r1, #1
 1328 0006 80F89C12 		strb	r1, [r0, #668]
 1329              		.loc 1 672 3 is_stmt 1 view .LVU385
 1330              		.loc 1 672 6 is_stmt 0 view .LVU386
 1331 000a 2AB1     		cbz	r2, .L134
 673:Middlewares/ST/STM32_USB_Device_Library/Core/Src/usbd_core.c ****   {
 674:Middlewares/ST/STM32_USB_Device_Library/Core/Src/usbd_core.c ****     (void)pdev->pClass->DeInit(pdev, (uint8_t)pdev->dev_config);
 1332              		.loc 1 674 5 is_stmt 1 view .LVU387
 668:Middlewares/ST/STM32_USB_Device_Library/Core/Src/usbd_core.c ****   /* Free Class Resources */
 1333              		.loc 1 668 1 is_stmt 0 view .LVU388
 1334 000c 08B5     		push	{r3, lr}
 1335              		.cfi_def_cfa_offset 8
 1336              		.cfi_offset 3, -8
 1337              		.cfi_offset 14, -4
 1338              		.loc 1 674 11 view .LVU389
 1339 000e 5268     		ldr	r2, [r2, #4]
 1340 0010 0179     		ldrb	r1, [r0, #4]	@ zero_extendqisi2
 1341 0012 9047     		blx	r2
 1342              	.LVL111:
 675:Middlewares/ST/STM32_USB_Device_Library/Core/Src/usbd_core.c ****   }
 676:Middlewares/ST/STM32_USB_Device_Library/Core/Src/usbd_core.c **** 
 677:Middlewares/ST/STM32_USB_Device_Library/Core/Src/usbd_core.c ****   return USBD_OK;
 1343              		.loc 1 677 3 is_stmt 1 view .LVU390
 678:Middlewares/ST/STM32_USB_Device_Library/Core/Src/usbd_core.c **** }
 1344              		.loc 1 678 1 is_stmt 0 view .LVU391
 1345 0014 0020     		movs	r0, #0
 1346 0016 08BD     		pop	{r3, pc}
 1347              	.LVL112:
 1348              	.L134:
 1349              		.cfi_def_cfa_offset 0
 1350              		.cfi_restore 3
 1351              		.cfi_restore 14
 677:Middlewares/ST/STM32_USB_Device_Library/Core/Src/usbd_core.c **** }
 1352              		.loc 1 677 3 is_stmt 1 view .LVU392
 1353              		.loc 1 678 1 is_stmt 0 view .LVU393
 1354 0018 0020     		movs	r0, #0
 1355              	.LVL113:
 1356              		.loc 1 678 1 view .LVU394
 1357 001a 7047     		bx	lr
 1358              		.cfi_endproc
 1359              	.LFE258:
 1361              		.text
 1362              	.Letext0:
 1363              		.file 2 "/opt/gcc-arm-none-eabi-10.3-2021.10/arm-none-eabi/include/machine/_default_types.h"
 1364              		.file 3 "/opt/gcc-arm-none-eabi-10.3-2021.10/arm-none-eabi/include/sys/_stdint.h"
 1365              		.file 4 "Middlewares/ST/STM32_USB_Device_Library/Core/Inc/usbd_def.h"
 1366              		.file 5 "Middlewares/ST/STM32_USB_Device_Library/Core/Inc/usbd_core.h"
 1367              		.file 6 "Middlewares/ST/STM32_USB_Device_Library/Core/Inc/usbd_ioreq.h"
ARM GAS  /tmp/ccBPDmLJ.s 			page 39


 1368              		.file 7 "Middlewares/ST/STM32_USB_Device_Library/Core/Inc/usbd_ctlreq.h"
ARM GAS  /tmp/ccBPDmLJ.s 			page 40

